 BugSplat64

 Timestamp is 67194e38 (Wed Oct 23 19:27:52 2024)

 Preferred load address is 0000000180000000

 Start         Length     Name                   Class
 0001:00000000 00000300H .text$di                CODE
 0001:00000300 00074b60H .text$mn                CODE
 0001:00074e60 00000040H .text$mn$00             CODE
 0001:00074ea0 00001810H .text$x                 CODE
 0001:000766b0 00000220H .text$yd                CODE
 0002:00000000 000005b0H .idata$5                DATA
 0002:000005b0 00000028H .00cfg                  DATA
 0002:000005d8 00000008H .CRT$XCA                DATA
 0002:000005e0 00000008H .CRT$XCL                DATA
 0002:000005e8 00000050H .CRT$XCU                DATA
 0002:00000638 00000008H .CRT$XCZ                DATA
 0002:00000640 00000008H .CRT$XIA                DATA
 0002:00000648 00000030H .CRT$XIC                DATA
 0002:00000678 00000008H .CRT$XIZ                DATA
 0002:00000680 00000008H .CRT$XLA                DATA
 0002:00000688 00000008H .CRT$XLZ                DATA
 0002:00000690 00000008H .CRT$XPA                DATA
 0002:00000698 00000010H .CRT$XPX                DATA
 0002:000006a8 00000008H .CRT$XPXA               DATA
 0002:000006b0 00000008H .CRT$XPZ                DATA
 0002:000006b8 00000008H .CRT$XTA                DATA
 0002:000006c0 00000010H .CRT$XTZ                DATA
 0002:000006c8 00000000H .gehcont$y              DATA
 0002:000006c8 00000000H .gfids$y                DATA
 0002:000006d0 0000e230H .rdata                  DATA
 0002:0000e900 00000008H .rdata$CastGuardVftablesA DATA
 0002:0000e908 00000008H .rdata$CastGuardVftablesC DATA
 0002:0000e910 00000028H .rdata$T                DATA
 0002:0000e938 00001024H .rdata$r                DATA
 0002:0000f95c 00000778H .rdata$voltmd           DATA
 0002:000100d4 0000049cH .rdata$zzzdbg           DATA
 0002:00010570 00000008H .rtc$IAA                DATA
 0002:00010578 00000008H .rtc$IZZ                DATA
 0002:00010580 00000008H .rtc$TAA                DATA
 0002:00010588 00000008H .rtc$TZZ                DATA
 0002:00010590 00000008H .tls                    DATA
 0002:00010598 00000014H .tls$                   DATA
 0002:000105ac 00000004H .tls$ZZZ                DATA
 0002:000105b0 00008aa0H .xdata                  DATA
 0002:00019050 000004f0H .xdata$x                DATA
 0002:00019540 00000008H ATL$__a                 DATA
 0002:00019548 00000008H ATL$__z                 DATA
 0002:00019550 00000a6cH .edata                  DATA
 0002:00019fbc 000000a0H .idata$2                DATA
 0002:0001a05c 00000014H .idata$3                DATA
 0002:0001a070 000005b0H .idata$4                DATA
 0002:0001a620 00000caeH .idata$6                DATA
 0003:00000000 00000c48H .data                   DATA
 0003:00000c48 00000240H .data$r                 DATA
 0003:00000e88 00000358H .data$rs                DATA
 0003:000011e0 000054acH .bss                    DATA
 0004:00000000 000062a0H .pdata                  DATA
 0005:00000000 000000f4H _RDATA                  DATA
 0006:00000000 00000120H .rsrc$01                DATA
 0006:00000120 00000b30H .rsrc$02                DATA

  Address         Publics by Value              Rva+Base               Lib:Object

 0000:00000000       __enclave_config           0000000000000000     <absolute>
 0000:00000000       __arm64x_extra_rfe_table   0000000000000000     <absolute>
 0000:00000000       __guard_fids_table         0000000000000000     <absolute>
 0000:00000000       __hybrid_auxiliary_iat     0000000000000000     <absolute>
 0000:00000000       __arm64x_redirection_metadata 0000000000000000     <absolute>
 0000:00000000       __arm64x_extra_rfe_table_size 0000000000000000     <absolute>
 0000:00000000       __guard_fids_count         0000000000000000     <absolute>
 0000:00000000       __dynamic_value_reloc_table 0000000000000000     <absolute>
 0000:00000000       ___safe_se_handler_count   0000000000000000     <absolute>
 0000:00000000       __hybrid_auxiliary_iat_copy 0000000000000000     <absolute>
 0000:00000000       __guard_eh_cont_count      0000000000000000     <absolute>
 0000:00000000       __x64_code_ranges_to_entry_points_count 0000000000000000     <absolute>
 0000:00000000       __AbsoluteZero             0000000000000000     <absolute>
 0000:00000000       __guard_iat_count          0000000000000000     <absolute>
 0000:00000000       __arm64x_native_entrypoint 0000000000000000     <absolute>
 0000:00000000       __guard_iat_table          0000000000000000     <absolute>
 0000:00000000       __guard_eh_cont_table      0000000000000000     <absolute>
 0000:00000000       __hybrid_code_map          0000000000000000     <absolute>
 0000:00000000       __guard_longjmp_count      0000000000000000     <absolute>
 0000:00000000       __guard_longjmp_table      0000000000000000     <absolute>
 0000:00000000       __hybrid_code_map_count    0000000000000000     <absolute>
 0000:00000000       __x64_code_ranges_to_entry_points 0000000000000000     <absolute>
 0000:00000000       __guard_check_icall_a64n_fptr 0000000000000000     <absolute>
 0000:00000000       __arm64x_redirection_metadata_count 0000000000000000     <absolute>
 0000:00000000       ___safe_se_handler_table   0000000000000000     <absolute>
 0000:00000100       __guard_flags              0000000000000100     <absolute>
 0000:00000000       __ImageBase                0000000180000000     <linker-defined>
 0001:00000300       ??$_Allocate_manually_vector_aligned@U_Default_allocate_traits@std@@@std@@YAPEAX_K@Z 0000000180001300 f i GenericHTTPClient.obj
 0001:0000033c       ??$_Copy_memmove@PEAU__GENERIC_HTTP_ARGUMENT@GenericHTTPClient@@PEAU12@@std@@YAPEAU__GENERIC_HTTP_ARGUMENT@GenericHTTPClient@@PEAU12@00@Z 000000018000133c f i GenericHTTPClient.obj
 0001:0000036c       ??$_Emplace_reallocate@AEBU__GENERIC_HTTP_ARGUMENT@GenericHTTPClient@@@?$vector@U__GENERIC_HTTP_ARGUMENT@GenericHTTPClient@@V?$allocator@U__GENERIC_HTTP_ARGUMENT@GenericHTTPClient@@@std@@@std@@QEAAPEAU__GENERIC_HTTP_ARGUMENT@GenericHTTPClient@@QEAU23@AEBU23@@Z 000000018000136c f i GenericHTTPClient.obj
 0001:000004f4       ??0?$CStringT@_WV?$StrTraitATL@_WV?$ChTraitsCRT@_W@ATL@@@ATL@@@ATL@@QEAA@PEBD@Z 00000001800014f4 f i GenericHTTPClient.obj
 0001:00000578       ??0?$CStringT@_WV?$StrTraitATL@_WV?$ChTraitsCRT@_W@ATL@@@ATL@@@ATL@@QEAA@PEB_W@Z 0000000180001578 f i GenericHTTPClient.obj
 0001:0000060c       ??0CAtlComModule@ATL@@QEAA@XZ 000000018000160c f i GenericHTTPClient.obj
 0001:00000694       ??0CAtlException@ATL@@QEAA@J@Z 0000000180001694 f i GenericHTTPClient.obj
 0001:0000069c       ??0CAtlWinModule@ATL@@QEAA@XZ 000000018000169c f i GenericHTTPClient.obj
 0001:00000714       ??0GenericHTTPClient@@QEAA@XZ 0000000180001714 f   GenericHTTPClient.obj
 0001:00000748       ??0bad_alloc@std@@QEAA@AEBV01@@Z 0000000180001748 f i GenericHTTPClient.obj
 0001:00000784       ??0bad_array_new_length@std@@QEAA@AEBV01@@Z 0000000180001784 f i GenericHTTPClient.obj
 0001:000007c0       ??0bad_array_new_length@std@@QEAA@XZ 00000001800017c0 f i GenericHTTPClient.obj
 0001:000007e0       ??0exception@std@@QEAA@AEBV01@@Z 00000001800017e0 f i GenericHTTPClient.obj
 0001:00000814       ??1?$CSimpleStringT@_W$0A@@ATL@@QEAA@XZ 0000000180001814 f i GenericHTTPClient.obj
 0001:0000083c       ??1?$CStringT@_WV?$StrTraitATL@_WV?$ChTraitsCRT@_W@ATL@@@ATL@@@ATL@@QEAA@XZ 000000018000183c f i GenericHTTPClient.obj
 0001:00000864       ??1CAtlStringMgr@ATL@@UEAA@XZ 0000000180001864 f i GenericHTTPClient.obj
 0001:00000878       ??1CWin32Heap@ATL@@UEAA@XZ 0000000180001878 f i GenericHTTPClient.obj
 0001:000008a0       ??1GenericHTTPClient@@UEAA@XZ 00000001800018a0 f   GenericHTTPClient.obj
 0001:000008cc       ??1bad_array_new_length@std@@UEAA@XZ 00000001800018cc f i GenericHTTPClient.obj
 0001:000008e0       ??1exception@std@@UEAA@XZ  00000001800018e0 f i GenericHTTPClient.obj
 0001:000008f4       ??4?$CStringT@_WV?$StrTraitATL@_WV?$ChTraitsCRT@_W@ATL@@@ATL@@@ATL@@QEAAAEAV01@PEBD@Z 00000001800018f4 f i GenericHTTPClient.obj
 0001:000009b4       ??_GCAtlStringMgr@ATL@@UEAAPEAXI@Z 00000001800019b4 f i GenericHTTPClient.obj
 0001:000009b4       ??_ECAtlStringMgr@ATL@@UEAAPEAXI@Z 00000001800019b4 f i GenericHTTPClient.obj
 0001:000009e8       ??_GCWin32Heap@ATL@@UEAAPEAXI@Z 00000001800019e8 f i GenericHTTPClient.obj
 0001:000009e8       ??_ECWin32Heap@ATL@@UEAAPEAXI@Z 00000001800019e8 f i GenericHTTPClient.obj
 0001:00000a38       ??_GGenericHTTPClient@@UEAAPEAXI@Z 0000000180001a38 f i GenericHTTPClient.obj
 0001:00000a38       ??_EGenericHTTPClient@@UEAAPEAXI@Z 0000000180001a38 f i GenericHTTPClient.obj
 0001:00000a6c       ??_Ebad_alloc@std@@UEAAPEAXI@Z 0000000180001a6c f i GenericHTTPClient.obj
 0001:00000a6c       ??_Gbad_alloc@std@@UEAAPEAXI@Z 0000000180001a6c f i GenericHTTPClient.obj
 0001:00000ab0       ??_Gbad_array_new_length@std@@UEAAPEAXI@Z 0000000180001ab0 f i GenericHTTPClient.obj
 0001:00000ab0       ??_Ebad_array_new_length@std@@UEAAPEAXI@Z 0000000180001ab0 f i GenericHTTPClient.obj
 0001:00000af4       ??_Eexception@std@@UEAAPEAXI@Z 0000000180001af4 f i GenericHTTPClient.obj
 0001:00000af4       ??_Gexception@std@@UEAAPEAXI@Z 0000000180001af4 f i GenericHTTPClient.obj
 0001:00000b38       ?AddPutPostArguments@GenericHTTPClient@@QEAAXPEB_W0H@Z 0000000180001b38 f   GenericHTTPClient.obj
 0001:00000bfc       ?AddPutPostArguments@GenericHTTPClient@@QEAAXPEB_WK@Z 0000000180001bfc f   GenericHTTPClient.obj
 0001:00000cc4       ?Allocate@CAtlStringMgr@ATL@@UEAAPEAUCStringData@2@HH@Z 0000000180001cc4 f i GenericHTTPClient.obj
 0001:00000d48       ?Allocate@CWin32Heap@ATL@@UEAAPEAX_K@Z 0000000180001d48 f i GenericHTTPClient.obj
 0001:00000d58       ?AtlFindStringResourceInstance@ATL@@YAPEAUHINSTANCE__@@IG@Z 0000000180001d58 f i GenericHTTPClient.obj
 0001:00000e0c       ?AtlThrowImpl@ATL@@YAXJ@Z  0000000180001e0c f i GenericHTTPClient.obj
 0001:00000e30       ?AtlWinModuleTerm@ATL@@YAJPEAU_ATL_WIN_MODULE70@1@PEAUHINSTANCE__@@@Z 0000000180001e30 f i GenericHTTPClient.obj
 0001:00000ee0       ?Clone@CAtlStringMgr@ATL@@UEAAPEAUIAtlStringMgr@2@XZ 0000000180001ee0 f i GenericHTTPClient.obj
 0001:00000ee4       ?CloneData@?$CSimpleStringT@_W$0A@@ATL@@CAPEAUCStringData@2@PEAU32@@Z 0000000180001ee4 f i GenericHTTPClient.obj
 0001:00000f7c       ?Close@GenericHTTPClient@@QEAAHXZ 0000000180001f7c f   GenericHTTPClient.obj
 0001:00000fc8       ?Connect@GenericHTTPClient@@QEAAHV?$CStringT@_WV?$StrTraitATL@_WV?$ChTraitsCRT@_W@ATL@@@ATL@@@ATL@@0G00@Z 0000000180001fc8 f   GenericHTTPClient.obj
 0001:000013a8       ?ConvertToBaseType@?$ChTraitsCRT@_W@ATL@@SAXPEA_WHPEB_WH@Z 00000001800023a8 f i GenericHTTPClient.obj
 0001:00001438       ?CopyWideToMultibyte@GenericHTTPClient@@QEAAHV?$CStringT@_WV?$StrTraitATL@_WV?$ChTraitsCRT@_W@ATL@@@ATL@@@ATL@@PEADKK@Z 0000000180002438 f   GenericHTTPClient.obj
 0001:00001530       ?DebuggerConsoleMessage@GenericHTTPClient@@QEAAXXZ 0000000180002530 f   GenericHTTPClient.obj
 0001:0000154c       ?Empty@?$CSimpleStringT@_W$0A@@ATL@@QEAAXXZ 000000018000254c f i GenericHTTPClient.obj
 0001:000015bc       ?EncodeSpecialCharacters@GenericHTTPClient@@QEAA?AV?$CStringT@_WV?$StrTraitATL@_WV?$ChTraitsCRT@_W@ATL@@@ATL@@@ATL@@V23@@Z 00000001800025bc f   GenericHTTPClient.obj
 0001:00001650       ?EnsureLinked@CAtlStringMgrStaticInitializer@ATLImplementationDetails@ATL@@QEAAPEAXXZ 0000000180002650 f i GenericHTTPClient.obj
 0001:00001654       ?Fork@?$CSimpleStringT@_W$0A@@ATL@@AEAAXH@Z 0000000180002654 f i GenericHTTPClient.obj
 0001:00001730       ?Free@CAtlStringMgr@ATL@@UEAAXPEAUCStringData@2@@Z 0000000180002730 f i GenericHTTPClient.obj
 0001:0000173c       ?Free@CWin32Heap@ATL@@UEAAXPEAX@Z 000000018000273c f i GenericHTTPClient.obj
 0001:0000175c       ?GetContentType@GenericHTTPClient@@QEAAPEB_WPEB_W@Z 000000018000275c f   GenericHTTPClient.obj
 0001:00001868       ?GetInstance@CAtlStringMgr@ATL@@SAPEAUIAtlStringMgr@2@XZ 0000000180002868 f i GenericHTTPClient.obj
 0001:00001988       ?GetNilString@CAtlStringMgr@ATL@@UEAAPEAUCStringData@2@XZ 0000000180002988 f i GenericHTTPClient.obj
 0001:00001994       ?GetPostArguments@GenericHTTPClient@@QEAAKPEADK@Z 0000000180002994 f   GenericHTTPClient.obj
 0001:00001c38       ?GetSize@CWin32Heap@ATL@@UEAA_KPEAX@Z 0000000180002c38 f i GenericHTTPClient.obj
 0001:00001c48       ?InitilizePutPostArguments@GenericHTTPClient@@QEAAXXZ 0000000180002c48 f   GenericHTTPClient.obj
 0001:00001c54       ?LoadStringW@?$CStringT@_WV?$StrTraitATL@_WV?$ChTraitsCRT@_W@ATL@@@ATL@@@ATL@@QEAAHPEAUHINSTANCE__@@I@Z 0000000180002c54 f i GenericHTTPClient.obj
 0001:00001d30       ?ParseURLW@GenericHTTPClient@@QEAAXPEB_WPEA_WH1H@Z 0000000180002d30 f   GenericHTTPClient.obj
 0001:00001e88       ?PrepareWrite2@?$CSimpleStringT@_W$0A@@ATL@@AEAAXH@Z 0000000180002e88 f i GenericHTTPClient.obj
 0001:00001ee8       ?QueryHTTPResponse@GenericHTTPClient@@QEAAPEB_WXZ 0000000180002ee8 f   GenericHTTPClient.obj
 0001:00001ef0       ?QueryHTTPResponseHeader@GenericHTTPClient@@QEAAPEB_WXZ 0000000180002ef0 f   GenericHTTPClient.obj
 0001:00001ef8       ?Reallocate@?$CSimpleStringT@_W$0A@@ATL@@AEAAXH@Z 0000000180002ef8 f i GenericHTTPClient.obj
 0001:00001f40       ?Reallocate@CAtlStringMgr@ATL@@UEAAPEAUCStringData@2@PEAU32@HH@Z 0000000180002f40 f i GenericHTTPClient.obj
 0001:00001fa8       ?Reallocate@CWin32Heap@ATL@@UEAAPEAXPEAX_K@Z 0000000180002fa8 f i GenericHTTPClient.obj
 0001:00001fe8       ?Reconnect@GenericHTTPClient@@QEAAHXZ 0000000180002fe8 f   GenericHTTPClient.obj
 0001:000020c0       ?Replace@?$CStringT@_WV?$StrTraitATL@_WV?$ChTraitsCRT@_W@ATL@@@ATL@@@ATL@@QEAAHPEB_W0@Z 00000001800030c0 f i GenericHTTPClient.obj
 0001:00002364       ?Request@GenericHTTPClient@@QEAAHPEB_WH0@Z 0000000180003364 f   GenericHTTPClient.obj
 0001:00002500       ?RequestGet@GenericHTTPClient@@QEAAHPEB_W@Z 0000000180003500 f   GenericHTTPClient.obj
 0001:000025d4       ?RequestOfURI@GenericHTTPClient@@QEAAHPEB_WH@Z 00000001800035d4 f   GenericHTTPClient.obj
 0001:00002614       ?RequestPost@GenericHTTPClient@@QEAAHPEB_W@Z 0000000180003614 f   GenericHTTPClient.obj
 0001:00002748       ?RequestPut@GenericHTTPClient@@QEAAHPEB_W@Z 0000000180003748 f   GenericHTTPClient.obj
 0001:000027d0       ?Response@GenericHTTPClient@@QEAAHPEA_WK0KAEAK@Z 00000001800037d0 f   GenericHTTPClient.obj
 0001:00002980       ?ResponseOfBytes@GenericHTTPClient@@QEAAKPEAEK@Z 0000000180003980 f   GenericHTTPClient.obj
 0001:000029f0       ?SendPutFileData@GenericHTTPClient@@QEAAKXZ 00000001800039f0 f   GenericHTTPClient.obj
 0001:00002b04       ?SetString@?$CSimpleStringT@_W$0A@@ATL@@QEAAXPEB_WH@Z 0000000180003b04 f i GenericHTTPClient.obj
 0001:00002c30       ?Term@CAtlComModule@ATL@@QEAAXXZ 0000000180003c30 f i GenericHTTPClient.obj
 0001:00002ca0       ?ThrowMemoryException@?$CSimpleStringT@_W$0A@@ATL@@KAXXZ 0000000180003ca0 f i GenericHTTPClient.obj
 0001:00002cb0       ?_AtlGetStringResourceImage@ATL@@YAPEBUATLSTRINGRESOURCEIMAGE@1@PEAUHINSTANCE__@@PEAUHRSRC__@@I@Z 0000000180003cb0 f i GenericHTTPClient.obj
 0001:00002d4c       ?_AtlInitializeCriticalSectionEx@ATL@@YAHPEAU_RTL_CRITICAL_SECTION@@KK@Z 0000000180003d4c f i GenericHTTPClient.obj
 0001:00002d54       ?_AtlRaiseException@ATL@@YAXKK@Z 0000000180003d54 f i GenericHTTPClient.obj
 0001:00002d64       ?_Change_array@?$vector@U__GENERIC_HTTP_ARGUMENT@GenericHTTPClient@@V?$allocator@U__GENERIC_HTTP_ARGUMENT@GenericHTTPClient@@@std@@@std@@AEAAXQEAU__GENERIC_HTTP_ARGUMENT@GenericHTTPClient@@_K1@Z 0000000180003d64 f i GenericHTTPClient.obj
 0001:00002e18       ?_Throw_bad_array_new_length@std@@YAXXZ 0000000180003e18 f i GenericHTTPClient.obj
 0001:00002e38       ?_Tidy@?$vector@U__GENERIC_HTTP_ARGUMENT@GenericHTTPClient@@V?$allocator@U__GENERIC_HTTP_ARGUMENT@GenericHTTPClient@@@std@@@std@@AEAAXXZ 0000000180003e38 f i GenericHTTPClient.obj
 0001:00002eb4       ?_Xlength@?$vector@U__GENERIC_HTTP_ARGUMENT@GenericHTTPClient@@V?$allocator@U__GENERIC_HTTP_ARGUMENT@GenericHTTPClient@@@std@@@std@@CAXXZ 0000000180003eb4 f i GenericHTTPClient.obj
 0001:00002ec8       ?deallocate@?$allocator@U__GENERIC_HTTP_ARGUMENT@GenericHTTPClient@@@std@@QEAAXQEAU__GENERIC_HTTP_ARGUMENT@GenericHTTPClient@@_K@Z 0000000180003ec8 f i GenericHTTPClient.obj
 0001:00002f0c       ?what@exception@std@@UEBAPEBDXZ 0000000180003f0c f i GenericHTTPClient.obj
 0001:00002f20       __local_stdio_printf_options 0000000180003f20 f i GenericHTTPClient.obj
 0001:00002f28       swprintf_s                 0000000180003f28 f i GenericHTTPClient.obj
 0001:00002f7c       ??0?$CSimpleStringT@_W$0A@@ATL@@QEAA@PEB_WHPEAUIAtlStringMgr@1@@Z 0000000180003f7c f i BugSplatImp.obj
 0001:00003054       ??0BugSplatImp@@QEAA@XZ    0000000180004054 f   BugSplatImp.obj
 0001:0000307c       ??0MiniDmpSender@@QEAA@AEBV0@@Z 000000018000407c f i BugSplatImp.obj
 0001:00003094       ??4?$CSimpleStringT@_W$0A@@ATL@@QEAAAEAV01@AEBV01@@Z 0000000180004094 f i BugSplatImp.obj
 0001:00003114       ??4BugSplatImp@@QEAAAEAV0@$$QEAV0@@Z 0000000180004114 f i BugSplatImp.obj
 0001:00003184       ??4BugSplatImp@@QEAAAEAV0@AEBV0@@Z 0000000180004184 f i BugSplatImp.obj
 0001:000031a4       ??4MiniDmpSender@@QEAAAEAV0@AEBV0@@Z 00000001800041a4 f i BugSplatImp.obj
 0001:000031b0       ??HATL@@YA?AV?$CStringT@_WV?$StrTraitATL@_WV?$ChTraitsCRT@_W@ATL@@@ATL@@@0@AEBV10@0@Z 00000001800041b0 f i BugSplatImp.obj
 0001:00003250       ??_EMiniDmpSender@@UEAAPEAXI@Z 0000000180004250 f i BugSplatImp.obj
 0001:000032cc       ??_GMiniDmpSender@@UEAAPEAXI@Z 00000001800042cc f i BugSplatImp.obj
 0001:00003300       ?Append@?$CSimpleStringT@_W$0A@@ATL@@QEAAXPEB_WH@Z 0000000180004300 f i BugSplatImp.obj
 0001:00003414       ?AppendChar@?$CSimpleStringT@_W$0A@@ATL@@QEAAX_W@Z 0000000180004414 f i BugSplatImp.obj
 0001:000034a4       ?Concatenate@?$CSimpleStringT@_W$0A@@ATL@@KAXAEAV12@PEB_WH1H@Z 00000001800044a4 f i BugSplatImp.obj
 0001:000035ac       ?CreateMiniDump@BugSplatImp@@QEAAHPEAUHINSTANCE__@@KPEAXKPEAU_EXCEPTION_POINTERS@@W4_BS_MINIDUMP_TYPE@MiniDmpSender@@PEB_WPEA_WK@Z 00000001800045ac f   BugSplatImp.obj
 0001:00003818       ?GetReducedGuid@BugSplatImp@@SAXPEA_WK@Z 0000000180004818 f   BugSplatImp.obj
 0001:00003a38       ?Left@?$CStringT@_WV?$StrTraitATL@_WV?$ChTraitsCRT@_W@ATL@@@ATL@@@ATL@@QEBA?AV12@H@Z 0000000180004a38 f i BugSplatImp.obj
 0001:00003ab8       ?MakeUpper@?$CStringT@_WV?$StrTraitATL@_WV?$ChTraitsCRT@_W@ATL@@@ATL@@@ATL@@QEAAAEAV12@XZ 0000000180004ab8 f i BugSplatImp.obj
 0001:00003b30       ?Mid@?$CStringT@_WV?$StrTraitATL@_WV?$ChTraitsCRT@_W@ATL@@@ATL@@@ATL@@QEBA?AV12@HH@Z 0000000180004b30 f i BugSplatImp.obj
 0001:00003c0c       ?ReduceGuidString@BugSplatImp@@SAXPEA_WK@Z 0000000180004c0c f   BugSplatImp.obj
 0001:00003f84       ?ResumeSuspendedThreads@BugSplatImp@@QEAAXXZ 0000000180004f84 f   BugSplatImp.obj
 0001:00003fe8       ?SuspendAllThreadsInProcess@BugSplatImp@@QEAAXPEAX@Z 0000000180004fe8 f   BugSplatImp.obj
 0001:000040bc       ?SuspendThreadsInCurrentProcess@BugSplatImp@@QEAAXXZ 00000001800050bc f   BugSplatImp.obj
 0001:000041b0       ?UINTtoWchar_t@@YA_WI@Z    00000001800051b0 f   BugSplatImp.obj
 0001:000041d0       ?Wchar_tToUINT@@YAI_W@Z    00000001800051d0 f   BugSplatImp.obj
 0001:00004200       ?combine1_4@@YAIII@Z       0000000180005200 f   BugSplatImp.obj
 0001:0000420c       ?combine2_3@@YAIII@Z       000000018000520c f   BugSplatImp.obj
 0001:0000421c       ?combine3_2@@YAIII@Z       000000018000521c f   BugSplatImp.obj
 0001:0000422c       ?combine4_1@@YAIII@Z       000000018000522c f   BugSplatImp.obj
 0001:00004238       ?combineLast3@@YAII@Z      0000000180005238 f   BugSplatImp.obj
 0001:00004240       ?createReportAndExit@MiniDmpSender@@QEAAXXZ 0000000180005240 f i BugSplatImp.obj
 0001:00004274       ??$?8V?$MemoryPoolAllocator@VCrtAllocator@rapidjson@@@rapidjson@@@?$GenericValue@U?$UTF16@_W@rapidjson@@V?$MemoryPoolAllocator@VCrtAllocator@rapidjson@@@2@@rapidjson@@QEBA_NAEBV01@@Z 0000000180005274 f i mdump.obj
 0001:000044b8       ??$?A$$CB_W@?$GenericValue@U?$UTF16@_W@rapidjson@@V?$MemoryPoolAllocator@VCrtAllocator@rapidjson@@@2@@rapidjson@@QEAAAEAV01@PEB_W@Z 00000001800054b8 f i mdump.obj
 0001:00004584       ??$DoFindMember@V?$MemoryPoolAllocator@VCrtAllocator@rapidjson@@@rapidjson@@@?$GenericValue@U?$UTF16@_W@rapidjson@@V?$MemoryPoolAllocator@VCrtAllocator@rapidjson@@@2@@rapidjson@@AEAA?AV?$GenericMemberIterator@$0A@U?$UTF16@_W@rapidjson@@V?$MemoryPoolAllocator@VCrtAllocator@rapidjson@@@2@@1@AEBV01@@Z 0000000180005584 f i mdump.obj
 0001:00004604       ??$Encode@V?$StackStream@_W@?$GenericReader@U?$UTF16@_W@rapidjson@@U12@VCrtAllocator@2@@rapidjson@@@?$UTF16@_W@rapidjson@@SAXAEAV?$StackStream@_W@?$GenericReader@U?$UTF16@_W@rapidjson@@U12@VCrtAllocator@2@@1@I@Z 0000000180005604 f i mdump.obj
 0001:000046dc       ??$Expand@V?$GenericValue@U?$UTF16@_W@rapidjson@@V?$MemoryPoolAllocator@VCrtAllocator@rapidjson@@@2@@rapidjson@@@?$Stack@VCrtAllocator@rapidjson@@@internal@rapidjson@@AEAAX_K@Z 00000001800056dc f i mdump.obj
 0001:0000478c       ??$Expand@_W@?$Stack@VCrtAllocator@rapidjson@@@internal@rapidjson@@AEAAX_K@Z 000000018000578c f i mdump.obj
 0001:0000483c       ??$Parse@$0A@U?$GenericStringStream@U?$UTF16@_W@rapidjson@@@rapidjson@@V?$GenericDocument@U?$UTF16@_W@rapidjson@@V?$MemoryPoolAllocator@VCrtAllocator@rapidjson@@@2@VCrtAllocator@2@@2@@?$GenericReader@U?$UTF16@_W@rapidjson@@U12@VCrtAllocator@2@@rapidjson@@QEAA?AUParseResult@1@AEAU?$GenericStringStream@U?$UTF16@_W@rapidjson@@@1@AEAV?$GenericDocument@U?$UTF16@_W@rapidjson@@V?$MemoryPoolAllocator@VCrtAllocator@rapidjson@@@2@VCrtAllocator@2@@1@@Z 000000018000583c f i mdump.obj
 0001:00004c28       ??$ParseArray@$0A@U?$GenericStringStream@U?$UTF16@_W@rapidjson@@@rapidjson@@V?$GenericDocument@U?$UTF16@_W@rapidjson@@V?$MemoryPoolAllocator@VCrtAllocator@rapidjson@@@2@VCrtAllocator@2@@2@@?$GenericReader@U?$UTF16@_W@rapidjson@@U12@VCrtAllocator@2@@rapidjson@@AEAAXAEAU?$GenericStringStream@U?$UTF16@_W@rapidjson@@@1@AEAV?$GenericDocument@U?$UTF16@_W@rapidjson@@V?$MemoryPoolAllocator@VCrtAllocator@rapidjson@@@2@VCrtAllocator@2@@1@@Z 0000000180005c28 f i mdump.obj
 0001:00004d7c       ??$ParseFalse@$0A@U?$GenericStringStream@U?$UTF16@_W@rapidjson@@@rapidjson@@V?$GenericDocument@U?$UTF16@_W@rapidjson@@V?$MemoryPoolAllocator@VCrtAllocator@rapidjson@@@2@VCrtAllocator@2@@2@@?$GenericReader@U?$UTF16@_W@rapidjson@@U12@VCrtAllocator@2@@rapidjson@@AEAAXAEAU?$GenericStringStream@U?$UTF16@_W@rapidjson@@@1@AEAV?$GenericDocument@U?$UTF16@_W@rapidjson@@V?$MemoryPoolAllocator@VCrtAllocator@rapidjson@@@2@VCrtAllocator@2@@1@@Z 0000000180005d7c f i mdump.obj
 0001:00004e18       ??$ParseNull@$0A@U?$GenericStringStream@U?$UTF16@_W@rapidjson@@@rapidjson@@V?$GenericDocument@U?$UTF16@_W@rapidjson@@V?$MemoryPoolAllocator@VCrtAllocator@rapidjson@@@2@VCrtAllocator@2@@2@@?$GenericReader@U?$UTF16@_W@rapidjson@@U12@VCrtAllocator@2@@rapidjson@@AEAAXAEAU?$GenericStringStream@U?$UTF16@_W@rapidjson@@@1@AEAV?$GenericDocument@U?$UTF16@_W@rapidjson@@V?$MemoryPoolAllocator@VCrtAllocator@rapidjson@@@2@VCrtAllocator@2@@1@@Z 0000000180005e18 f i mdump.obj
 0001:00004ea0       ??$ParseNumber@$0A@U?$GenericStringStream@U?$UTF16@_W@rapidjson@@@rapidjson@@V?$GenericDocument@U?$UTF16@_W@rapidjson@@V?$MemoryPoolAllocator@VCrtAllocator@rapidjson@@@2@VCrtAllocator@2@@2@@?$GenericReader@U?$UTF16@_W@rapidjson@@U12@VCrtAllocator@2@@rapidjson@@AEAAXAEAU?$GenericStringStream@U?$UTF16@_W@rapidjson@@@1@AEAV?$GenericDocument@U?$UTF16@_W@rapidjson@@V?$MemoryPoolAllocator@VCrtAllocator@rapidjson@@@2@VCrtAllocator@2@@1@@Z 0000000180005ea0 f i mdump.obj
 0001:0000561c       ??$ParseObject@$0A@U?$GenericStringStream@U?$UTF16@_W@rapidjson@@@rapidjson@@V?$GenericDocument@U?$UTF16@_W@rapidjson@@V?$MemoryPoolAllocator@VCrtAllocator@rapidjson@@@2@VCrtAllocator@2@@2@@?$GenericReader@U?$UTF16@_W@rapidjson@@U12@VCrtAllocator@2@@rapidjson@@AEAAXAEAU?$GenericStringStream@U?$UTF16@_W@rapidjson@@@1@AEAV?$GenericDocument@U?$UTF16@_W@rapidjson@@V?$MemoryPoolAllocator@VCrtAllocator@rapidjson@@@2@VCrtAllocator@2@@1@@Z 000000018000661c f i mdump.obj
 0001:000057e0       ??$ParseStream@$0A@U?$UTF16@_W@rapidjson@@U?$GenericStringStream@U?$UTF16@_W@rapidjson@@@2@@?$GenericDocument@U?$UTF16@_W@rapidjson@@V?$MemoryPoolAllocator@VCrtAllocator@rapidjson@@@2@VCrtAllocator@2@@rapidjson@@QEAAAEAV01@AEAU?$GenericStringStream@U?$UTF16@_W@rapidjson@@@1@@Z 00000001800067e0 f i mdump.obj
 0001:000058b4       ??$ParseString@$0A@U?$GenericStringStream@U?$UTF16@_W@rapidjson@@@rapidjson@@V?$GenericDocument@U?$UTF16@_W@rapidjson@@V?$MemoryPoolAllocator@VCrtAllocator@rapidjson@@@2@VCrtAllocator@2@@2@@?$GenericReader@U?$UTF16@_W@rapidjson@@U12@VCrtAllocator@2@@rapidjson@@AEAAXAEAU?$GenericStringStream@U?$UTF16@_W@rapidjson@@@1@AEAV?$GenericDocument@U?$UTF16@_W@rapidjson@@V?$MemoryPoolAllocator@VCrtAllocator@rapidjson@@@2@VCrtAllocator@2@@1@_N@Z 00000001800068b4 f i mdump.obj
 0001:00005c08       ??$ParseTrue@$0A@U?$GenericStringStream@U?$UTF16@_W@rapidjson@@@rapidjson@@V?$GenericDocument@U?$UTF16@_W@rapidjson@@V?$MemoryPoolAllocator@VCrtAllocator@rapidjson@@@2@VCrtAllocator@2@@2@@?$GenericReader@U?$UTF16@_W@rapidjson@@U12@VCrtAllocator@2@@rapidjson@@AEAAXAEAU?$GenericStringStream@U?$UTF16@_W@rapidjson@@@1@AEAV?$GenericDocument@U?$UTF16@_W@rapidjson@@V?$MemoryPoolAllocator@VCrtAllocator@rapidjson@@@2@VCrtAllocator@2@@1@@Z 0000000180006c08 f i mdump.obj
 0001:00005c98       ??$ParseValue@$0A@U?$GenericStringStream@U?$UTF16@_W@rapidjson@@@rapidjson@@V?$GenericDocument@U?$UTF16@_W@rapidjson@@V?$MemoryPoolAllocator@VCrtAllocator@rapidjson@@@2@VCrtAllocator@2@@2@@?$GenericReader@U?$UTF16@_W@rapidjson@@U12@VCrtAllocator@2@@rapidjson@@AEAAXAEAU?$GenericStringStream@U?$UTF16@_W@rapidjson@@@1@AEAV?$GenericDocument@U?$UTF16@_W@rapidjson@@V?$MemoryPoolAllocator@VCrtAllocator@rapidjson@@@2@VCrtAllocator@2@@1@@Z 0000000180006c98 f i mdump.obj
 0001:00005ce4       ??$SkipWhitespace@U?$GenericStringStream@U?$UTF16@_W@rapidjson@@@rapidjson@@@rapidjson@@YAXAEAU?$GenericStringStream@U?$UTF16@_W@rapidjson@@@0@@Z 0000000180006ce4 f i mdump.obj
 0001:00005d24       ??$StringEqual@V?$MemoryPoolAllocator@VCrtAllocator@rapidjson@@@rapidjson@@@?$GenericValue@U?$UTF16@_W@rapidjson@@V?$MemoryPoolAllocator@VCrtAllocator@rapidjson@@@2@@rapidjson@@AEBA_NAEBV01@@Z 0000000180006d24 f i mdump.obj
 0001:00005db0       ??$_Emplace_reallocate@AEBVCrashAttribute@@@?$vector@VCrashAttribute@@V?$allocator@VCrashAttribute@@@std@@@std@@QEAAPEAVCrashAttribute@@QEAV2@AEBV2@@Z 0000000180006db0 f i mdump.obj
 0001:00005f64       ??$_Emplace_reallocate@V?$CStringT@_WV?$StrTraitATL@_WV?$ChTraitsCRT@_W@ATL@@@ATL@@@ATL@@@?$vector@V?$CStringT@_WV?$StrTraitATL@_WV?$ChTraitsCRT@_W@ATL@@@ATL@@@ATL@@V?$allocator@V?$CStringT@_WV?$StrTraitATL@_WV?$ChTraitsCRT@_W@ATL@@@ATL@@@ATL@@@std@@@std@@QEAAPEAV?$CStringT@_WV?$StrTraitATL@_WV?$ChTraitsCRT@_W@ATL@@@ATL@@@ATL@@QEAV23@$$QEAV23@@Z 0000000180006f64 f i mdump.obj
 0001:0000615c       ??$_Uninitialized_copy@PEAVCrashAttribute@@V?$allocator@VCrashAttribute@@@std@@@std@@YAPEAVCrashAttribute@@QEAV1@0PEAV1@AEAV?$allocator@VCrashAttribute@@@0@@Z 000000018000715c f i mdump.obj
 0001:000061ec       ??$_Uninitialized_move@PEAVCrashAttribute@@V?$allocator@VCrashAttribute@@@std@@@std@@YAPEAVCrashAttribute@@QEAV1@0PEAV1@AEAV?$allocator@VCrashAttribute@@@0@@Z 00000001800071ec f i mdump.obj
 0001:0000627c       ??$emplace_back@AEBVCrashAttribute@@@?$vector@VCrashAttribute@@V?$allocator@VCrashAttribute@@@std@@@std@@QEAA?A_TAEBVCrashAttribute@@@Z 000000018000727c f i mdump.obj
 0001:000062f4       ??0?$CStringT@_WV?$StrTraitATL@_WV?$ChTraitsCRT@_W@ATL@@@ATL@@@ATL@@QEAA@PEB_WPEAUIAtlStringMgr@1@@Z 00000001800072f4 f i mdump.obj
 0001:00006384       ??0?$GenericDocument@U?$UTF16@_W@rapidjson@@V?$MemoryPoolAllocator@VCrtAllocator@rapidjson@@@2@VCrtAllocator@2@@rapidjson@@QEAA@PEAV?$MemoryPoolAllocator@VCrtAllocator@rapidjson@@@1@_KPEAVCrtAllocator@1@@Z 0000000180007384 f i mdump.obj
 0001:0000640c       ??0?$MemoryPoolAllocator@VCrtAllocator@rapidjson@@@rapidjson@@QEAA@_KPEAVCrtAllocator@1@@Z 000000018000740c f i mdump.obj
 0001:000064ac       ??0CrashAttribute@@QEAA@PEB_W0@Z 00000001800074ac f i mdump.obj
 0001:00006574       ??0MiniDumper@@QEAA@K@Z    0000000180007574 f   mdump.obj
 0001:00006890       ??0TotalUptimeAndCrashCalculator@@QEAA@PEB_W00@Z 0000000180007890 f i mdump.obj
 0001:00006aac       ??1?$CHeapPtr@_WVCLocalAllocator@ATL@@@ATL@@QEAA@XZ 0000000180007aac f i mdump.obj
 0001:00006ac8       ??1?$GenericDocument@U?$UTF16@_W@rapidjson@@V?$MemoryPoolAllocator@VCrtAllocator@rapidjson@@@2@VCrtAllocator@2@@rapidjson@@QEAA@XZ 0000000180007ac8 f i mdump.obj
 0001:00006b1c       ??1?$GenericReader@U?$UTF16@_W@rapidjson@@U12@VCrtAllocator@2@@rapidjson@@QEAA@XZ 0000000180007b1c f i mdump.obj
 0001:00006b44       ??1?$GenericValue@U?$UTF16@_W@rapidjson@@V?$MemoryPoolAllocator@VCrtAllocator@rapidjson@@@2@@rapidjson@@QEAA@XZ 0000000180007b44 f i mdump.obj
 0001:00006b48       ??1?$MemoryPoolAllocator@VCrtAllocator@rapidjson@@@rapidjson@@QEAA@XZ 0000000180007b48 f i mdump.obj
 0001:00006bb8       ??1?$Stack@VCrtAllocator@rapidjson@@@internal@rapidjson@@QEAA@XZ 0000000180007bb8 f i mdump.obj
 0001:00006be0       ??1?$StreamLocalCopy@U?$GenericStringStream@U?$UTF16@_W@rapidjson@@@rapidjson@@$00@internal@rapidjson@@QEAA@XZ 0000000180007be0 f i mdump.obj
 0001:00006bec       ??1?$_Uninitialized_backout_al@V?$allocator@V?$CStringT@_WV?$StrTraitATL@_WV?$ChTraitsCRT@_W@ATL@@@ATL@@@ATL@@@std@@@std@@QEAA@XZ 0000000180007bec f i mdump.obj
 0001:00006c30       ??1?$_Uninitialized_backout_al@V?$allocator@VCrashAttribute@@@std@@@std@@QEAA@XZ 0000000180007c30 f i mdump.obj
 0001:00006c94       ??1?$vector@V?$CStringT@_WV?$StrTraitATL@_WV?$ChTraitsCRT@_W@ATL@@@ATL@@@ATL@@V?$allocator@V?$CStringT@_WV?$StrTraitATL@_WV?$ChTraitsCRT@_W@ATL@@@ATL@@@ATL@@@std@@@std@@QEAA@XZ 0000000180007c94 f i mdump.obj
 0001:00006c9c       ??1?$vector@VCrashAttribute@@V?$allocator@VCrashAttribute@@@std@@@std@@QEAA@XZ 0000000180007c9c f i mdump.obj
 0001:00006ca4       ??1ClearStackOnExit@?$GenericDocument@U?$UTF16@_W@rapidjson@@V?$MemoryPoolAllocator@VCrtAllocator@rapidjson@@@2@VCrtAllocator@2@@rapidjson@@QEAA@XZ 0000000180007ca4 f i mdump.obj
 0001:00006cb8       ??1ClearStackOnExit@?$GenericReader@U?$UTF16@_W@rapidjson@@U12@VCrtAllocator@2@@rapidjson@@QEAA@XZ 0000000180007cb8 f i mdump.obj
 0001:00006cc4       ??1CrashAttribute@@QEAA@XZ 0000000180007cc4 f i mdump.obj
 0001:00006d10       ??1DumpData@@QEAA@XZ       0000000180007d10 f i mdump.obj
 0001:00006d38       ??1MiniDumper@@UEAA@XZ     0000000180007d38 f   mdump.obj
 0001:00006ed8       ??1ResourceSwitch@@QEAA@XZ 0000000180007ed8 f i mdump.obj
 0001:00006ef0       ??1TotalUptimeAndCrashCalculator@@QEAA@XZ 0000000180007ef0 f i mdump.obj
 0001:00006fe4       ??8?$GenericValue@U?$UTF16@_W@rapidjson@@V?$MemoryPoolAllocator@VCrtAllocator@rapidjson@@@2@@rapidjson@@QEBA_NPEB_W@Z 0000000180007fe4 f i mdump.obj
 0001:00007064       ??B?$CSimpleStringT@_W$0A@@ATL@@QEBAPEB_WXZ 0000000180008064 f i mdump.obj
 0001:00007068       ??HATL@@YA?AV?$CStringT@_WV?$StrTraitATL@_WV?$ChTraitsCRT@_W@ATL@@@ATL@@@0@AEBV10@PEB_W@Z 0000000180008068 f i mdump.obj
 0001:00007120       ??HATL@@YA?AV?$CStringT@_WV?$StrTraitATL@_WV?$ChTraitsCRT@_W@ATL@@@ATL@@@0@AEBV10@_W@Z 0000000180008120 f i mdump.obj
 0001:000071c4       ??HATL@@YA?AV?$CStringT@_WV?$StrTraitATL@_WV?$ChTraitsCRT@_W@ATL@@@ATL@@@0@PEB_WAEBV10@@Z 00000001800081c4 f i mdump.obj
 0001:0000727c       ??HATL@@YA?AV?$CStringT@_WV?$StrTraitATL@_WV?$ChTraitsCRT@_W@ATL@@@ATL@@@0@_WAEBV10@@Z 000000018000827c f i mdump.obj
 0001:00007320       ??_EMiniDumper@@UEAAPEAXI@Z 0000000180008320 f i mdump.obj
 0001:00007320       ??_GMiniDumper@@UEAAPEAXI@Z 0000000180008320 f i mdump.obj
 0001:00007354       ?AddChunk@?$MemoryPoolAllocator@VCrtAllocator@rapidjson@@@rapidjson@@AEAA_N_K@Z 0000000180008354 f i mdump.obj
 0001:000073c0       ?AllocGuardMemory@MiniDumper@@QEAA_NXZ 00000001800083c0 f   mdump.obj
 0001:00007400       ?AppendFormat@?$CStringT@_WV?$StrTraitATL@_WV?$ChTraitsCRT@_W@ATL@@@ATL@@@ATL@@QEAAXPEB_WZZ 0000000180008400 f i mdump.obj
 0001:00007424       ?AppendFormatV@?$CStringT@_WV?$StrTraitATL@_WV?$ChTraitsCRT@_W@ATL@@@ATL@@@ATL@@QEAAXPEB_WPEAD@Z 0000000180008424 f i mdump.obj
 0001:00007594       ?AtlMessageBox@WTL@@YAHPEAUHWND__@@V_U_STRINGorID@ATL@@1I@Z 0000000180008594 f i mdump.obj
 0001:0000776c       ?CreateReportThreaded@MiniDumper@@SAIPEAX@Z 000000018000876c f   mdump.obj
 0001:00007c74       ?Delete@?$CStringT@_WV?$StrTraitATL@_WV?$ChTraitsCRT@_W@ATL@@@ATL@@@ATL@@QEAAHHH@Z 0000000180008c74 f i mdump.obj
 0001:00007d80       ?ExceptionHandler@MiniDumper@@SAJPEAU_EXCEPTION_POINTERS@@K@Z 0000000180008d80 f   mdump.obj
 0001:00008154       ?FindMember@?$GenericValue@U?$UTF16@_W@rapidjson@@V?$MemoryPoolAllocator@VCrtAllocator@rapidjson@@@2@@rapidjson@@QEAA?AV?$GenericMemberIterator@$0A@U?$UTF16@_W@rapidjson@@V?$MemoryPoolAllocator@VCrtAllocator@rapidjson@@@2@@2@PEB_W@Z 0000000180009154 f i mdump.obj
 0001:000081d4       ?Format@?$CStringT@_WV?$StrTraitATL@_WV?$ChTraitsCRT@_W@ATL@@@ATL@@@ATL@@QEAAXPEB_WZZ 00000001800091d4 f i mdump.obj
 0001:000081f8       ?FormatMessageV@?$CStringT@_WV?$StrTraitATL@_WV?$ChTraitsCRT@_W@ATL@@@ATL@@@ATL@@QEAAXPEB_WPEAPEAD@Z 00000001800091f8 f i mdump.obj
 0001:00008398       ?FormatMessageW@?$CStringT@_WV?$StrTraitATL@_WV?$ChTraitsCRT@_W@ATL@@@ATL@@@ATL@@QEAAXIZZ 0000000180009398 f i mdump.obj
 0001:00008488       ?FormatV@?$CStringT@_WV?$StrTraitATL@_WV?$ChTraitsCRT@_W@ATL@@@ATL@@@ATL@@QEAAXPEB_WPEAD@Z 0000000180009488 f i mdump.obj
 0001:000085d4       ?FreeGuardMemory@MiniDumper@@QEAA_NXZ 00000001800095d4 f   mdump.obj
 0001:00008604       ?GetFullDumpEnabledStatus@MiniDumper@@SA_NXZ 0000000180009604 f   mdump.obj
 0001:00008a1c       ?GetMFA@MiniDumper@@SA_NPEAXPEA_WH@Z 0000000180009a1c f   mdump.obj
 0001:00008b68       ?GetUniqueTempFile@@YAXPEA_WHPEB_W@Z 0000000180009b68 f   mdump.obj
 0001:00008d2c       ?Int64@?$GenericDocument@U?$UTF16@_W@rapidjson@@V?$MemoryPoolAllocator@VCrtAllocator@rapidjson@@@2@VCrtAllocator@2@@rapidjson@@QEAA_N_J@Z 0000000180009d2c f i mdump.obj
 0001:00008dd4       ?IsError@ParseResult@rapidjson@@QEBA_NXZ 0000000180009dd4 f i mdump.obj
 0001:00008ddc       ?LaunchHangDetection@MiniDumper@@QEAAX_N@Z 0000000180009ddc f   mdump.obj
 0001:00009030       ?MakeLower@?$CStringT@_WV?$StrTraitATL@_WV?$ChTraitsCRT@_W@ATL@@@ATL@@@ATL@@QEAAAEAV12@XZ 000000018000a030 f i mdump.obj
 0001:000090a8       ?Malloc@?$MemoryPoolAllocator@VCrtAllocator@rapidjson@@@rapidjson@@QEAAPEAX_K@Z 000000018000a0a8 f i mdump.obj
 0001:00009114       ?ResolveMiniDumpType@MiniDumper@@SA?AW4_BS_MINIDUMP_TYPE@MiniDmpSender@@XZ 000000018000a114 f   mdump.obj
 0001:00009160       ?SendReportThreaded@MiniDumper@@SAIPEAX@Z 000000018000a160 f   mdump.obj
 0001:00009858       ?SetArrayRaw@?$GenericValue@U?$UTF16@_W@rapidjson@@V?$MemoryPoolAllocator@VCrtAllocator@rapidjson@@@2@@rapidjson@@AEAAXPEAV12@IAEAV?$MemoryPoolAllocator@VCrtAllocator@rapidjson@@@2@@Z 000000018000a858 f i mdump.obj
 0001:000098e0       ?SetObjectRaw@?$GenericValue@U?$UTF16@_W@rapidjson@@V?$MemoryPoolAllocator@VCrtAllocator@rapidjson@@@2@@rapidjson@@AEAAXPEAV?$GenericMember@U?$UTF16@_W@rapidjson@@V?$MemoryPoolAllocator@VCrtAllocator@rapidjson@@@2@@2@IAEAV?$MemoryPoolAllocator@VCrtAllocator@rapidjson@@@2@@Z 000000018000a8e0 f i mdump.obj
 0001:00009968       ?SetStringRaw@?$GenericValue@U?$UTF16@_W@rapidjson@@V?$MemoryPoolAllocator@VCrtAllocator@rapidjson@@@2@@rapidjson@@AEAAXU?$GenericStringRef@_W@2@AEAV?$MemoryPoolAllocator@VCrtAllocator@rapidjson@@@2@@Z 000000018000a968 f i mdump.obj
 0001:000099fc       ?ShrinkToFit@?$Stack@VCrtAllocator@rapidjson@@@internal@rapidjson@@QEAAXXZ 000000018000a9fc f i mdump.obj
 0001:00009a60       ?TerminateHangDetection@MiniDumper@@QEAAXXZ 000000018000aa60 f   mdump.obj
 0001:00009ab8       ?TopLevelUnhandledExceptionFilter@MiniDumper@@SAJPEAU_EXCEPTION_POINTERS@@@Z 000000018000aab8 f   mdump.obj
 0001:00009b24       ?TrimLeft@?$CStringT@_WV?$StrTraitATL@_WV?$ChTraitsCRT@_W@ATL@@@ATL@@@ATL@@QEAAAEAV12@XZ 000000018000ab24 f i mdump.obj
 0001:00009c30       ?TrimRight@?$CStringT@_WV?$StrTraitATL@_WV?$ChTraitsCRT@_W@ATL@@@ATL@@@ATL@@QEAAAEAV12@XZ 000000018000ac30 f i mdump.obj
 0001:00009ce8       ?Uint64@?$GenericDocument@U?$UTF16@_W@rapidjson@@V?$MemoryPoolAllocator@VCrtAllocator@rapidjson@@@2@VCrtAllocator@2@@rapidjson@@QEAA_N_K@Z 000000018000ace8 f i mdump.obj
 0001:00009d78       ?_Change_array@?$vector@V?$CStringT@_WV?$StrTraitATL@_WV?$ChTraitsCRT@_W@ATL@@@ATL@@@ATL@@V?$allocator@V?$CStringT@_WV?$StrTraitATL@_WV?$ChTraitsCRT@_W@ATL@@@ATL@@@ATL@@@std@@@std@@AEAAXQEAV?$CStringT@_WV?$StrTraitATL@_WV?$ChTraitsCRT@_W@ATL@@@ATL@@@ATL@@_K1@Z 000000018000ad78 f i mdump.obj
 0001:00009e3c       ?_Change_array@?$vector@VCrashAttribute@@V?$allocator@VCrashAttribute@@@std@@@std@@AEAAXQEAVCrashAttribute@@_K1@Z 000000018000ae3c f i mdump.obj
 0001:00009f28       ?_Destroy@?$vector@V?$CStringT@_WV?$StrTraitATL@_WV?$ChTraitsCRT@_W@ATL@@@ATL@@@ATL@@V?$allocator@V?$CStringT@_WV?$StrTraitATL@_WV?$ChTraitsCRT@_W@ATL@@@ATL@@@ATL@@@std@@@std@@AEAAXPEAV?$CStringT@_WV?$StrTraitATL@_WV?$ChTraitsCRT@_W@ATL@@@ATL@@@ATL@@0@Z 000000018000af28 f i mdump.obj
 0001:00009f70       ?_Destroy@?$vector@VCrashAttribute@@V?$allocator@VCrashAttribute@@@std@@@std@@AEAAXPEAVCrashAttribute@@0@Z 000000018000af70 f i mdump.obj
 0001:00009fd4       ?_Tidy@?$vector@V?$CStringT@_WV?$StrTraitATL@_WV?$ChTraitsCRT@_W@ATL@@@ATL@@@ATL@@V?$allocator@V?$CStringT@_WV?$StrTraitATL@_WV?$ChTraitsCRT@_W@ATL@@@ATL@@@ATL@@@std@@@std@@AEAAXXZ 000000018000afd4 f i mdump.obj
 0001:0000a078       ?_Tidy@?$vector@VCrashAttribute@@V?$allocator@VCrashAttribute@@@std@@@std@@AEAAXXZ 000000018000b078 f i mdump.obj
 0001:0000a140       ?_Xlength@?$vector@V?$CStringT@_WV?$StrTraitATL@_WV?$ChTraitsCRT@_W@ATL@@@ATL@@@ATL@@V?$allocator@V?$CStringT@_WV?$StrTraitATL@_WV?$ChTraitsCRT@_W@ATL@@@ATL@@@ATL@@@std@@@std@@CAXXZ 000000018000b140 f i mdump.obj
 0001:0000a154       ?_Xlength@?$vector@VCrashAttribute@@V?$allocator@VCrashAttribute@@@std@@@std@@CAXXZ 000000018000b154 f i mdump.obj
 0001:0000a168       ?attributesToJson@MiniDumper@@QEAA?AV?$CStringT@_WV?$StrTraitATL@_WV?$ChTraitsCRT@_W@ATL@@@ATL@@@ATL@@XZ 000000018000b168 f   mdump.obj
 0001:0000a3bc       ?bugsplatMessage@MiniDumper@@SAIPEB_WII@Z 000000018000b3bc f   mdump.obj
 0001:0000a400       ?capture@TotalUptimeAndCrashCalculator@@QEAAX_N@Z 000000018000b400 f i mdump.obj
 0001:0000a640       ?createAsanReport@MiniDumper@@QEAAXPEBD@Z 000000018000b640 f   mdump.obj
 0001:0000a778       ?createReport@MiniDumper@@QEAAXK@Z 000000018000b778 f   mdump.obj
 0001:0000a7a0       ?createReport@MiniDumper@@QEAAXPEAU_EXCEPTION_POINTERS@@@Z 000000018000b7a0 f   mdump.obj
 0001:0000a7c8       ?createReport@MiniDumper@@QEAAXPEB_W@Z 000000018000b7c8 f   mdump.obj
 0001:0000a8dc       ?deallocate@?$allocator@V?$CStringT@_WV?$StrTraitATL@_WV?$ChTraitsCRT@_W@ATL@@@ATL@@@ATL@@@std@@QEAAXQEAV?$CStringT@_WV?$StrTraitATL@_WV?$ChTraitsCRT@_W@ATL@@@ATL@@@ATL@@_K@Z 000000018000b8dc f i mdump.obj
 0001:0000a920       ?deallocate@?$allocator@VCrashAttribute@@@std@@QEAAXQEAVCrashAttribute@@_K@Z 000000018000b920 f i mdump.obj
 0001:0000a964       ?debugMode@@YA_NXZ         000000018000b964 f   mdump.obj
 0001:0000aa28       ?disableNetworkAccess@MiniDumper@@QEAA_N_N@Z 000000018000ba28 f   mdump.obj
 0001:0000aa34       ?enableExceptionFilter@MiniDumper@@QEAA_N_N@Z 000000018000ba34 f   mdump.obj
 0001:0000aa4c       ?erase@?$vector@VCrashAttribute@@V?$allocator@VCrashAttribute@@@std@@@std@@QEAA?AV?$_Vector_iterator@V?$_Vector_val@U?$_Simple_types@VCrashAttribute@@@std@@@std@@@2@V?$_Vector_const_iterator@V?$_Vector_val@U?$_Simple_types@VCrashAttribute@@@std@@@std@@@2@@Z 000000018000ba4c f i mdump.obj
 0001:0000ab08       ?getLogFilePath@MiniDumper@@QEAAPEB_WXZ 000000018000bb08 f   mdump.obj
 0001:0000ab10       ?getMiniDumpType@MiniDumper@@QEBA?AW4_BS_MINIDUMP_TYPE@MiniDmpSender@@XZ 000000018000bb10 f   mdump.obj
 0001:0000ab18       ?getRegistryBase@@YAXAEAV?$CStringT@_WV?$StrTraitATL@_WV?$ChTraitsCRT@_W@ATL@@@ATL@@@ATL@@@Z 000000018000bb18 f   mdump.obj
 0001:0000ab44       ?getRegistryRoot@@YAXAEAV?$CStringT@_WV?$StrTraitATL@_WV?$ChTraitsCRT@_W@ATL@@@ATL@@@ATL@@PEB_W11@Z 000000018000bb44 f   mdump.obj
 0001:0000abc0       ?initExceptionHandler@MiniDumper@@QEAAXPEB_W000K@Z 000000018000bbc0 f   mdump.obj
 0001:0000aef0       ?invalid_parameter_handler@@YAXPEB_W00I_K@Z 000000018000bef0 f i mdump.obj
 0001:0000aefc       ?isExceptionFilterEnabled@MiniDumper@@QEBA_NXZ 000000018000befc f   mdump.obj
 0001:0000af04       ?isNetworkAccessDisabled@MiniDumper@@QEBA_NXZ 000000018000bf04 f   mdump.obj
 0001:0000af0c       ?logOutput@@YAXIPEB_W_N@Z  000000018000bf0c f   mdump.obj
 0001:0000b1f0       ?removeAdditionalFile@MiniDumper@@QEAA_NPEB_W@Z 000000018000c1f0 f   mdump.obj
 0001:0000b26c       ?removeAttribute@MiniDumper@@QEAA_NPEB_W@Z 000000018000c26c f   mdump.obj
 0001:0000b2d8       ?resetDescriptionString@MiniDumper@@QEAAXPEB_W@Z 000000018000c2d8 f   mdump.obj
 0001:0000b310       ?resetVersionString@MiniDumper@@QEAAXPEB_W@Z 000000018000c310 f   mdump.obj
 0001:0000b340       ?sendAdditionalFile@MiniDumper@@QEAAXPEB_W@Z 000000018000c340 f   mdump.obj
 0001:0000b3bc       ?setAttribute@MiniDumper@@QEAA_NPEB_W0@Z 000000018000c3bc f   mdump.obj
 0001:0000b440       ?setCallback@MiniDumper@@QEAAXP6A_NIPEAX0@Z@Z 000000018000c440 f   mdump.obj
 0001:0000b448       ?setDefaultUserDescription@MiniDumper@@QEAAXPEB_W@Z 000000018000c448 f   mdump.obj
 0001:0000b484       ?setDefaultUserEmail@MiniDumper@@QEAAXPEB_W@Z 000000018000c484 f   mdump.obj
 0001:0000b4bc       ?setDefaultUserName@MiniDumper@@QEAAXPEB_W@Z 000000018000c4bc f   mdump.obj
 0001:0000b4f4       ?setFlags@MiniDumper@@QEAA_NK@Z 000000018000c4f4 f   mdump.obj
 0001:0000b54c       ?setGuardByteBufferSize@MiniDumper@@QEAAHH@Z 000000018000c54c f   mdump.obj
 0001:0000b58c       ?setHangDetectionTimeout@MiniDumper@@QEAAHH@Z 000000018000c58c f   mdump.obj
 0001:0000b5a4       ?setLogFilePath@MiniDumper@@QEAAXPEB_W@Z 000000018000c5a4 f   mdump.obj
 0001:0000b5dc       ?setMiniDumpType@MiniDumper@@QEAAXW4_BS_MINIDUMP_TYPE@MiniDmpSender@@@Z 000000018000c5dc f   mdump.obj
 0001:0000b5e4       ?setNotes@MiniDumper@@QEAAXPEB_W@Z 000000018000c5e4 f   mdump.obj
 0001:0000b614       ?setResourceDllPath@MiniDumper@@QEAAXPEB_W@Z 000000018000c614 f   mdump.obj
 0001:0000b64c       ?setUserZipPath@MiniDumper@@QEAAXPEB_W@Z 000000018000c64c f   mdump.obj
 0001:0000b684       ?signal_handler@@YAXH@Z    000000018000c684 f i mdump.obj
 0001:0000b690       ?terminator@@YAXXZ         000000018000c690 f i mdump.obj
 0001:0000b69c       _fwprintf_p                000000018000c69c f i mdump.obj
 0001:0000b6e0       wprintf                    000000018000c6e0 f i mdump.obj
 0001:0000b734       ??0MiniDmpSender@@QEAA@PEB_W000K@Z 000000018000c734 f   BugSplatNative.obj
 0001:0000b7fc       ??1MiniDmpSender@@UEAA@XZ  000000018000c7fc f   BugSplatNative.obj
 0001:0000b830       ?createAsanReport@MiniDmpSender@@QEAAXPEBD@Z 000000018000c830 f   BugSplatNative.obj
 0001:0000b83c       ?createReport@MiniDmpSender@@QEAAXPEAU_EXCEPTION_POINTERS@@@Z 000000018000c83c f   BugSplatNative.obj
 0001:0000b848       ?createReport@MiniDmpSender@@QEAAXPEB_W@Z 000000018000c848 f   BugSplatNative.obj
 0001:0000b854       ?disableNetworkAccess@MiniDmpSender@@QEAA_N_N@Z 000000018000c854 f   BugSplatNative.obj
 0001:0000b860       ?enableExceptionFilter@MiniDmpSender@@QEAA_N_N@Z 000000018000c860 f   BugSplatNative.obj
 0001:0000b86c       ?getFlags@MiniDmpSender@@QEBAKXZ 000000018000c86c f   BugSplatNative.obj
 0001:0000b878       ?getMiniDumpType@MiniDmpSender@@QEBA?AW4_BS_MINIDUMP_TYPE@1@XZ 000000018000c878 f   BugSplatNative.obj
 0001:0000b884       ?getMinidumpPath@MiniDmpSender@@QEAAXPEA_W_K@Z 000000018000c884 f   BugSplatNative.obj
 0001:0000b8a4       ?imp@MiniDmpSender@@QEAAPEAXXZ 000000018000c8a4 f   BugSplatNative.obj
 0001:0000b8ac       ?isExceptionFilterEnabled@MiniDmpSender@@QEBA_NXZ 000000018000c8ac f   BugSplatNative.obj
 0001:0000b8b8       ?isNetworkAccessDisabled@MiniDmpSender@@QEBA_NXZ 000000018000c8b8 f   BugSplatNative.obj
 0001:0000b8c4       ?removeAdditionalFile@MiniDmpSender@@QEAA_NPEB_W@Z 000000018000c8c4 f   BugSplatNative.obj
 0001:0000b8d0       ?resetAppIdentifier@MiniDmpSender@@QEAAXPEB_W@Z 000000018000c8d0 f   BugSplatNative.obj
 0001:0000b8dc       ?resetVersionString@MiniDmpSender@@QEAAXPEB_W@Z 000000018000c8dc f   BugSplatNative.obj
 0001:0000b8e8       ?sendAdditionalFile@MiniDmpSender@@QEAAXPEB_W@Z 000000018000c8e8 f   BugSplatNative.obj
 0001:0000b8f4       ?setAttribute@MiniDmpSender@@QEAA_NPEB_W0@Z 000000018000c8f4 f   BugSplatNative.obj
 0001:0000b908       ?setCallback@MiniDmpSender@@QEAAXP6A_NIPEAX0@Z@Z 000000018000c908 f   BugSplatNative.obj
 0001:0000b914       ?setDefaultUserDescription@MiniDmpSender@@QEAAXPEB_W@Z 000000018000c914 f   BugSplatNative.obj
 0001:0000b920       ?setDefaultUserEmail@MiniDmpSender@@QEAAXPEB_W@Z 000000018000c920 f   BugSplatNative.obj
 0001:0000b92c       ?setDefaultUserName@MiniDmpSender@@QEAAXPEB_W@Z 000000018000c92c f   BugSplatNative.obj
 0001:0000b938       ?setFlags@MiniDmpSender@@QEAA_NK@Z 000000018000c938 f   BugSplatNative.obj
 0001:0000b944       ?setGuardByteBufferSize@MiniDmpSender@@QEAAHH@Z 000000018000c944 f   BugSplatNative.obj
 0001:0000b950       ?setHangDetectionTimeout@MiniDmpSender@@QEAAHH@Z 000000018000c950 f   BugSplatNative.obj
 0001:0000b95c       ?setLogFilePath@MiniDmpSender@@QEAAXPEB_W@Z 000000018000c95c f   BugSplatNative.obj
 0001:0000b968       ?setMiniDumpType@MiniDmpSender@@QEAAXW4_BS_MINIDUMP_TYPE@1@@Z 000000018000c968 f   BugSplatNative.obj
 0001:0000b974       ?setNotes@MiniDmpSender@@QEAAXPEB_W@Z 000000018000c974 f   BugSplatNative.obj
 0001:0000b980       ?setResourceDllPath@MiniDmpSender@@QEAAXPEB_W@Z 000000018000c980 f   BugSplatNative.obj
 0001:0000b98c       ?setUserZipPath@MiniDmpSender@@QEAAXPEB_W@Z 000000018000c98c f   BugSplatNative.obj
 0001:0000b998       ?unhandledExceptionHandler@MiniDmpSender@@QEAAJPEAU_EXCEPTION_POINTERS@@@Z 000000018000c998 f   BugSplatNative.obj
 0001:0000b9a0       ?Lock@CAtlModule@ATL@@UEAAJXZ 000000018000c9a0 f i BugSplatNativeApp.obj
 0001:0000b9b0       ?Unlock@CAtlModule@ATL@@UEAAJXZ 000000018000c9b0 f i BugSplatNativeApp.obj
 0001:0000b9bc       ?GetLockCount@CAtlModule@ATL@@UEAAJXZ 000000018000c9bc f i BugSplatNativeApp.obj
 0001:0000b9c0       ?GetGITPtr@CAtlModule@ATL@@UEAAJPEAPEAUIGlobalInterfaceTable@@@Z 000000018000c9c0 f i BugSplatNativeApp.obj
 0001:0000ba30       ?AddCommonRGSReplacements@?$CAtlModuleT@VCComModule@ATL@@@ATL@@UEAAJPEAUIRegistrarBase@@@Z 000000018000ca30 f i BugSplatNativeApp.obj
 0001:0000ba48       ?UpdateRegistryFromResourceD@CComModule@ATL@@UEAAJPEB_WHPEAU_ATL_REGMAP_ENTRY@2@@Z 000000018000ca48 f i BugSplatNativeApp.obj
 0001:0000ba50       ?UpdateRegistryFromResourceD@CComModule@ATL@@UEAAJIHPEAU_ATL_REGMAP_ENTRY@2@@Z 000000018000ca50 f i BugSplatNativeApp.obj
 0001:0000ba58       ?UpdateRegistryFromResource@CComModule@ATL@@UEAAJPEB_WHPEAU_ATL_REGMAP_ENTRY@2@@Z 000000018000ca58 f i BugSplatNativeApp.obj
 0001:0000ba60       ?UpdateRegistryFromResource@CComModule@ATL@@UEAAJIHPEAU_ATL_REGMAP_ENTRY@2@@Z 000000018000ca60 f i BugSplatNativeApp.obj
 0001:0000ba68       ??_GCComModule@ATL@@UEAAPEAXI@Z 000000018000ca68 f i BugSplatNativeApp.obj
 0001:0000ba68       ??_ECComModule@ATL@@UEAAPEAXI@Z 000000018000ca68 f i BugSplatNativeApp.obj
 0001:0000baa8       ??_ECAppModule@WTL@@UEAAPEAXI@Z 000000018000caa8 f i BugSplatNativeApp.obj
 0001:0000baa8       ??_GCAppModule@WTL@@UEAAPEAXI@Z 000000018000caa8 f i BugSplatNativeApp.obj
 0001:0000bae8       ?QueryInterface@CRegObject@ATL@@UEAAJAEBU_GUID@@PEAPEAX@Z 000000018000cae8 f i BugSplatNativeApp.obj
 0001:0000baf0       ?AddRef@CRegObject@ATL@@UEAAKXZ 000000018000caf0 f i BugSplatNativeApp.obj
 0001:0000baf8       ?Release@CRegObject@ATL@@UEAAKXZ 000000018000caf8 f i BugSplatNativeApp.obj
 0001:0000bafc       ?AddReplacement@CRegObject@ATL@@UEAAJPEB_W0@Z 000000018000cafc f i BugSplatNativeApp.obj
 0001:0000bb78       ?ClearReplacements@CRegObject@ATL@@UEAAJXZ 000000018000cb78 f i BugSplatNativeApp.obj
 0001:0000bbb4       ??_ECRegObject@ATL@@UEAAPEAXI@Z 000000018000cbb4 f i BugSplatNativeApp.obj
 0001:0000bbb4       ??_GCRegObject@ATL@@UEAAPEAXI@Z 000000018000cbb4 f i BugSplatNativeApp.obj
 0001:0000bbe8       ??0CAtlModule@ATL@@QEAA@XZ 000000018000cbe8 f i BugSplatNativeApp.obj
 0001:0000bc68       ??1?$CAtlSafeAllocBufferManager@VCCRTAllocator@ATL@@@_ATL_SAFE_ALLOCA_IMPL@ATL@@QEAA@XZ 000000018000cc68 f i BugSplatNativeApp.obj
 0001:0000bc94       ??1?$CAutoVectorPtr@_W@ATL@@QEAA@XZ 000000018000cc94 f i BugSplatNativeApp.obj
 0001:0000bcb0       ??1?$CTempBuffer@E$0BAA@VCCRTAllocator@ATL@@@ATL@@QEAA@XZ 000000018000ccb0 f i BugSplatNativeApp.obj
 0001:0000bcc8       ??1?$CTempBuffer@_W$0BAA@VCCRTAllocator@ATL@@@ATL@@QEAA@XZ 000000018000ccc8 f i BugSplatNativeApp.obj
 0001:0000bce0       ??1?$CTempBuffer@_W$0EAA@VCCRTAllocator@ATL@@@ATL@@QEAA@XZ 000000018000cce0 f i BugSplatNativeApp.obj
 0001:0000bcf8       ??1CAtlModule@ATL@@UEAA@XZ 000000018000ccf8 f i BugSplatNativeApp.obj
 0001:0000bd00       ??1CParseBuffer@CRegParser@ATL@@QEAA@XZ 000000018000cd00 f i BugSplatNativeApp.obj
 0001:0000bd0c       ??1CRegKey@ATL@@QEAA@XZ    000000018000cd0c f i BugSplatNativeApp.obj
 0001:0000bd34       ??1CRegObject@ATL@@UEAA@XZ 000000018000cd34 f i BugSplatNativeApp.obj
 0001:0000bdbc       ?Add@?$CSimpleMap@PEA_WPEA_WVCExpansionVectorEqualHelper@ATL@@@ATL@@QEAAHAEBQEA_W0@Z 000000018000cdbc f i BugSplatNativeApp.obj
 0001:0000be5c       ?Add@CExpansionVector@ATL@@QEAAHPEB_W0@Z 000000018000ce5c f i BugSplatNativeApp.obj
 0001:0000bf7c       ?AddValue@CRegParser@ATL@@IEAAJAEAVCRegKey@2@PEB_WPEA_W@Z 000000018000cf7c f i BugSplatNativeApp.obj
 0001:0000c404       ?AllocateHeap@?$CTempBuffer@E$0BAA@VCCRTAllocator@ATL@@@ATL@@AEAAX_K@Z 000000018000d404 f i BugSplatNativeApp.obj
 0001:0000c430       ?AllocateHeap@?$CTempBuffer@_W$0BAA@VCCRTAllocator@ATL@@@ATL@@AEAAX_K@Z 000000018000d430 f i BugSplatNativeApp.obj
 0001:0000c45c       ?AllocateHeap@?$CTempBuffer@_W$0EAA@VCCRTAllocator@ATL@@@ATL@@AEAAX_K@Z 000000018000d45c f i BugSplatNativeApp.obj
 0001:0000c488       ?Append@CParseBuffer@CRegParser@ATL@@QEAAHPEB_WH@Z 000000018000d488 f i BugSplatNativeApp.obj
 0001:0000c5d0       ?AtlHresultFromLastError@ATL@@YAJXZ 000000018000d5d0 f i BugSplatNativeApp.obj
 0001:0000c5f0       ?AtlHresultFromWin32@ATL@@YAJK@Z 000000018000d5f0 f i BugSplatNativeApp.obj
 0001:0000c600       ?ChToByte@CRegParser@ATL@@KAE_W@Z 000000018000d600 f i BugSplatNativeApp.obj
 0001:0000c68c       ?ClearReplacements@CExpansionVector@ATL@@QEAAJXZ 000000018000d68c f i BugSplatNativeApp.obj
 0001:0000c728       ?DeleteSubKey@CRegKey@ATL@@QEAAJPEB_W@Z 000000018000d728 f i BugSplatNativeApp.obj
 0001:0000c7c0       ?FreeHeap@?$CTempBuffer@E$0BAA@VCCRTAllocator@ATL@@@ATL@@AEAAXXZ 000000018000d7c0 f i BugSplatNativeApp.obj
 0001:0000c7c8       ?FreeHeap@?$CTempBuffer@_W$0BAA@VCCRTAllocator@ATL@@@ATL@@AEAAXXZ 000000018000d7c8 f i BugSplatNativeApp.obj
 0001:0000c7d0       ?FreeHeap@?$CTempBuffer@_W$0EAA@VCCRTAllocator@ATL@@@ATL@@AEAAXXZ 000000018000d7d0 f i BugSplatNativeApp.obj
 0001:0000c7d8       ?HKeyFromString@CRegParser@ATL@@KAPEAUHKEY__@@PEA_W@Z 000000018000d7d8 f i BugSplatNativeApp.obj
 0001:0000c83c       ?Init@CAppModule@WTL@@QEAAJPEAU_ATL_OBJMAP_ENTRY30@ATL@@PEAUHINSTANCE__@@PEBU_GUID@@@Z 000000018000d83c f i BugSplatNativeApp.obj
 0001:0000c914       ?Lookup@?$CSimpleMap@PEA_WPEA_WVCExpansionVectorEqualHelper@ATL@@@ATL@@QEBAPEA_WAEBQEA_W@Z 000000018000d914 f i BugSplatNativeApp.obj
 0001:0000c99c       ?NextToken@CRegParser@ATL@@IEAAJPEA_W@Z 000000018000d99c f i BugSplatNativeApp.obj
 0001:0000cb58       ?PreProcessBuffer@CRegParser@ATL@@QEAAJPEA_WPEAPEA_W@Z 000000018000db58 f i BugSplatNativeApp.obj
 0001:0000cf44       ?RecurseDeleteKey@CRegKey@ATL@@QEAAJPEB_W@Z 000000018000df44 f i BugSplatNativeApp.obj
 0001:0000d09c       ?RegCreateKeyExW@CAtlTransactionManager@ATL@@QEAAJPEAUHKEY__@@PEB_WKPEA_WKKQEAU_SECURITY_ATTRIBUTES@@PEAPEAU3@PEAK@Z 000000018000e09c f i BugSplatNativeApp.obj
 0001:0000d1d0       ?RegDeleteKeyW@CAtlTransactionManager@ATL@@QEAAJPEAUHKEY__@@PEB_W@Z 000000018000e1d0 f i BugSplatNativeApp.obj
 0001:0000d25c       ?RegOpenKeyExW@CAtlTransactionManager@ATL@@QEAAJPEAUHKEY__@@PEB_WKKPEAPEAU3@@Z 000000018000e25c f i BugSplatNativeApp.obj
 0001:0000d314       ?RegisterBuffer@CRegParser@ATL@@QEAAJPEA_WH@Z 000000018000e314 f i BugSplatNativeApp.obj
 0001:0000d480       ?RegisterFromResource@CRegObject@ATL@@IEAAJPEB_W00H@Z 000000018000e480 f i BugSplatNativeApp.obj
 0001:0000d654       ?RegisterSubkeys@CRegParser@ATL@@IEAAJPEA_WPEAUHKEY__@@HH@Z 000000018000e654 f i BugSplatNativeApp.obj
 0001:0000dec8       ?SetMultiStringValue@CRegKey@ATL@@QEAAJPEB_W0@Z 000000018000eec8 f i BugSplatNativeApp.obj
 0001:0000df48       ?SkipAssignment@CRegParser@ATL@@IEAAJPEA_W@Z 000000018000ef48 f i BugSplatNativeApp.obj
 0001:0000dff0       ?Term@CAppModule@WTL@@QEAAXXZ 000000018000eff0 f i BugSplatNativeApp.obj
 0001:0000e054       ?Term@CAtlModule@ATL@@QEAAXXZ 000000018000f054 f i BugSplatNativeApp.obj
 0001:0000e0d4       ?Term@CComModule@ATL@@QEAAXXZ 000000018000f0d4 f i BugSplatNativeApp.obj
 0001:0000e150       ?TermSettingChangeNotify@CAppModule@WTL@@QEAAXXZ 000000018000f150 f i BugSplatNativeApp.obj
 0001:0000e1e0       ?UpdateRegistryFromResource@CAtlModule@ATL@@QEAAJIHPEAU_ATL_REGMAP_ENTRY@2@@Z 000000018000f1e0 f i BugSplatNativeApp.obj
 0001:0000e4d0       ?UpdateRegistryFromResource@CAtlModule@ATL@@QEAAJPEB_WHPEAU_ATL_REGMAP_ENTRY@2@@Z 000000018000f4d0 f i BugSplatNativeApp.obj
 0001:0000e7dc       ?VTFromRegType@CRegParser@ATL@@KAHPEB_WAEAG@Z 000000018000f7dc f i BugSplatNativeApp.obj
 0001:0000e878       ?ocscpy_s@@YA_NPEA_W_KPEB_W@Z 000000018000f878 f i BugSplatNativeApp.obj
 0001:0000e92c       DllMain                    000000018000f92c f   BugSplatNativeApp.obj
 0001:0000e968       ?PiiReplaceUserInPath@@YA?AV?$CStringT@_WV?$StrTraitATL@_WV?$ChTraitsCRT@_W@ATL@@@ATL@@@ATL@@V12@@Z 000000018000f968 f   Pii.obj
 0001:0000ebb0       ??1stringdispid@CComTypeInfoHolder@ATL@@QEAA@XZ 000000018000fbb0 f i StdAfx.obj
 0001:0000ebbc       ??_Estringdispid@CComTypeInfoHolder@ATL@@QEAAPEAXI@Z 000000018000fbbc f i StdAfx.obj
 0001:0000ec39       InternetOpenW              000000018000fc39 f   wininet:WININET.dll
 0001:0000ec3f       InternetCloseHandle        000000018000fc3f f   wininet:WININET.dll
 0001:0000ec45       InternetConnectW           000000018000fc45 f   wininet:WININET.dll
 0001:0000ec4b       InternetReadFile           000000018000fc4b f   wininet:WININET.dll
 0001:0000ec51       InternetQueryOptionW       000000018000fc51 f   wininet:WININET.dll
 0001:0000ec57       InternetSetOptionW         000000018000fc57 f   wininet:WININET.dll
 0001:0000ec5d       HttpOpenRequestW           000000018000fc5d f   wininet:WININET.dll
 0001:0000ec63       HttpSendRequestW           000000018000fc63 f   wininet:WININET.dll
 0001:0000ec69       HttpQueryInfoW             000000018000fc69 f   wininet:WININET.dll
 0001:0000ec6f       InternetAttemptConnect     000000018000fc6f f   wininet:WININET.dll
 0001:0000ec75       PathFileExistsW            000000018000fc75 f   shlwapi:SHLWAPI.dll
 0001:0000ec7b       PathAppendW                000000018000fc7b f   shlwapi:SHLWAPI.dll
 0001:0000ec81       PathFindExtensionW         000000018000fc81 f   shlwapi:SHLWAPI.dll
 0001:0000ec87       PathFindFileNameW          000000018000fc87 f   shlwapi:SHLWAPI.dll
 0001:0000ec8d       PathRemoveExtensionW       000000018000fc8d f   shlwapi:SHLWAPI.dll
 0001:0000ec93       PathStripPathW             000000018000fc93 f   shlwapi:SHLWAPI.dll
 0001:0000ec99       UrlEscapeW                 000000018000fc99 f   shlwapi:SHLWAPI.dll
 0001:0000ec9f       CreateFileW                000000018000fc9f f   kernel32:KERNEL32.dll
 0001:0000eca5       GetFileSize                000000018000fca5 f   kernel32:KERNEL32.dll
 0001:0000ecab       DecodePointer              000000018000fcab f   kernel32:KERNEL32.dll
 0001:0000ecb1       CloseHandle                000000018000fcb1 f   kernel32:KERNEL32.dll
 0001:0000ecb7       RaiseException             000000018000fcb7 f   kernel32:KERNEL32.dll
 0001:0000ecbd       GetLastError               000000018000fcbd f   kernel32:KERNEL32.dll
 0001:0000ecc3       HeapDestroy                000000018000fcc3 f   kernel32:KERNEL32.dll
 0001:0000ecc9       HeapAlloc                  000000018000fcc9 f   kernel32:KERNEL32.dll
 0001:0000eccf       HeapReAlloc                000000018000fccf f   kernel32:KERNEL32.dll
 0001:0000ecd5       HeapFree                   000000018000fcd5 f   kernel32:KERNEL32.dll
 0001:0000ecdb       HeapSize                   000000018000fcdb f   kernel32:KERNEL32.dll
 0001:0000ece1       GetProcessHeap             000000018000fce1 f   kernel32:KERNEL32.dll
 0001:0000ece7       InitializeCriticalSectionEx 000000018000fce7 f   kernel32:KERNEL32.dll
 0001:0000eced       DeleteCriticalSection      000000018000fced f   kernel32:KERNEL32.dll
 0001:0000ecf3       CreateFileMappingW         000000018000fcf3 f   kernel32:KERNEL32.dll
 0001:0000ecf9       MapViewOfFile              000000018000fcf9 f   kernel32:KERNEL32.dll
 0001:0000ecff       UnmapViewOfFile            000000018000fcff f   kernel32:KERNEL32.dll
 0001:0000ed05       FindResourceExW            000000018000fd05 f   kernel32:KERNEL32.dll
 0001:0000ed0b       LoadResource               000000018000fd0b f   kernel32:KERNEL32.dll
 0001:0000ed11       LockResource               000000018000fd11 f   kernel32:KERNEL32.dll
 0001:0000ed17       SizeofResource             000000018000fd17 f   kernel32:KERNEL32.dll
 0001:0000ed1d       FindResourceW              000000018000fd1d f   kernel32:KERNEL32.dll
 0001:0000ed23       MultiByteToWideChar        000000018000fd23 f   kernel32:KERNEL32.dll
 0001:0000ed29       WideCharToMultiByte        000000018000fd29 f   kernel32:KERNEL32.dll
 0001:0000ed2f       DeleteFileW                000000018000fd2f f   kernel32:KERNEL32.dll
 0001:0000ed35       GetTempPathW               000000018000fd35 f   kernel32:KERNEL32.dll
 0001:0000ed3b       GetCurrentProcess          000000018000fd3b f   kernel32:KERNEL32.dll
 0001:0000ed41       GetCurrentThreadId         000000018000fd41 f   kernel32:KERNEL32.dll
 0001:0000ed47       OpenThread                 000000018000fd47 f   kernel32:KERNEL32.dll
 0001:0000ed4d       SuspendThread              000000018000fd4d f   kernel32:KERNEL32.dll
 0001:0000ed53       ResumeThread               000000018000fd53 f   kernel32:KERNEL32.dll
 0001:0000ed59       GetProcessId               000000018000fd59 f   kernel32:KERNEL32.dll
 0001:0000ed5f       GetProcAddress             000000018000fd5f f   kernel32:KERNEL32.dll
 0001:0000ed65       LoadLibraryW               000000018000fd65 f   kernel32:KERNEL32.dll
 0001:0000ed6b       CreateToolhelp32Snapshot   000000018000fd6b f   kernel32:KERNEL32.dll
 0001:0000ed71       Thread32First              000000018000fd71 f   kernel32:KERNEL32.dll
 0001:0000ed77       Thread32Next               000000018000fd77 f   kernel32:KERNEL32.dll
 0001:0000ed7d       OutputDebugStringW         000000018000fd7d f   kernel32:KERNEL32.dll
 0001:0000ed83       SetUnhandledExceptionFilter 000000018000fd83 f   kernel32:KERNEL32.dll
 0001:0000ed89       SetLastError               000000018000fd89 f   kernel32:KERNEL32.dll
 0001:0000ed8f       SetErrorMode               000000018000fd8f f   kernel32:KERNEL32.dll
 0001:0000ed95       EnterCriticalSection       000000018000fd95 f   kernel32:KERNEL32.dll
 0001:0000ed9b       LeaveCriticalSection       000000018000fd9b f   kernel32:KERNEL32.dll
 0001:0000eda1       InitializeCriticalSectionAndSpinCount 000000018000fda1 f   kernel32:KERNEL32.dll
 0001:0000eda7       WaitForSingleObject        000000018000fda7 f   kernel32:KERNEL32.dll
 0001:0000edad       GetCurrentProcessId        000000018000fdad f   kernel32:KERNEL32.dll
 0001:0000edb3       TerminateProcess           000000018000fdb3 f   kernel32:KERNEL32.dll
 0001:0000edb9       CreateProcessW             000000018000fdb9 f   kernel32:KERNEL32.dll
 0001:0000edbf       FlushInstructionCache      000000018000fdbf f   kernel32:KERNEL32.dll
 0001:0000edc5       OpenProcess                000000018000fdc5 f   kernel32:KERNEL32.dll
 0001:0000edcb       GetSystemTime              000000018000fdcb f   kernel32:KERNEL32.dll
 0001:0000edd1       VirtualProtect             000000018000fdd1 f   kernel32:KERNEL32.dll
 0001:0000edd7       VirtualQuery               000000018000fdd7 f   kernel32:KERNEL32.dll
 0001:0000eddd       FreeLibrary                000000018000fddd f   kernel32:KERNEL32.dll
 0001:0000ede3       GetModuleFileNameW         000000018000fde3 f   kernel32:KERNEL32.dll
 0001:0000ede9       GetModuleHandleW           000000018000fde9 f   kernel32:KERNEL32.dll
 0001:0000edef       LocalFree                  000000018000fdef f   kernel32:KERNEL32.dll
 0001:0000edf5       FormatMessageW             000000018000fdf5 f   kernel32:KERNEL32.dll
 0001:0000edfb       WritePrivateProfileStringW 000000018000fdfb f   kernel32:KERNEL32.dll
 0001:0000ee01       SystemTimeToFileTime       000000018000fe01 f   kernel32:KERNEL32.dll
 0001:0000ee07       LoadLibraryExW             000000018000fe07 f   kernel32:KERNEL32.dll
 0001:0000ee0d       lstrcmpiW                  000000018000fe0d f   kernel32:KERNEL32.dll
 0001:0000ee13       UnregisterClassW           000000018000fe13 f   user32:USER32.dll
 0001:0000ee19       LoadStringW                000000018000fe19 f   user32:USER32.dll
 0001:0000ee1f       MessageBoxW                000000018000fe1f f   user32:USER32.dll
 0001:0000ee25       DestroyWindow              000000018000fe25 f   user32:USER32.dll
 0001:0000ee2b       CharNextW                  000000018000fe2b f   user32:USER32.dll
 0001:0000ee31       RegCloseKey                000000018000fe31 f   advapi32:ADVAPI32.dll
 0001:0000ee37       RegOpenKeyExW              000000018000fe37 f   advapi32:ADVAPI32.dll
 0001:0000ee3d       RegQueryValueExW           000000018000fe3d f   advapi32:ADVAPI32.dll
 0001:0000ee43       RegCreateKeyW              000000018000fe43 f   advapi32:ADVAPI32.dll
 0001:0000ee49       RegOpenKeyW                000000018000fe49 f   advapi32:ADVAPI32.dll
 0001:0000ee4f       RegSetValueExW             000000018000fe4f f   advapi32:ADVAPI32.dll
 0001:0000ee55       RegCreateKeyExW            000000018000fe55 f   advapi32:ADVAPI32.dll
 0001:0000ee5b       RegDeleteKeyW              000000018000fe5b f   advapi32:ADVAPI32.dll
 0001:0000ee61       RegDeleteValueW            000000018000fe61 f   advapi32:ADVAPI32.dll
 0001:0000ee67       RegEnumKeyExW              000000018000fe67 f   advapi32:ADVAPI32.dll
 0001:0000ee6d       RegQueryInfoKeyW           000000018000fe6d f   advapi32:ADVAPI32.dll
 0001:0000ee73       CoCreateInstance           000000018000fe73 f   ole32:ole32.dll
 0001:0000ee79       CoTaskMemAlloc             000000018000fe79 f   ole32:ole32.dll
 0001:0000ee7f       CoTaskMemRealloc           000000018000fe7f f   ole32:ole32.dll
 0001:0000ee85       CoTaskMemFree              000000018000fe85 f   ole32:ole32.dll
 0001:0000ee8b       VarUI4FromStr              000000018000fe8b f   oleaut32:OLEAUT32.dll
 0001:0000ee91       SysFreeString              000000018000fe91 f   oleaut32:OLEAUT32.dll
 0001:0000ee98       ??$?2PEAUHINSTANCE__@@@Wrapper@?$CSimpleArray@PEAUHINSTANCE__@@V?$CSimpleArrayEqualHelper@PEAUHINSTANCE__@@@ATL@@@ATL@@SAPEAX_KPEAPEAUHINSTANCE__@@@Z 000000018000fe98 f i atls:atlbase.obj
 0001:0000ee9c       ??0?$CComCritSecLock@VCComCriticalSection@ATL@@@ATL@@QEAA@AEAVCComCriticalSection@1@_N@Z 000000018000fe9c f i atls:atlbase.obj
 0001:0000eec8       ??0?$CSimpleArray@PEAUHINSTANCE__@@V?$CSimpleArrayEqualHelper@PEAUHINSTANCE__@@@ATL@@@ATL@@QEAA@XZ 000000018000fec8 f i atls:atlbase.obj
 0001:0000eed8       ??0CAtlBaseModule@ATL@@QEAA@XZ 000000018000fed8 f   atls:atlbase.obj
 0001:0000ef80       ??0CComCriticalSection@ATL@@QEAA@XZ 000000018000ff80 f i atls:atlbase.obj
 0001:0000efa0       ??0Wrapper@?$CSimpleArray@PEAUHINSTANCE__@@V?$CSimpleArrayEqualHelper@PEAUHINSTANCE__@@@ATL@@@ATL@@QEAA@AEBQEAUHINSTANCE__@@@Z 000000018000ffa0 f i atls:atlbase.obj
 0001:0000efac       ??0_ATL_BASE_MODULE70@ATL@@QEAA@XZ 000000018000ffac f i atls:atlbase.obj
 0001:0000efd8       ??1?$CComCritSecLock@VCComCriticalSection@ATL@@@ATL@@QEAA@XZ 000000018000ffd8 f i atls:atlbase.obj
 0001:0000effc       ??1?$CSimpleArray@PEAUHINSTANCE__@@V?$CSimpleArrayEqualHelper@PEAUHINSTANCE__@@@ATL@@@ATL@@QEAA@XZ 000000018000fffc f i atls:atlbase.obj
 0001:0000f024       ??1CAtlBaseModule@ATL@@QEAA@XZ 0000000180010024 f   atls:atlbase.obj
 0001:0000f058       ??1CComCriticalSection@ATL@@QEAA@XZ 0000000180010058 f i atls:atlbase.obj
 0001:0000f05c       ??1_ATL_BASE_MODULE70@ATL@@QEAA@XZ 000000018001005c f i atls:atlbase.obj
 0001:0000f088       ??A?$CSimpleArray@PEAUHINSTANCE__@@V?$CSimpleArrayEqualHelper@PEAUHINSTANCE__@@@ATL@@@ATL@@QEAAAEAPEAUHINSTANCE__@@H@Z 0000000180010088 f i atls:atlbase.obj
 0001:0000f0b4       ?Add@?$CSimpleArray@PEAUHINSTANCE__@@V?$CSimpleArrayEqualHelper@PEAUHINSTANCE__@@@ATL@@@ATL@@QEAAHAEBQEAUHINSTANCE__@@@Z 00000001800100b4 f i atls:atlbase.obj
 0001:0000f168       ?AddResourceInstance@CAtlBaseModule@ATL@@QEAA_NPEAUHINSTANCE__@@@Z 0000000180010168 f   atls:atlbase.obj
 0001:0000f1b0       ?AtlCrtErrorCheck@ATL@@YAHH@Z 00000001800101b0 f i atls:atlbase.obj
 0001:0000f1f4       ?GetHInstanceAt@CAtlBaseModule@ATL@@QEAAPEAUHINSTANCE__@@H@Z 00000001800101f4 f   atls:atlbase.obj
 0001:0000f26c       ?GetSize@?$CSimpleArray@PEAUHINSTANCE__@@V?$CSimpleArrayEqualHelper@PEAUHINSTANCE__@@@ATL@@@ATL@@QEBAHXZ 000000018001026c f i atls:atlbase.obj
 0001:0000f270       ?Init@CComCriticalSection@ATL@@QEAAJXZ 0000000180010270 f i atls:atlbase.obj
 0001:0000f2a4       ?InternalSetAtIndex@?$CSimpleArray@PEAUHINSTANCE__@@V?$CSimpleArrayEqualHelper@PEAUHINSTANCE__@@@ATL@@@ATL@@QEAAXHAEBQEAUHINSTANCE__@@@Z 00000001800102a4 f i atls:atlbase.obj
 0001:0000f2bc       ?Lock@?$CComCritSecLock@VCComCriticalSection@ATL@@@ATL@@QEAAJXZ 00000001800102bc f i atls:atlbase.obj
 0001:0000f2dc       ?Lock@CComCriticalSection@ATL@@QEAAJXZ 00000001800102dc f i atls:atlbase.obj
 0001:0000f2f0       ?RemoveAll@?$CSimpleArray@PEAUHINSTANCE__@@V?$CSimpleArrayEqualHelper@PEAUHINSTANCE__@@@ATL@@@ATL@@QEAAXXZ 00000001800102f0 f i atls:atlbase.obj
 0001:0000f318       ?RemoveAt@?$CSimpleArray@PEAUHINSTANCE__@@V?$CSimpleArrayEqualHelper@PEAUHINSTANCE__@@@ATL@@@ATL@@QEAAHH@Z 0000000180010318 f i atls:atlbase.obj
 0001:0000f3bc       ?RemoveResourceInstance@CAtlBaseModule@ATL@@QEAA_NPEAUHINSTANCE__@@@Z 00000001800103bc f   atls:atlbase.obj
 0001:0000f43c       ?Term@CComCriticalSection@ATL@@QEAAJXZ 000000018001043c f i atls:atlbase.obj
 0001:0000f450       ?Unlock@?$CComCritSecLock@VCComCriticalSection@ATL@@@ATL@@QEAAXXZ 0000000180010450 f i atls:atlbase.obj
 0001:0000f46c       ?Unlock@CComCriticalSection@ATL@@QEAAJXZ 000000018001046c f i atls:atlbase.obj
 0001:0000f480       ?memmove_s@Checked@ATL@@YAXPEAX_KPEBX1@Z 0000000180010480 f i atls:atlbase.obj
 0001:0000f4d4       HRESULT_FROM_WIN32         00000001800104d4 f i atls:atlbase.obj
 0001:0000f538       ??0?$CTraceCategoryEx@$00$0A@@ATL@@QEAA@PEB_W@Z 0000000180010538 f i atls:stdafx.obj
 0001:0000f53c       ??0?$CTraceCategoryEx@$01$0A@@ATL@@QEAA@PEB_W@Z 000000018001053c f i atls:stdafx.obj
 0001:0000f540       ??0?$CTraceCategoryEx@$03$0A@@ATL@@QEAA@PEB_W@Z 0000000180010540 f i atls:stdafx.obj
 0001:0000f544       ??0?$CTraceCategoryEx@$07$0A@@ATL@@QEAA@PEB_W@Z 0000000180010544 f i atls:stdafx.obj
 0001:0000f548       ??0?$CTraceCategoryEx@$0BA@$0A@@ATL@@QEAA@PEB_W@Z 0000000180010548 f i atls:stdafx.obj
 0001:0000f54c       ??0?$CTraceCategoryEx@$0BAA@$0A@@ATL@@QEAA@PEB_W@Z 000000018001054c f i atls:stdafx.obj
 0001:0000f550       ??0?$CTraceCategoryEx@$0BAAA@$0A@@ATL@@QEAA@PEB_W@Z 0000000180010550 f i atls:stdafx.obj
 0001:0000f554       ??0?$CTraceCategoryEx@$0BAAAA@$0A@@ATL@@QEAA@PEB_W@Z 0000000180010554 f i atls:stdafx.obj
 0001:0000f558       ??0?$CTraceCategoryEx@$0BAAAAA@$0A@@ATL@@QEAA@PEB_W@Z 0000000180010558 f i atls:stdafx.obj
 0001:0000f55c       ??0?$CTraceCategoryEx@$0CA@$0A@@ATL@@QEAA@PEB_W@Z 000000018001055c f i atls:stdafx.obj
 0001:0000f560       ??0?$CTraceCategoryEx@$0CAA@$0A@@ATL@@QEAA@PEB_W@Z 0000000180010560 f i atls:stdafx.obj
 0001:0000f564       ??0?$CTraceCategoryEx@$0CAAA@$0A@@ATL@@QEAA@PEB_W@Z 0000000180010564 f i atls:stdafx.obj
 0001:0000f568       ??0?$CTraceCategoryEx@$0CAAAA@$0A@@ATL@@QEAA@PEB_W@Z 0000000180010568 f i atls:stdafx.obj
 0001:0000f56c       ??0?$CTraceCategoryEx@$0CAAAAA@$0A@@ATL@@QEAA@PEB_W@Z 000000018001056c f i atls:stdafx.obj
 0001:0000f570       ??0?$CTraceCategoryEx@$0EA@$0A@@ATL@@QEAA@PEB_W@Z 0000000180010570 f i atls:stdafx.obj
 0001:0000f574       ??0?$CTraceCategoryEx@$0EAA@$0A@@ATL@@QEAA@PEB_W@Z 0000000180010574 f i atls:stdafx.obj
 0001:0000f578       ??0?$CTraceCategoryEx@$0EAAA@$0A@@ATL@@QEAA@PEB_W@Z 0000000180010578 f i atls:stdafx.obj
 0001:0000f57c       ??0?$CTraceCategoryEx@$0EAAAA@$0A@@ATL@@QEAA@PEB_W@Z 000000018001057c f i atls:stdafx.obj
 0001:0000f580       ??0?$CTraceCategoryEx@$0EAAAAA@$0A@@ATL@@QEAA@PEB_W@Z 0000000180010580 f i atls:stdafx.obj
 0001:0000f584       ??0?$CTraceCategoryEx@$0IA@$0A@@ATL@@QEAA@PEB_W@Z 0000000180010584 f i atls:stdafx.obj
 0001:0000f588       ??0?$CTraceCategoryEx@$0IAA@$0A@@ATL@@QEAA@PEB_W@Z 0000000180010588 f i atls:stdafx.obj
 0001:0000f58c       ??0?$CTraceCategoryEx@$0IAAA@$0A@@ATL@@QEAA@PEB_W@Z 000000018001058c f i atls:stdafx.obj
 0001:0000f590       ??0?$CTraceCategoryEx@$0IAAAA@$0A@@ATL@@QEAA@PEB_W@Z 0000000180010590 f i atls:stdafx.obj
 0001:0000f594       ??_I@YAXPEAX_K1P6AX0@Z@Z   0000000180010594 f i atls:stdafx.obj
 0001:0000f5ec       ??0bad_alloc@std@@QEAA@XZ  00000001800105ec f i libcpmt:xthrow.obj
 0001:0000f60c       ??0bad_function_call@std@@QEAA@AEBV01@@Z 000000018001060c f i libcpmt:xthrow.obj
 0001:0000f648       ??0bad_function_call@std@@QEAA@XZ 0000000180010648 f i libcpmt:xthrow.obj
 0001:0000f660       ??0exception@std@@QEAA@QEBD@Z 0000000180010660 f i libcpmt:xthrow.obj
 0001:0000f6a0       ??0exception@std@@QEAA@QEBDH@Z 00000001800106a0 f i libcpmt:xthrow.obj
 0001:0000f6b8       ??0exception@std@@QEAA@XZ  00000001800106b8 f i libcpmt:xthrow.obj
 0001:0000f6d0       ??0invalid_argument@std@@QEAA@AEBV01@@Z 00000001800106d0 f i libcpmt:xthrow.obj
 0001:0000f70c       ??0invalid_argument@std@@QEAA@PEBD@Z 000000018001070c f i libcpmt:xthrow.obj
 0001:0000f754       ??0length_error@std@@QEAA@AEBV01@@Z 0000000180010754 f i libcpmt:xthrow.obj
 0001:0000f790       ??0length_error@std@@QEAA@PEBD@Z 0000000180010790 f i libcpmt:xthrow.obj
 0001:0000f7d8       ??0logic_error@std@@QEAA@AEBV01@@Z 00000001800107d8 f i libcpmt:xthrow.obj
 0001:0000f814       ??0logic_error@std@@QEAA@PEBD@Z 0000000180010814 f i libcpmt:xthrow.obj
 0001:0000f85c       ??0out_of_range@std@@QEAA@AEBV01@@Z 000000018001085c f i libcpmt:xthrow.obj
 0001:0000f898       ??0out_of_range@std@@QEAA@PEBD@Z 0000000180010898 f i libcpmt:xthrow.obj
 0001:0000f8e0       ??0overflow_error@std@@QEAA@AEBV01@@Z 00000001800108e0 f i libcpmt:xthrow.obj
 0001:0000f91c       ??0overflow_error@std@@QEAA@PEBD@Z 000000018001091c f i libcpmt:xthrow.obj
 0001:0000f964       ??0regex_error@std@@QEAA@AEBV01@@Z 0000000180010964 f i libcpmt:xthrow.obj
 0001:0000f9b0       ??0regex_error@std@@QEAA@W4error_type@regex_constants@1@@Z 00000001800109b0 f i libcpmt:xthrow.obj
 0001:0000fa14       ??0runtime_error@std@@QEAA@AEBV01@@Z 0000000180010a14 f i libcpmt:xthrow.obj
 0001:0000fa50       ??0runtime_error@std@@QEAA@PEBD@Z 0000000180010a50 f i libcpmt:xthrow.obj
 0001:0000fa98       ??1bad_alloc@std@@UEAA@XZ  0000000180010a98 f i libcpmt:xthrow.obj
 0001:0000faac       ??1bad_function_call@std@@UEAA@XZ 0000000180010aac f i libcpmt:xthrow.obj
 0001:0000fac0       ??1invalid_argument@std@@UEAA@XZ 0000000180010ac0 f i libcpmt:xthrow.obj
 0001:0000fad4       ??1length_error@std@@UEAA@XZ 0000000180010ad4 f i libcpmt:xthrow.obj
 0001:0000fae8       ??1logic_error@std@@UEAA@XZ 0000000180010ae8 f i libcpmt:xthrow.obj
 0001:0000fafc       ??1out_of_range@std@@UEAA@XZ 0000000180010afc f i libcpmt:xthrow.obj
 0001:0000fb10       ??1overflow_error@std@@UEAA@XZ 0000000180010b10 f i libcpmt:xthrow.obj
 0001:0000fb24       ??1regex_error@std@@UEAA@XZ 0000000180010b24 f i libcpmt:xthrow.obj
 0001:0000fb38       ??1runtime_error@std@@UEAA@XZ 0000000180010b38 f i libcpmt:xthrow.obj
 0001:0000fb4c       ??_Ebad_function_call@std@@UEAAPEAXI@Z 0000000180010b4c f i libcpmt:xthrow.obj
 0001:0000fb4c       ??_Gbad_function_call@std@@UEAAPEAXI@Z 0000000180010b4c f i libcpmt:xthrow.obj
 0001:0000fb90       ??_Einvalid_argument@std@@UEAAPEAXI@Z 0000000180010b90 f i libcpmt:xthrow.obj
 0001:0000fb90       ??_Ginvalid_argument@std@@UEAAPEAXI@Z 0000000180010b90 f i libcpmt:xthrow.obj
 0001:0000fbd4       ??_Elength_error@std@@UEAAPEAXI@Z 0000000180010bd4 f i libcpmt:xthrow.obj
 0001:0000fbd4       ??_Glength_error@std@@UEAAPEAXI@Z 0000000180010bd4 f i libcpmt:xthrow.obj
 0001:0000fc18       ??_Glogic_error@std@@UEAAPEAXI@Z 0000000180010c18 f i libcpmt:xthrow.obj
 0001:0000fc18       ??_Elogic_error@std@@UEAAPEAXI@Z 0000000180010c18 f i libcpmt:xthrow.obj
 0001:0000fc5c       ??_Gout_of_range@std@@UEAAPEAXI@Z 0000000180010c5c f i libcpmt:xthrow.obj
 0001:0000fc5c       ??_Eout_of_range@std@@UEAAPEAXI@Z 0000000180010c5c f i libcpmt:xthrow.obj
 0001:0000fca0       ??_Goverflow_error@std@@UEAAPEAXI@Z 0000000180010ca0 f i libcpmt:xthrow.obj
 0001:0000fca0       ??_Eoverflow_error@std@@UEAAPEAXI@Z 0000000180010ca0 f i libcpmt:xthrow.obj
 0001:0000fce4       ??_Eregex_error@std@@UEAAPEAXI@Z 0000000180010ce4 f i libcpmt:xthrow.obj
 0001:0000fce4       ??_Gregex_error@std@@UEAAPEAXI@Z 0000000180010ce4 f i libcpmt:xthrow.obj
 0001:0000fd28       ??_Gruntime_error@std@@UEAAPEAXI@Z 0000000180010d28 f i libcpmt:xthrow.obj
 0001:0000fd28       ??_Eruntime_error@std@@UEAAPEAXI@Z 0000000180010d28 f i libcpmt:xthrow.obj
 0001:0000fd6c       ?_Stringify@regex_error@std@@CAPEBDW4error_type@regex_constants@2@@Z 0000000180010d6c f i libcpmt:xthrow.obj
 0001:0000fe38       ?_Xbad_alloc@std@@YAXXZ    0000000180010e38 f   libcpmt:xthrow.obj
 0001:0000fe58       ?_Xbad_function_call@std@@YAXXZ 0000000180010e58 f   libcpmt:xthrow.obj
 0001:0000fe78       ?_Xinvalid_argument@std@@YAXPEBD@Z 0000000180010e78 f   libcpmt:xthrow.obj
 0001:0000fe9c       ?_Xlength_error@std@@YAXPEBD@Z 0000000180010e9c f   libcpmt:xthrow.obj
 0001:0000fec0       ?_Xout_of_range@std@@YAXPEBD@Z 0000000180010ec0 f   libcpmt:xthrow.obj
 0001:0000fee4       ?_Xoverflow_error@std@@YAXPEBD@Z 0000000180010ee4 f   libcpmt:xthrow.obj
 0001:0000ff08       ?_Xregex_error@std@@YAXW4error_type@regex_constants@1@@Z 0000000180010f08 f   libcpmt:xthrow.obj
 0001:0000ff2c       ?_Xruntime_error@std@@YAXPEBD@Z 0000000180010f2c f   libcpmt:xthrow.obj
 0001:0000ff50       ?what@bad_function_call@std@@UEBAPEBDXZ 0000000180010f50 f i libcpmt:xthrow.obj
 0001:0000ff58       ??2@YAPEAX_K@Z             0000000180010f58 f   LIBCMT:new_scalar.obj
 0001:0000ff94       ??3@YAXPEAX_K@Z            0000000180010f94 f   LIBCMT:delete_scalar_size.obj
 0001:0000ff9c       ?configure_argv@__scrt_narrow_argv_policy@@SAHXZ 0000000180010f9c f i LIBCMT:utility.obj
 0001:0000fffc       ?initialize_environment@__scrt_narrow_environment_policy@@SAHXZ 0000000180010ffc f i LIBCMT:utility.obj
 0001:00010034       NtCurrentTeb               0000000180011034 f i LIBCMT:utility.obj
 0001:00010040       __scrt_acquire_startup_lock 0000000180011040 f   LIBCMT:utility.obj
 0001:0001007c       __scrt_dllmain_after_initialize_c 000000018001107c f   LIBCMT:utility.obj
 0001:000100b0       __scrt_dllmain_before_initialize_c 00000001800110b0 f   LIBCMT:utility.obj
 0001:000100c8       __scrt_dllmain_crt_thread_attach 00000001800110c8 f   LIBCMT:utility.obj
 0001:000100f0       __scrt_dllmain_crt_thread_detach 00000001800110f0 f   LIBCMT:utility.obj
 0001:00010108       __scrt_dllmain_exception_filter 0000000180011108 f   LIBCMT:utility.obj
 0001:00010168       __scrt_dllmain_uninitialize_c 0000000180011168 f   LIBCMT:utility.obj
 0001:00010198       __scrt_dllmain_uninitialize_critical 0000000180011198 f   LIBCMT:utility.obj
 0001:000101ac       __scrt_initialize_crt      00000001800111ac f   LIBCMT:utility.obj
 0001:000101f8       __scrt_initialize_onexit_tables 00000001800111f8 f   LIBCMT:utility.obj
 0001:00010284       __scrt_is_nonwritable_in_current_image 0000000180011284 f   LIBCMT:utility.obj
 0001:0001031c       __scrt_release_startup_lock 000000018001131c f   LIBCMT:utility.obj
 0001:00010340       __scrt_uninitialize_crt    0000000180011340 f   LIBCMT:utility.obj
 0001:0001036c       _onexit                    000000018001136c f   LIBCMT:utility.obj
 0001:000103a8       at_quick_exit              00000001800113a8 f   LIBCMT:utility.obj
 0001:000103c8       atexit                     00000001800113c8 f   LIBCMT:utility.obj
 0001:00010590       _Init_thread_abort         0000000180011590 f   LIBCMT:thread_safe_statics.obj
 0001:000105c0       _Init_thread_footer        00000001800115c0 f   LIBCMT:thread_safe_statics.obj
 0001:00010620       _Init_thread_header        0000000180011620 f   LIBCMT:thread_safe_statics.obj
 0001:00010688       _Init_thread_lock          0000000180011688 f   LIBCMT:thread_safe_statics.obj
 0001:00010698       _Init_thread_notify        0000000180011698 f   LIBCMT:thread_safe_statics.obj
 0001:000106dc       _Init_thread_unlock        00000001800116dc f   LIBCMT:thread_safe_statics.obj
 0001:000106ec       _Init_thread_wait          00000001800116ec f   LIBCMT:thread_safe_statics.obj
 0001:00010750       __GSHandlerCheck           0000000180011750 f   LIBCMT:gshandler.obj
 0001:00010770       __GSHandlerCheckCommon     0000000180011770 f   LIBCMT:gshandler.obj
 0001:000107cc       __GSHandlerCheck_EH4       00000001800117cc f   LIBCMT:gshandlereh4.obj
 0001:00010860       _alloca_probe              0000000180011860 f   LIBCMT:chkstk.obj
 0001:00010860       __chkstk                   0000000180011860 f   LIBCMT:chkstk.obj
 0001:000108c0       __security_check_cookie    00000001800118c0 f   LIBCMT:amdsecgs.obj
 0001:000108e0       ??1type_info@@UEAA@XZ      00000001800118e0 f   LIBCMT:std_type_info_static.obj
 0001:000108ec       ??_Etype_info@@UEAAPEAXI@Z 00000001800118ec f i LIBCMT:std_type_info_static.obj
 0001:000108ec       ??_Gtype_info@@UEAAPEAXI@Z 00000001800118ec f i LIBCMT:std_type_info_static.obj
 0001:00010918       ??3@YAXPEAX@Z              0000000180011918 f   LIBCMT:delete_scalar.obj
 0001:00010920       ??_M@YAXPEAX_K1P6AX0@Z@Z   0000000180011920 f   LIBCMT:ehvecdtr.obj
 0001:0001098c       ??_M@YAXPEAX_KHP6AX0@Z@Z   000000018001198c f   LIBCMT:ehvecdtr.obj
 0001:000109d4       ?__ArrayUnwind@@YAXPEAX_K1P6AX0@Z@Z 00000001800119d4 f   LIBCMT:ehvecdtr.obj
 0001:00010a38       ??_V@YAXPEAX_K@Z           0000000180011a38 f   LIBCMT:delete_array_size.obj
 0001:00010a40       ??_U@YAPEAX_K@Z            0000000180011a40 f   LIBCMT:new_array.obj
 0001:00010a48       ??_V@YAXPEAX@Z             0000000180011a48 f   LIBCMT:delete_array.obj
 0001:00010a50       __raise_securityfailure    0000000180011a50 f   LIBCMT:gs_report.obj
 0001:00010a84       __report_gsfailure         0000000180011a84 f   LIBCMT:gs_report.obj
 0001:00010b58       __report_rangecheckfailure 0000000180011b58 f   LIBCMT:gs_report.obj
 0001:00010b6c       __report_securityfailure   0000000180011b6c f   LIBCMT:gs_report.obj
 0001:00010c08       __report_securityfailureEx 0000000180011c08 f   LIBCMT:gs_report.obj
 0001:00010dfc       ??_U@YAPEAX_KAEBUnothrow_t@std@@@Z 0000000180011dfc f   LIBCMT:new_array_nothrow.obj
 0001:00011140       _CRT_INIT                  0000000180012140 f   LIBCMT:dll_dllmain.obj
 0001:00011148       _DllMainCRTStartup         0000000180012148 f   LIBCMT:dll_dllmain.obj
 0001:00011188       _guard_check_icall_nop     0000000180012188 f i LIBCMT:guard_support.obj
 0001:0001118c       ReadNoFence64              000000018001218c f i LIBCMT:guard_support.obj
 0001:00011190       ReadPointerNoFence         0000000180012190 f i LIBCMT:guard_support.obj
 0001:00011194       __castguard_check_failure_debugbreak 0000000180012194 f i LIBCMT:guard_support.obj
 0001:000111b0       __castguard_check_failure_fastfail 00000001800121b0 f i LIBCMT:guard_support.obj
 0001:000111d4       __castguard_check_failure_nop 00000001800121d4 f i LIBCMT:guard_support.obj
 0001:000111d8       __castguard_check_failure_os_handled 00000001800121d8 f i LIBCMT:guard_support.obj
 0001:00011238       __castguard_slow_path_check_debugbreak 0000000180012238 f i LIBCMT:guard_support.obj
 0001:0001126c       __castguard_slow_path_check_fastfail 000000018001226c f i LIBCMT:guard_support.obj
 0001:000112a8       __castguard_slow_path_check_nop 00000001800122a8 f i LIBCMT:guard_support.obj
 0001:000112ac       __castguard_slow_path_check_os_handled 00000001800122ac f i LIBCMT:guard_support.obj
 0001:00011320       _guard_icall_checks_enforced 0000000180012320 f i LIBCMT:guard_support.obj
 0001:00011338       _guard_rf_checks_enforced  0000000180012338 f i LIBCMT:guard_support.obj
 0001:0001133c       ??0bad_alloc@std@@AEAA@QEBD@Z 000000018001233c f i LIBCMT:throw_bad_alloc.obj
 0001:00011354       ?__scrt_throw_std_bad_alloc@@YAXXZ 0000000180012354 f   LIBCMT:throw_bad_alloc.obj
 0001:00011374       ?__scrt_throw_std_bad_array_new_length@@YAXXZ 0000000180012374 f   LIBCMT:throw_bad_alloc.obj
 0001:00011394       __isa_available_init       0000000180012394 f   LIBCMT:cpu_disp.obj
 0001:00011538       _get_startup_argv_mode     0000000180012538 f   LIBCMT:argv_mode.obj
 0001:00011540       __scrt_is_ucrt_dll_in_use  0000000180012540 f   LIBCMT:ucrt_detection.obj
 0001:0001154c       __crt_debugger_hook        000000018001254c f   LIBCMT:utility_desktop.obj
 0001:00011554       __scrt_fastfail            0000000180012554 f   LIBCMT:utility_desktop.obj
 0001:000116a0       __scrt_get_show_window_mode 00000001800126a0 f   LIBCMT:utility_desktop.obj
 0001:000116dc       __scrt_initialize_mta      00000001800126dc f   LIBCMT:utility_desktop.obj
 0001:000116e4       __scrt_initialize_winrt    00000001800126e4 f   LIBCMT:utility_desktop.obj
 0001:000116e8       __scrt_is_managed_app      00000001800126e8 f   LIBCMT:utility_desktop.obj
 0001:0001173c       __scrt_set_unhandled_exception_filter 000000018001273c f   LIBCMT:utility_desktop.obj
 0001:0001174c       __scrt_exe_initialize_mta  000000018001274c f   LIBCMT:utility_desktop.obj
 0001:0001174c       __scrt_stub_for_initialize_mta 000000018001274c f   LIBCMT:utility_desktop.obj
 0001:00011750       __scrt_unhandled_exception_filter 0000000180012750 f   LIBCMT:utility_desktop.obj
 0001:000117ac       ??2@YAPEAX_KAEBUnothrow_t@std@@@Z 00000001800127ac f   LIBCMT:new_scalar_nothrow.obj
 0001:0001182c       __security_init_cookie     000000018001282c f   LIBCMT:gs_support.obj
 0001:000118d8       ?__scrt_initialize_type_info@@YAXXZ 00000001800128d8 f   LIBCMT:tncleanup.obj
 0001:000118e8       ?__scrt_uninitialize_type_info@@YAXXZ 00000001800128e8 f   LIBCMT:tncleanup.obj
 0001:000118f4       __local_stdio_scanf_options 00000001800128f4 f i LIBCMT:default_local_stdio_options.obj
 0001:000118fc       __scrt_initialize_default_local_stdio_options 00000001800128fc f   LIBCMT:default_local_stdio_options.obj
 0001:00011918       __scrt_get_dyn_tls_init_callback 0000000180012918 f   LIBCMT:dyn_tls_init.obj
 0001:00011920       _RTC_Initialize            0000000180012920 f   LIBCMT:initsect.obj
 0001:0001195c       _RTC_Terminate             000000018001295c f   LIBCMT:initsect.obj
 0001:000119a0       RpcStringFreeW             00000001800129a0 f   Rpcrt4:RPCRT4.dll
 0001:000119a6       UuidCreate                 00000001800129a6 f   Rpcrt4:RPCRT4.dll
 0001:000119ac       UuidToStringW              00000001800129ac f   Rpcrt4:RPCRT4.dll
 0001:000119b4       __DestructExceptionObject  00000001800129b4 f   libvcruntime:ehhelpers.obj
 0001:00011a24       ?_CallMemberFunction0@@YAXQEAX0@Z 0000000180012a24 f i libvcruntime:ehhelpers.obj
 0001:00011a80       ?raw_name@type_info@@QEBAPEBDXZ 0000000180012a80 f i libvcruntime:ehhelpers.obj
 0001:00011a88       _IsExceptionObjectToBeDestroyed 0000000180012a88 f   libvcruntime:ehhelpers.obj
 0001:00011ab8       _SetWinRTOutOfMemoryExceptionCallback 0000000180012ab8 f   libvcruntime:ehhelpers.obj
 0001:00011ac0       __AdjustPointer            0000000180012ac0 f   libvcruntime:ehhelpers.obj
 0001:00011ae4       __FrameUnwindFilter        0000000180012ae4 f   libvcruntime:ehhelpers.obj
 0001:00011b4c       __GetPlatformExceptionInfo 0000000180012b4c f   libvcruntime:ehhelpers.obj
 0001:00011ba8       __current_exception        0000000180012ba8 f   libvcruntime:ehhelpers.obj
 0001:00011bbc       __current_exception_context 0000000180012bbc f   libvcruntime:ehhelpers.obj
 0001:00011bd0       __processing_throw         0000000180012bd0 f   libvcruntime:ehhelpers.obj
 0001:00011be4       __std_terminate            0000000180012be4 f   libvcruntime:ehhelpers.obj
 0001:00011bf0       _is_exception_typeof       0000000180012bf0 f   libvcruntime:ehhelpers.obj
 0001:00011cb0       memcpy_repmovs             0000000180012cb0 f   libvcruntime:memcpy.obj
 0001:00011cd0       memcpy                     0000000180012cd0 f   libvcruntime:memcpy.obj
 0001:00011cd0       memmove                    0000000180012cd0 f   libvcruntime:memcpy.obj
 0001:00012360       memset_repmovs             0000000180013360 f   libvcruntime:memset.obj
 0001:00012380       memset                     0000000180013380 f   libvcruntime:memset.obj
 0001:00012510       wcsstr                     0000000180013510 f   libvcruntime:wcsstr.obj
 0001:00012728       ??$?RD@__crt_public_free_policy@@QEBAXQEBD@Z 0000000180013728 f i libvcruntime:std_exception.obj
 0001:00012730       ??0?$__crt_unique_heap_ptr@DU__crt_public_free_policy@@@@QEAA@QEAD@Z 0000000180013730 f i libvcruntime:std_exception.obj
 0001:00012738       ??1?$__crt_unique_heap_ptr@DU__crt_public_free_policy@@@@QEAA@XZ 0000000180013738 f i libvcruntime:std_exception.obj
 0001:00012754       ??B?$__crt_unique_heap_ptr@DU__crt_public_free_policy@@@@QEBA_NXZ 0000000180013754 f i libvcruntime:std_exception.obj
 0001:0001275c       ?detach@?$__crt_unique_heap_ptr@DU__crt_public_free_policy@@@@QEAAPEADXZ 000000018001375c f i libvcruntime:std_exception.obj
 0001:00012764       ?get@?$__crt_unique_heap_ptr@DU__crt_public_free_policy@@@@QEBAPEADXZ 0000000180013764 f i libvcruntime:std_exception.obj
 0001:00012768       ?is_valid@?$__crt_unique_heap_ptr@DU__crt_public_free_policy@@@@QEBA_NXZ 0000000180013768 f i libvcruntime:std_exception.obj
 0001:00012770       ?release@?$__crt_unique_heap_ptr@DU__crt_public_free_policy@@@@QEAAXXZ 0000000180013770 f i libvcruntime:std_exception.obj
 0001:0001278c       __std_exception_copy       000000018001378c f   libvcruntime:std_exception.obj
 0001:0001281c       __std_exception_destroy    000000018001381c f   libvcruntime:std_exception.obj
 0001:00012844       _CxxThrowException         0000000180013844 f   libvcruntime:throw.obj
 0001:000128e4       ??$?0AEAViterator@TryBlockMap4@FH4@@AEAV012@$0A@@?$pair@Viterator@TryBlockMap4@FH4@@V123@@std@@QEAA@AEAViterator@TryBlockMap4@FH4@@0@Z 00000001800138e4 f i libvcruntime:risctrnsctrl.obj
 0001:000128f8       ??$?0AEAViterator@TryBlockMap@__FrameHandler3@@AEAV012@$0A@@?$pair@Viterator@TryBlockMap@__FrameHandler3@@V123@@std@@QEAA@AEAViterator@TryBlockMap@__FrameHandler3@@0@Z 00000001800138f8 f i libvcruntime:risctrnsctrl.obj
 0001:00012a48       ??$_CallSETranslator@V__FrameHandler3@@@@YAHPEAUEHExceptionRecord@@PEA_KPEAU_CONTEXT@@PEAU_xDISPATCHER_CONTEXT@@PEBU_s_FuncInfo@@K1H@Z 0000000180013a48 f i libvcruntime:risctrnsctrl.obj
 0001:00012a9c       ??$_CallSETranslator@V__FrameHandler4@@@@YAHPEAUEHExceptionRecord@@PEA_KPEAU_CONTEXT@@PEAU_xDISPATCHER_CONTEXT@@PEAUFuncInfo4@FH4@@K1H@Z 0000000180013a9c f i libvcruntime:risctrnsctrl.obj
 0001:00012af0       ??$forward@AEAViterator@TryBlockMap4@FH4@@@std@@YAAEAViterator@TryBlockMap4@FH4@@AEAV123@@Z 0000000180013af0 f i libvcruntime:risctrnsctrl.obj
 0001:00012af4       ??$forward@AEAViterator@TryBlockMap@__FrameHandler3@@@std@@YAAEAViterator@TryBlockMap@__FrameHandler3@@AEAV123@@Z 0000000180013af4 f i libvcruntime:risctrnsctrl.obj
 0001:00012af8       ??0FuncInfo4@FH4@@QEAA@XZ  0000000180013af8 f i libvcruntime:risctrnsctrl.obj
 0001:00012b0c       ??0FuncInfoHeader@FH4@@QEAA@XZ 0000000180013b0c f i libvcruntime:risctrnsctrl.obj
 0001:00012b14       ??0iterator@TryBlockMap4@FH4@@QEAA@AEAV12@I@Z 0000000180013b14 f i libvcruntime:risctrnsctrl.obj
 0001:00012b20       ??0iterator@TryBlockMap@__FrameHandler3@@QEAA@AEAV12@I@Z 0000000180013b20 f i libvcruntime:risctrnsctrl.obj
 0001:00012b2c       ??4iterator@TryBlockMap4@FH4@@QEAAAEAV012@AEBV012@@Z 0000000180013b2c f i libvcruntime:risctrnsctrl.obj
 0001:00012b38       ??9iterator@TryBlockMap4@FH4@@QEBA_NAEBV012@@Z 0000000180013b38 f i libvcruntime:risctrnsctrl.obj
 0001:00012b44       ??Diterator@TryBlockMap4@FH4@@QEAA?AUTryBlockMapEntry4@2@XZ 0000000180013b44 f i libvcruntime:risctrnsctrl.obj
 0001:00012b54       ??Eiterator@TryBlockMap4@FH4@@QEAAAEAV012@XZ 0000000180013b54 f i libvcruntime:risctrnsctrl.obj
 0001:00012bf0       ?CatchTryBlock@__FrameHandler3@@SAPEBU_s_TryBlockMapEntry@@PEBU_s_FuncInfo@@H@Z 0000000180013bf0 f   libvcruntime:risctrnsctrl.obj
 0001:00012c44       ?DecompFuncInfo@FH4@@YA_JPEAEAEAUFuncInfo4@1@_KH@Z 0000000180013c44 f i libvcruntime:risctrnsctrl.obj
 0001:00012c58       ?DecompFuncInfo@FH4@@YA_JPEAEAEAUFuncInfo4@1@_KH_N@Z 0000000180013c58 f i libvcruntime:risctrnsctrl.obj
 0001:00012d7c       ?DecompTryBlock@TryBlockMap4@FH4@@AEAAXXZ 0000000180013d7c f i libvcruntime:risctrnsctrl.obj
 0001:00012e10       ?ExecutionInCatch@__FrameHandler3@@SA_NPEAU_xDISPATCHER_CONTEXT@@PEBU_s_FuncInfo@@@Z 0000000180013e10 f   libvcruntime:risctrnsctrl.obj
 0001:00012e3c       ?ExecutionInCatch@__FrameHandler4@@SA_NPEAU_xDISPATCHER_CONTEXT@@PEAUFuncInfo4@FH4@@@Z 0000000180013e3c f   libvcruntime:risctrnsctrl.obj
 0001:00012e44       ?FrameUnwindToEmptyState@__FrameHandler3@@SAXPEA_KPEAU_xDISPATCHER_CONTEXT@@PEBU_s_FuncInfo@@@Z 0000000180013e44 f   libvcruntime:risctrnsctrl.obj
 0001:00012ea8       ?FrameUnwindToEmptyState@__FrameHandler4@@SAXPEA_KPEAU_xDISPATCHER_CONTEXT@@PEAUFuncInfo4@FH4@@@Z 0000000180013ea8 f   libvcruntime:risctrnsctrl.obj
 0001:00012edc       ?GetEstablisherFrame@__FrameHandler3@@SAPEA_KPEA_KPEAU_xDISPATCHER_CONTEXT@@PEBU_s_FuncInfo@@0@Z 0000000180013edc f   libvcruntime:risctrnsctrl.obj
 0001:00012fa8       ?GetEstablisherFrame@__FrameHandler4@@SAPEA_KPEA_KPEAU_xDISPATCHER_CONTEXT@@PEAUFuncInfo4@FH4@@0@Z 0000000180013fa8 f   libvcruntime:risctrnsctrl.obj
 0001:00012fcc       ?GetRangeOfTrysToCheck@__FrameHandler3@@SA?AU?$pair@Viterator@TryBlockMap@__FrameHandler3@@V123@@std@@AEAVTryBlockMap@1@HPEAU_xDISPATCHER_CONTEXT@@PEBU_s_FuncInfo@@H@Z 0000000180013fcc f   libvcruntime:risctrnsctrl.obj
 0001:0001310c       ?GetRangeOfTrysToCheck@__FrameHandler4@@SA?AU?$pair@Viterator@TryBlockMap4@FH4@@V123@@std@@AEAVTryBlockMap4@FH4@@HPEAU_xDISPATCHER_CONTEXT@@PEAUFuncInfo4@5@H@Z 000000018001410c f   libvcruntime:risctrnsctrl.obj
 0001:00013274       ?ReadInt@FH4@@YAHPEAPEAE@Z 0000000180014274 f i libvcruntime:risctrnsctrl.obj
 0001:00013284       ?ReadUnsigned@FH4@@YAIPEAPEAE@Z 0000000180014284 f i libvcruntime:risctrnsctrl.obj
 0001:000132b4       ?UnwindNestedFrames@__FrameHandler3@@SAXPEA_KPEAUEHExceptionRecord@@PEAU_CONTEXT@@0PEAXPEBU_s_FuncInfo@@HHPEBU_s_HandlerType@@PEAU_xDISPATCHER_CONTEXT@@E@Z 00000001800142b4 f   libvcruntime:risctrnsctrl.obj
 0001:000133b8       ?UnwindNestedFrames@__FrameHandler4@@SAXPEA_KPEAUEHExceptionRecord@@PEAU_CONTEXT@@0PEAXPEAUFuncInfo4@FH4@@HHPEAUHandlerType4@5@PEAU_xDISPATCHER_CONTEXT@@E@Z 00000001800143b8 f   libvcruntime:risctrnsctrl.obj
 0001:000134d8       ?begin@TryBlockMap4@FH4@@QEAA?AViterator@12@XZ 00000001800144d8 f i libvcruntime:risctrnsctrl.obj
 0001:000134e4       ?end@TryBlockMap4@FH4@@QEAA?AViterator@12@XZ 00000001800144e4 f i libvcruntime:risctrnsctrl.obj
 0001:000134f0       ?imageRelToByteBuffer@FH4@@YAPEAE_KH@Z 00000001800144f0 f i libvcruntime:risctrnsctrl.obj
 0001:000134f8       ?incrementToSentinel@iterator@TryBlockMap4@FH4@@QEAAXXZ 00000001800144f8 f i libvcruntime:risctrnsctrl.obj
 0001:000134fc       ?setBuffer@TryBlockMap4@FH4@@QEAAXViterator@12@@Z 00000001800144fc f i libvcruntime:risctrnsctrl.obj
 0001:000136bc       _CreateFrameInfo           00000001800146bc f   libvcruntime:risctrnsctrl.obj
 0001:000136f8       _FindAndUnlinkFrame        00000001800146f8 f   libvcruntime:risctrnsctrl.obj
 0001:0001374c       _GetImageBase              000000018001474c f   libvcruntime:risctrnsctrl.obj
 0001:00013760       _GetThrowImageBase         0000000180014760 f   libvcruntime:risctrnsctrl.obj
 0001:00013774       _SetImageBase              0000000180014774 f   libvcruntime:risctrnsctrl.obj
 0001:0001378c       _SetThrowImageBase         000000018001478c f   libvcruntime:risctrnsctrl.obj
 0001:000137a4       __CxxFrameHandler          00000001800147a4 f   libvcruntime:risctrnsctrl.obj
 0001:000137ac       __CxxFrameHandler2         00000001800147ac f   libvcruntime:risctrnsctrl.obj
 0001:000137b4       __CxxFrameHandler3         00000001800147b4 f   libvcruntime:risctrnsctrl.obj
 0001:0001383c       __CxxFrameHandler4         000000018001483c f   libvcruntime:risctrnsctrl.obj
 0001:000138fc       ??$__crt_interlocked_exchange_pointer@$$A6AXXZP6AXXZ@@YAP6AXXZPEDS6AXXZQ6AXXZ@Z 00000001800148fc f i libvcruntime:purevirt.obj
 0001:00013904       ??$__crt_interlocked_read_pointer@$$A6AXXZ@@YAP6AXXZPEDS6AXXZ@Z 0000000180014904 f i libvcruntime:purevirt.obj
 0001:0001390c       ?__crt_interlocked_read_64@@YA_JPED_J@Z 000000018001490c f i libvcruntime:purevirt.obj
 0001:00013914       _get_purecall_handler      0000000180014914 f   libvcruntime:purevirt.obj
 0001:00013920       _purecall                  0000000180014920 f   libvcruntime:purevirt.obj
 0001:0001393c       _set_purecall_handler      000000018001493c f   libvcruntime:purevirt.obj
 0001:00013960       memcmp                     0000000180014960 f   libvcruntime:memcmp.obj
 0001:00013a28       wcsrchr                    0000000180014a28 f   libvcruntime:wcsrchr.obj
 0001:00013aec       _get_unexpected            0000000180014aec f   libvcruntime:unexpected.obj
 0001:00013b10       set_unexpected             0000000180014b10 f   libvcruntime:unexpected.obj
 0001:00013b3c       unexpected                 0000000180014b3c f   libvcruntime:unexpected.obj
 0001:00013b5c       __vcrt_initialize          0000000180014b5c f   libvcruntime:initialization.obj
 0001:00013b84       __vcrt_thread_attach       0000000180014b84 f   libvcruntime:initialization.obj
 0001:00013b98       __vcrt_thread_detach       0000000180014b98 f   libvcruntime:initialization.obj
 0001:00013bac       __vcrt_uninitialize        0000000180014bac f   libvcruntime:initialization.obj
 0001:00013bc8       __vcrt_uninitialize_critical 0000000180014bc8 f   libvcruntime:initialization.obj
 0001:00013bdc       __C_specific_handler       0000000180014bdc f   libvcruntime:riscchandler.obj
 0001:00013df8       ??$?RD@__crt_internal_free_policy@@QEBAXQEBD@Z 0000000180014df8 f i libvcruntime:std_type_info.obj
 0001:00013e00       ??$?RX@__crt_internal_free_policy@@QEBAXQEBX@Z 0000000180014e00 f i libvcruntime:std_type_info.obj
 0001:00013e08       ??$__crt_interlocked_compare_exchange_pointer@$$CBDPEAD$$T@@YAPEBDPEDSEBDQEAD$$T@Z 0000000180014e08 f i libvcruntime:std_type_info.obj
 0001:00013e14       ??$__crt_interlocked_read_pointer@$$CBD@@YAPEBDPEDSEBD@Z 0000000180014e14 f i libvcruntime:std_type_info.obj
 0001:00013e1c       ??0?$__crt_unique_heap_ptr@DU__crt_internal_free_policy@@@@QEAA@QEAD@Z 0000000180014e1c f i libvcruntime:std_type_info.obj
 0001:00013e24       ??0?$__crt_unique_heap_ptr@XU__crt_internal_free_policy@@@@QEAA@QEAX@Z 0000000180014e24 f i libvcruntime:std_type_info.obj
 0001:00013e2c       ??1?$__crt_unique_heap_ptr@DU__crt_internal_free_policy@@@@QEAA@XZ 0000000180014e2c f i libvcruntime:std_type_info.obj
 0001:00013e48       ??1?$__crt_unique_heap_ptr@XU__crt_internal_free_policy@@@@QEAA@XZ 0000000180014e48 f i libvcruntime:std_type_info.obj
 0001:00013e64       ??B?$__crt_unique_heap_ptr@DU__crt_internal_free_policy@@@@QEBA_NXZ 0000000180014e64 f i libvcruntime:std_type_info.obj
 0001:00013e6c       ??B?$__crt_unique_heap_ptr@XU__crt_internal_free_policy@@@@QEBA_NXZ 0000000180014e6c f i libvcruntime:std_type_info.obj
 0001:00013e94       ?detach@?$__crt_unique_heap_ptr@XU__crt_internal_free_policy@@@@QEAAPEAXXZ 0000000180014e94 f i libvcruntime:std_type_info.obj
 0001:00013e9c       ?get@?$__crt_unique_heap_ptr@DU__crt_internal_free_policy@@@@QEBAPEADXZ 0000000180014e9c f i libvcruntime:std_type_info.obj
 0001:00013ea0       ?get@?$__crt_unique_heap_ptr@XU__crt_internal_free_policy@@@@QEBAPEAXXZ 0000000180014ea0 f i libvcruntime:std_type_info.obj
 0001:00013ea4       ?is_valid@?$__crt_unique_heap_ptr@DU__crt_internal_free_policy@@@@QEBA_NXZ 0000000180014ea4 f i libvcruntime:std_type_info.obj
 0001:00013eac       ?is_valid@?$__crt_unique_heap_ptr@XU__crt_internal_free_policy@@@@QEBA_NXZ 0000000180014eac f i libvcruntime:std_type_info.obj
 0001:00013eb4       ?release@?$__crt_unique_heap_ptr@DU__crt_internal_free_policy@@@@QEAAXXZ 0000000180014eb4 f i libvcruntime:std_type_info.obj
 0001:00013ed0       ?release@?$__crt_unique_heap_ptr@XU__crt_internal_free_policy@@@@QEAAXXZ 0000000180014ed0 f i libvcruntime:std_type_info.obj
 0001:00013eec       __std_type_info_compare    0000000180014eec f   libvcruntime:std_type_info.obj
 0001:00013f14       __std_type_info_destroy_list 0000000180014f14 f   libvcruntime:std_type_info.obj
 0001:00013f40       __std_type_info_hash       0000000180014f40 f   libvcruntime:std_type_info.obj
 0001:00013f78       __std_type_info_name       0000000180014f78 f   libvcruntime:std_type_info.obj
 0001:00014090       ??$?RU__vcrt_ptd@@@__crt_internal_free_policy@@QEBAXQEBU__vcrt_ptd@@@Z 0000000180015090 f i libvcruntime:per_thread_data.obj
 0001:00014098       ??0?$__crt_unique_heap_ptr@U__vcrt_ptd@@U__crt_internal_free_policy@@@@QEAA@QEAU__vcrt_ptd@@@Z 0000000180015098 f i libvcruntime:per_thread_data.obj
 0001:000140bc       ??1?$__crt_unique_heap_ptr@U__vcrt_ptd@@U__crt_internal_free_policy@@@@QEAA@XZ 00000001800150bc f i libvcruntime:per_thread_data.obj
 0001:000140e4       ??B?$__crt_unique_heap_ptr@U__vcrt_ptd@@U__crt_internal_free_policy@@@@QEBA_NXZ 00000001800150e4 f i libvcruntime:per_thread_data.obj
 0001:000140ec       ?detach@?$__crt_unique_heap_ptr@U__vcrt_ptd@@U__crt_internal_free_policy@@@@QEAAPEAU__vcrt_ptd@@XZ 00000001800150ec f i libvcruntime:per_thread_data.obj
 0001:000140f4       ?get@?$__crt_unique_heap_ptr@U__vcrt_ptd@@U__crt_internal_free_policy@@@@QEBAPEAU__vcrt_ptd@@XZ 00000001800150f4 f i libvcruntime:per_thread_data.obj
 0001:000140f8       ?is_valid@?$__crt_unique_heap_ptr@U__vcrt_ptd@@U__crt_internal_free_policy@@@@QEBA_NXZ 00000001800150f8 f i libvcruntime:per_thread_data.obj
 0001:00014100       ?release@?$__crt_unique_heap_ptr@U__vcrt_ptd@@U__crt_internal_free_policy@@@@QEAAXXZ 0000000180015100 f i libvcruntime:per_thread_data.obj
 0001:00014148       __vcrt_freefls             0000000180015148 f   libvcruntime:per_thread_data.obj
 0001:00014168       __vcrt_freeptd             0000000180015168 f   libvcruntime:per_thread_data.obj
 0001:000141b8       __vcrt_getptd              00000001800151b8 f   libvcruntime:per_thread_data.obj
 0001:000141d4       __vcrt_getptd_noexit       00000001800151d4 f   libvcruntime:per_thread_data.obj
 0001:00014294       __vcrt_getptd_noinit       0000000180015294 f   libvcruntime:per_thread_data.obj
 0001:000142e4       __vcrt_initialize_ptd      00000001800152e4 f   libvcruntime:per_thread_data.obj
 0001:0001432c       __vcrt_uninitialize_ptd    000000018001532c f   libvcruntime:per_thread_data.obj
 0001:00014350       ?GetCurrentState@__FrameHandler3@@SAHPEA_KPEAU_xDISPATCHER_CONTEXT@@PEBU_s_FuncInfo@@@Z 0000000180015350 f   libvcruntime:ehstate.obj
 0001:00014378       ?GetUnwindTryBlock@__FrameHandler3@@SAHPEA_KPEAU_xDISPATCHER_CONTEXT@@PEBU_s_FuncInfo@@@Z 0000000180015378 f   libvcruntime:ehstate.obj
 0001:000143a4       ?SetState@__FrameHandler3@@SAXPEA_KPEBU_s_FuncInfo@@H@Z 00000001800153a4 f   libvcruntime:ehstate.obj
 0001:000143b0       ?SetUnwindTryBlock@__FrameHandler3@@SAXPEA_KPEAU_xDISPATCHER_CONTEXT@@PEBU_s_FuncInfo@@H@Z 00000001800153b0 f   libvcruntime:ehstate.obj
 0001:000143ec       ?StateFromControlPc@__FrameHandler3@@SAHPEBU_s_FuncInfo@@PEAU_xDISPATCHER_CONTEXT@@@Z 00000001800153ec f   libvcruntime:ehstate.obj
 0001:000143f4       ?StateFromControlPc@__FrameHandler4@@SAHPEAUFuncInfo4@FH4@@PEAU_xDISPATCHER_CONTEXT@@@Z 00000001800153f4 f   libvcruntime:ehstate.obj
 0001:000143fc       ?StateFromIp@__FrameHandler3@@SAHPEBU_s_FuncInfo@@PEAU_xDISPATCHER_CONTEXT@@_K@Z 00000001800153fc f   libvcruntime:ehstate.obj
 0001:00014464       ?StateFromIp@__FrameHandler4@@SAHPEAUFuncInfo4@FH4@@PEAU_xDISPATCHER_CONTEXT@@_K@Z 0000000180015464 f   libvcruntime:ehstate.obj
 0001:0001454c       ?__FuncRelToRealOffset@@YA_KPEAU_xDISPATCHER_CONTEXT@@I@Z 000000018001554c f i libvcruntime:ehstate.obj
 0001:0001455c       ?__RVAtoRealOffset@@YA_KPEAU_xDISPATCHER_CONTEXT@@H@Z 000000018001555c f i libvcruntime:ehstate.obj
 0001:00015b64       ??$TypeMatchHelper@V__FrameHandler3@@@@YAHPEBU_s_HandlerType@@PEBU_s_CatchableType@@PEBU_s_ThrowInfo@@@Z 0000000180016b64 f i libvcruntime:frame.obj
 0001:00015ca4       ??$TypeMatchHelper@V__FrameHandler4@@@@YAHPEAUHandlerType4@FH4@@PEBU_s_CatchableType@@PEBU_s_ThrowInfo@@@Z 0000000180016ca4 f i libvcruntime:frame.obj
 0001:00015de8       ??$__InternalCxxFrameHandler@V__FrameHandler3@@@@YA?AW4_EXCEPTION_DISPOSITION@@PEAUEHExceptionRecord@@PEA_KPEAU_CONTEXT@@PEAU_xDISPATCHER_CONTEXT@@PEBU_s_FuncInfo@@H1E@Z 0000000180016de8 f i libvcruntime:frame.obj
 0001:00016020       ??$__InternalCxxFrameHandler@V__FrameHandler4@@@@YA?AW4_EXCEPTION_DISPOSITION@@PEAUEHExceptionRecord@@PEA_KPEAU_CONTEXT@@PEAU_xDISPATCHER_CONTEXT@@PEAUFuncInfo4@FH4@@H1E@Z 0000000180017020 f i libvcruntime:frame.obj
 0001:000162b4       ??0HandlerMap4@FH4@@QEAA@PEBUTryBlockMapEntry4@1@_KH@Z 00000001800172b4 f i libvcruntime:frame.obj
 0001:00016330       ??0HandlerMap@__FrameHandler3@@QEAA@PEBU_s_TryBlockMapEntry@@_KI@Z 0000000180017330 f i libvcruntime:frame.obj
 0001:00016344       ??0HandlerType4@FH4@@QEAA@XZ 0000000180017344 f i libvcruntime:frame.obj
 0001:0001635c       ??0TryBlockMap4@FH4@@QEAA@PEBUFuncInfo4@1@_K@Z 000000018001735c f i libvcruntime:frame.obj
 0001:00016434       ??0TryBlockMap@__FrameHandler3@@QEAA@PEBU_s_FuncInfo@@_K@Z 0000000180017434 f i libvcruntime:frame.obj
 0001:00016440       ??0UWMap4@FH4@@QEAA@PEBUFuncInfo4@1@_K@Z 0000000180017440 f i libvcruntime:frame.obj
 0001:00016484       ??0bad_exception@std@@QEAA@AEBV01@@Z 0000000180017484 f i libvcruntime:frame.obj
 0001:000164c0       ??0bad_exception@std@@QEAA@XZ 00000001800174c0 f i libvcruntime:frame.obj
 0001:000164e0       ??0iterator@HandlerMap4@FH4@@QEAA@AEAV12@I@Z 00000001800174e0 f i libvcruntime:frame.obj
 0001:000164ec       ??0iterator@HandlerMap@__FrameHandler3@@QEAA@AEAV12@I@Z 00000001800174ec f i libvcruntime:frame.obj
 0001:000164f8       ??0iterator@UWMap4@FH4@@QEAA@AEAV12@PEAE@Z 00000001800174f8 f i libvcruntime:frame.obj
 0001:00016504       ??1bad_exception@std@@UEAA@XZ 0000000180017504 f i libvcruntime:frame.obj
 0001:00016518       ??4iterator@UWMap4@FH4@@QEAAAEAV012@AEBV012@@Z 0000000180017518 f i libvcruntime:frame.obj
 0001:00016538       ??8iterator@HandlerMap4@FH4@@QEBA_NAEBV012@@Z 0000000180017538 f i libvcruntime:frame.obj
 0001:00016544       ??8iterator@HandlerMap@__FrameHandler3@@QEBA_NAEBV012@@Z 0000000180017544 f i libvcruntime:frame.obj
 0001:00016550       ??8type_info@@QEBA_NAEBV0@@Z 0000000180017550 f i libvcruntime:frame.obj
 0001:0001656c       ??9iterator@HandlerMap4@FH4@@QEBA_NAEBV012@@Z 000000018001756c f i libvcruntime:frame.obj
 0001:00016578       ??9iterator@HandlerMap@__FrameHandler3@@QEBA_NAEBV012@@Z 0000000180017578 f i libvcruntime:frame.obj
 0001:00016584       ??Diterator@HandlerMap4@FH4@@QEAA?AUHandlerType4@2@XZ 0000000180017584 f i libvcruntime:frame.obj
 0001:000165a4       ??Diterator@HandlerMap@__FrameHandler3@@QEAA?BU_s_HandlerType@@XZ 00000001800175a4 f i libvcruntime:frame.obj
 0001:000165c8       ??Diterator@TryBlockMap@__FrameHandler3@@QEAA?BU_s_TryBlockMapEntry@@XZ 00000001800175c8 f i libvcruntime:frame.obj
 0001:000165f8       ??Diterator@UWMap4@FH4@@QEAA?AUUnwindMapEntry4@2@XZ 00000001800175f8 f i libvcruntime:frame.obj
 0001:0001664c       ??Eiterator@HandlerMap4@FH4@@QEAAAEAV012@XZ 000000018001764c f i libvcruntime:frame.obj
 0001:0001666c       ??Eiterator@HandlerMap@__FrameHandler3@@QEAAAEAV012@XZ 000000018001766c f i libvcruntime:frame.obj
 0001:00016674       ??Eiterator@TryBlockMap@__FrameHandler3@@QEAAAEAV012@XZ 0000000180017674 f i libvcruntime:frame.obj
 0001:0001667c       ??Eiterator@UWMap4@FH4@@QEAAAEAV012@XZ 000000018001767c f i libvcruntime:frame.obj
 0001:0001669c       ??Giterator@UWMap4@FH4@@QEBA_JAEBV012@@Z 000000018001769c f i libvcruntime:frame.obj
 0001:000166a8       ??Miterator@TryBlockMap4@FH4@@QEBA_NAEBV012@@Z 00000001800176a8 f i libvcruntime:frame.obj
 0001:000166b4       ??Miterator@TryBlockMap@__FrameHandler3@@QEBA_NAEBV012@@Z 00000001800176b4 f i libvcruntime:frame.obj
 0001:000166c0       ??Oiterator@UWMap4@FH4@@QEBA_NAEBV012@@Z 00000001800176c0 f i libvcruntime:frame.obj
 0001:000166cc       ??Piterator@UWMap4@FH4@@QEBA_NAEBV012@@Z 00000001800176cc f i libvcruntime:frame.obj
 0001:000166d8       ??_Gbad_exception@std@@UEAAPEAXI@Z 00000001800176d8 f i libvcruntime:frame.obj
 0001:000166d8       ??_Ebad_exception@std@@UEAAPEAXI@Z 00000001800176d8 f i libvcruntime:frame.obj
 0001:0001671c       ?BuildCatchObject@__FrameHandler3@@SAXPEAUEHExceptionRecord@@PEAXPEBU_s_HandlerType@@PEBU_s_CatchableType@@@Z 000000018001771c f   libvcruntime:frame.obj
 0001:00016724       ?BuildCatchObject@__FrameHandler4@@SAXPEAUEHExceptionRecord@@PEAXPEAUHandlerType4@FH4@@PEBU_s_CatchableType@@@Z 0000000180017724 f   libvcruntime:frame.obj
 0001:0001672c       ?BuildCatchObjectHelper@__FrameHandler3@@SAHPEAUEHExceptionRecord@@PEAXPEBU_s_HandlerType@@PEBU_s_CatchableType@@@Z 000000018001772c f   libvcruntime:frame.obj
 0001:00016734       ?BuildCatchObjectHelper@__FrameHandler4@@SAHPEAUEHExceptionRecord@@PEAXPEAUHandlerType4@FH4@@PEBU_s_CatchableType@@@Z 0000000180017734 f   libvcruntime:frame.obj
 0001:0001673c       ?CxxCallCatchBlock@__FrameHandler3@@SAPEAXPEAU_EXCEPTION_RECORD@@@Z 000000018001773c f   libvcruntime:frame.obj
 0001:00016928       ?CxxCallCatchBlock@__FrameHandler4@@SAPEAXPEAU_EXCEPTION_RECORD@@@Z 0000000180017928 f   libvcruntime:frame.obj
 0001:00016b78       ?DecompHandler@HandlerMap4@FH4@@AEAAXXZ 0000000180017b78 f i libvcruntime:frame.obj
 0001:00016db8       ?FrameUnwindToState@__FrameHandler3@@SAXPEA_KPEAU_xDISPATCHER_CONTEXT@@PEBU_s_FuncInfo@@H@Z 0000000180017db8 f   libvcruntime:frame.obj
 0001:00016f44       ?FrameUnwindToState@__FrameHandler4@@SAXPEA_KPEAU_xDISPATCHER_CONTEXT@@PEAUFuncInfo4@FH4@@H@Z 0000000180017f44 f   libvcruntime:frame.obj
 0001:0001722c       ?GetHandlerSearchState@__FrameHandler3@@SAHPEA_KPEAU_xDISPATCHER_CONTEXT@@PEBU_s_FuncInfo@@@Z 000000018001822c f i libvcruntime:frame.obj
 0001:000172c4       ?GetHandlerSearchState@__FrameHandler4@@SAHPEA_KPEAU_xDISPATCHER_CONTEXT@@PEAUFuncInfo4@FH4@@@Z 00000001800182c4 f i libvcruntime:frame.obj
 0001:00017328       ?GetMaxState@__FrameHandler3@@SAHPEAU_xDISPATCHER_CONTEXT@@PEBU_s_FuncInfo@@@Z 0000000180018328 f i libvcruntime:frame.obj
 0001:0001732c       ?GetMaxState@__FrameHandler4@@SAHPEAU_xDISPATCHER_CONTEXT@@PEAUFuncInfo4@FH4@@@Z 000000018001832c f i libvcruntime:frame.obj
 0001:000174dc       ?ReadEntry@UWMap4@FH4@@AEAAXPEAPEAE@Z 00000001800184dc f i libvcruntime:frame.obj
 0001:0001757c       ?TypeMatch@__FrameHandler3@@SAHPEBU_s_HandlerType@@PEBU_s_CatchableType@@PEBU_s_ThrowInfo@@@Z 000000018001857c f   libvcruntime:frame.obj
 0001:00017584       ?TypeMatch@__FrameHandler4@@SAHPEAUHandlerType4@FH4@@PEBU_s_CatchableType@@PEBU_s_ThrowInfo@@@Z 0000000180018584 f   libvcruntime:frame.obj
 0001:0001758c       ?WalkBack@UWMap4@FH4@@AEAAXPEAPEAE@Z 000000018001858c f i libvcruntime:frame.obj
 0001:000175c4       ?WalkBack@iterator@UWMap4@FH4@@QEAAXXZ 00000001800185c4 f i libvcruntime:frame.obj
 0001:00017604       ?WalkForward@UWMap4@FH4@@AEAAXPEAPEAE@Z 0000000180018604 f i libvcruntime:frame.obj
 0001:0001760c       ?_CallMemberFunction1@@YAXQEAX00@Z 000000018001860c f i libvcruntime:frame.obj
 0001:00017618       ?_CallMemberFunction2@@YAXQEAX00H@Z 0000000180018618 f i libvcruntime:frame.obj
 0001:0001763c       ?begin@HandlerMap4@FH4@@QEAA?AViterator@12@XZ 000000018001863c f i libvcruntime:frame.obj
 0001:00017648       ?begin@HandlerMap@__FrameHandler3@@QEAA?AViterator@12@XZ 0000000180018648 f i libvcruntime:frame.obj
 0001:00017654       ?begin@UWMap4@FH4@@QEAA?AViterator@12@XZ 0000000180018654 f i libvcruntime:frame.obj
 0001:00017664       ?end@HandlerMap4@FH4@@QEAA?AViterator@12@XZ 0000000180018664 f i libvcruntime:frame.obj
 0001:00017670       ?end@HandlerMap@__FrameHandler3@@QEAA?AViterator@12@XZ 0000000180018670 f i libvcruntime:frame.obj
 0001:0001767c       ?getESTypes@__FrameHandler3@@SAPEBU_s_ESTypeList@@PEBU_s_FuncInfo@@@Z 000000018001867c f i libvcruntime:frame.obj
 0001:000176a4       ?getESTypes@__FrameHandler4@@SAPEBU_s_ESTypeList@@PEAUFuncInfo4@FH4@@@Z 00000001800186a4 f i libvcruntime:frame.obj
 0001:000176a8       ?getLastEntry@HandlerMap4@FH4@@QEAAPEAUHandlerType4@2@XZ 00000001800186a8 f i libvcruntime:frame.obj
 0001:000176f8       ?getLastEntry@HandlerMap@__FrameHandler3@@QEAAPEBU_s_HandlerType@@XZ 00000001800186f8 f i libvcruntime:frame.obj
 0001:0001770c       ?getMagicNum@__FrameHandler3@@SAIPEBU_s_FuncInfo@@@Z 000000018001870c f i libvcruntime:frame.obj
 0001:00017714       ?getMagicNum@__FrameHandler4@@SAIPEAUFuncInfo4@FH4@@@Z 0000000180018714 f i libvcruntime:frame.obj
 0001:0001771c       ?getNumTryBlocks@TryBlockMap4@FH4@@QEAAIXZ 000000018001871c f i libvcruntime:frame.obj
 0001:00017720       ?getNumTryBlocks@TryBlockMap@__FrameHandler3@@QEAAIXZ 0000000180018720 f i libvcruntime:frame.obj
 0001:00017728       ?getStartStop@UWMap4@FH4@@QEAAXHHAEAViterator@12@0@Z 0000000180018728 f i libvcruntime:frame.obj
 0001:000177f8       ?getStateFromIterators@UWMap4@FH4@@SAHAEBViterator@12@H0H0@Z 00000001800187f8 f i libvcruntime:frame.obj
 0001:000178c0       ?isEHs@__FrameHandler3@@SA_NPEBU_s_FuncInfo@@@Z 00000001800188c0 f i libvcruntime:frame.obj
 0001:000178c8       ?isEHs@__FrameHandler4@@SA_NPEAUFuncInfo4@FH4@@@Z 00000001800188c8 f i libvcruntime:frame.obj
 0001:000178d0       ?isNoExcept@__FrameHandler3@@SA_NPEBU_s_FuncInfo@@@Z 00000001800188d0 f i libvcruntime:frame.obj
 0001:000178dc       ?isNoExcept@__FrameHandler4@@SA_NPEAUFuncInfo4@FH4@@@Z 00000001800188dc f i libvcruntime:frame.obj
 0001:000178e4       ?reset@HandlerType4@FH4@@QEAAXXZ 00000001800188e4 f i libvcruntime:frame.obj
 0001:000178f8       ?resetBuffer@HandlerMap4@FH4@@QEAAXXZ 00000001800188f8 f i libvcruntime:frame.obj
 0001:00017908       ?setBuffer@HandlerMap4@FH4@@QEAAXI@Z 0000000180018908 f i libvcruntime:frame.obj
 0001:00017944       __BuildCatchObject         0000000180018944 f   libvcruntime:frame.obj
 0001:0001794c       __BuildCatchObjectHelper   000000018001894c f   libvcruntime:frame.obj
 0001:00017954       __TypeMatch                0000000180018954 f   libvcruntime:frame.obj
 0001:0001795c       __vcrt_EncodePointer       000000018001895c f i libvcruntime:frame.obj
 0001:00017964       __vcrt_initialize_locks    0000000180018964 f   libvcruntime:locks.obj
 0001:00017998       __vcrt_lock                0000000180018998 f   libvcruntime:locks.obj
 0001:000179b4       __vcrt_uninitialize_locks  00000001800189b4 f   libvcruntime:locks.obj
 0001:000179ec       __vcrt_unlock              00000001800189ec f   libvcruntime:locks.obj
 0001:00017a20       _NLG_Notify                0000000180018a20 f   libvcruntime:notify.obj
 0001:00017a40       __NLG_Dispatch2            0000000180018a40 f   libvcruntime:notify.obj
 0001:00017a50       __NLG_Return2              0000000180018a50 f   libvcruntime:notify.obj
 0001:00017a5c       __except_validate_context_record 0000000180018a5c f   libvcruntime:jbcxrval.obj
 0001:00017a94       __except_validate_jump_buffer 0000000180018a94 f   libvcruntime:jbcxrval.obj
 0001:00017ad4       __except_validate_jump_buffer_common 0000000180018ad4 f i libvcruntime:jbcxrval.obj
 0001:00017b30       ??$?0$00@DName@@QEAA@PEBDU?$StringLifeSelector@$00@@@Z 0000000180018b30 f i libvcruntime:undname.obj
 0001:00017b70       ??$?0$00@pcharNode@@QEAA@PEBDHU?$StringLifeSelector@$00@@@Z 0000000180018b70 f i libvcruntime:undname.obj
 0001:00017b88       ??$?0$01@DName@@QEAA@PEBDU?$StringLifeSelector@$01@@@Z 0000000180018b88 f i libvcruntime:undname.obj
 0001:00017bc8       ??$?0$01@pcharNode@@QEAA@PEBDHU?$StringLifeSelector@$01@@@Z 0000000180018bc8 f i libvcruntime:undname.obj
 0001:00017c3c       ??$?0$0A@@DName@@QEAA@PEBDU?$StringLifeSelector@$0A@@@@Z 0000000180018c3c f i libvcruntime:undname.obj
 0001:00017c7c       ??$?0$0A@@pcharNode@@QEAA@PEBDHU?$StringLifeSelector@$0A@@@@Z 0000000180018c7c f i libvcruntime:undname.obj
 0001:00017cf0       ??$?0_K$0A@@?$optional@_K@std@@QEAA@$$QEA_K@Z 0000000180018cf0 f i libvcruntime:undname.obj
 0001:00017d00       ??$?0_K@?$_Optional_construct_base@_K@std@@QEAA@Uin_place_t@1@$$QEA_K@Z 0000000180018d00 f i libvcruntime:undname.obj
 0001:00017d10       ??$?0_K@?$_Optional_destruct_base@_K$00@std@@QEAA@Uin_place_t@1@$$QEA_K@Z 0000000180018d10 f i libvcruntime:undname.obj
 0001:00017d20       ??$append@VDNameNode@@@DName@@AEAAXPEBVDNameNode@@@Z 0000000180018d20 f i libvcruntime:undname.obj
 0001:00017d84       ??$append@VDNameStatusNode@@@DName@@AEAAXPEBVDNameStatusNode@@@Z 0000000180018d84 f i libvcruntime:undname.obj
 0001:00017de8       ??$append@VcharNode@@@DName@@AEAAXPEBVcharNode@@@Z 0000000180018de8 f i libvcruntime:undname.obj
 0001:00017e4c       ??$append@VpDNameNode@@@DName@@AEAAXPEBVpDNameNode@@@Z 0000000180018e4c f i libvcruntime:undname.obj
 0001:00017eb0       ??$append@VpcharNode@@@DName@@AEAAXPEBVpcharNode@@@Z 0000000180018eb0 f i libvcruntime:undname.obj
 0001:00017f14       ??$doPchar@$00@DName@@AEAAXPEBDH@Z 0000000180018f14 f i libvcruntime:undname.obj
 0001:00017fb8       ??$doPchar@$01@DName@@AEAAXPEBDH@Z 0000000180018fb8 f i libvcruntime:undname.obj
 0001:00018050       ??$doPchar@$0A@@DName@@AEAAXPEBDH@Z 0000000180019050 f i libvcruntime:undname.obj
 0001:000180e8       ??$forward@_K@std@@YA$$QEA_KAEA_K@Z 00000001800190e8 f i libvcruntime:undname.obj
 0001:000180ec       ??$size@D$04@std@@YA_KAEAY04$$CBD@Z 00000001800190ec f i libvcruntime:undname.obj
 0001:000180f4       ??$size@D$0EB@@std@@YA_KAEAY0EB@$$CBD@Z 00000001800190f4 f i libvcruntime:undname.obj
 0001:000180fc       ??0?$_Optional_construct_base@_K@std@@QEAA@XZ 00000001800190fc f i libvcruntime:undname.obj
 0001:00018104       ??0?$_Optional_destruct_base@_K$00@std@@QEAA@XZ 0000000180019104 f i libvcruntime:undname.obj
 0001:0001810c       ??0?$optional@_K@std@@QEAA@XZ 000000018001910c f i libvcruntime:undname.obj
 0001:00018114       ??0Block@_HeapManager@@QEAA@XZ 0000000180019114 f i libvcruntime:undname.obj
 0001:0001811c       ??0DName@@QEAA@AEAPEBDD@Z  000000018001911c f   libvcruntime:undname.obj
 0001:000181cc       ??0DName@@QEAA@AEBUStringLiteral@@@Z 00000001800191cc f   libvcruntime:undname.obj
 0001:000181f8       ??0DName@@QEAA@AEBV0@@Z    00000001800191f8 f i libvcruntime:undname.obj
 0001:00018208       ??0DName@@QEAA@D@Z         0000000180019208 f   libvcruntime:undname.obj
 0001:00018228       ??0DName@@QEAA@PEAV0@@Z    0000000180019228 f   libvcruntime:undname.obj
 0001:000182ac       ??0DName@@QEAA@W4DNameStatus@@@Z 00000001800192ac f   libvcruntime:undname.obj
 0001:000182dc       ??0DName@@QEAA@XZ          00000001800192dc f i libvcruntime:undname.obj
 0001:000182e8       ??0DName@@QEAA@_J@Z        00000001800192e8 f   libvcruntime:undname.obj
 0001:00018390       ??0DName@@QEAA@_K@Z        0000000180019390 f   libvcruntime:undname.obj
 0001:00018418       ??0DNameNode@@IEAA@XZ      0000000180019418 f i libvcruntime:undname.obj
 0001:00018428       ??0Replicator@@QEAA@XZ     0000000180019428 f i libvcruntime:undname.obj
 0001:0001843c       ??0UnDecorator@@QEAA@PEBDP6APEADJ@ZK@Z 000000018001943c f i libvcruntime:undname.obj
 0001:0001848c       ??0_Nontrivial_dummy_type@std@@QEAA@XZ 000000018001948c f i libvcruntime:undname.obj
 0001:00018490       ??0charNode@@QEAA@D@Z      0000000180019490 f i libvcruntime:undname.obj
 0001:000184a4       ??0pDNameNode@@QEAA@PEAVDName@@@Z 00000001800194a4 f   libvcruntime:undname.obj
 0001:000184cc       ??0pairNode@@QEAA@PEBVDNameNode@@0@Z 00000001800194cc f i libvcruntime:undname.obj
 0001:000184f0       ??2@YAPEAX_KAEAV_HeapManager@@H@Z 00000001800194f0 f   libvcruntime:undname.obj
 0001:0001851c       ??4DName@@QEAAAEAV0@AEBUStringLiteral@@@Z 000000018001951c f   libvcruntime:undname.obj
 0001:00018544       ??4DName@@QEAAAEAV0@AEBV0@@Z 0000000180019544 f   libvcruntime:undname.obj
 0001:00018554       ??4DName@@QEAAAEAV0@D@Z    0000000180019554 f i libvcruntime:undname.obj
 0001:00018574       ??4DName@@QEAAAEAV0@PEAV0@@Z 0000000180019574 f   libvcruntime:undname.obj
 0001:000185ec       ??4DName@@QEAAAEAV0@W4DNameStatus@@@Z 00000001800195ec f   libvcruntime:undname.obj
 0001:0001860c       ??AReplicator@@QEBA?AVDName@@H@Z 000000018001960c f   libvcruntime:undname.obj
 0001:0001864c       ??B?$optional@_K@std@@QEBA_NXZ 000000018001964c f i libvcruntime:undname.obj
 0001:00018650       ??D?$optional@_K@std@@QEGAAAEA_KXZ 0000000180019650 f i libvcruntime:undname.obj
 0001:00018654       ??H@YA?AVDName@@AEBUStringLiteral@@AEBV0@@Z 0000000180019654 f i libvcruntime:undname.obj
 0001:0001868c       ??H@YA?AVDName@@DAEBV0@@Z  000000018001968c f i libvcruntime:undname.obj
 0001:000186d0       ??H@YA?AVDName@@W4DNameStatus@@AEBV0@@Z 00000001800196d0 f i libvcruntime:undname.obj
 0001:0001871c       ??HDName@@QEBA?AV0@AEBUStringLiteral@@@Z 000000018001971c f   libvcruntime:undname.obj
 0001:00018748       ??HDName@@QEBA?AV0@AEBV0@@Z 0000000180019748 f   libvcruntime:undname.obj
 0001:00018774       ??HDName@@QEBA?AV0@D@Z     0000000180019774 f   libvcruntime:undname.obj
 0001:000187a0       ??HDName@@QEBA?AV0@PEAV0@@Z 00000001800197a0 f   libvcruntime:undname.obj
 0001:000187cc       ??HDName@@QEBA?AV0@W4DNameStatus@@@Z 00000001800197cc f   libvcruntime:undname.obj
 0001:000187f8       ??HStringLiteral@@QEBA?AU0@H@Z 00000001800197f8 f i libvcruntime:undname.obj
 0001:00018810       ??YDName@@QEAAAEAV0@AEBUStringLiteral@@@Z 0000000180019810 f   libvcruntime:undname.obj
 0001:00018890       ??YDName@@QEAAAEAV0@AEBV0@@Z 0000000180019890 f   libvcruntime:undname.obj
 0001:00018944       ??YDName@@QEAAAEAV0@D@Z    0000000180019944 f   libvcruntime:undname.obj
 0001:000189b0       ??YDName@@QEAAAEAV0@PEAV0@@Z 00000001800199b0 f   libvcruntime:undname.obj
 0001:00018a44       ??YDName@@QEAAAEAV0@W4DNameStatus@@@Z 0000000180019a44 f   libvcruntime:undname.obj
 0001:00018ab0       ??YReplicator@@QEAAAEAV0@AEBVDName@@@Z 0000000180019ab0 f   libvcruntime:undname.obj
 0001:00018b08       ??_5DName@@QEAAAEAV0@AEBV0@@Z 0000000180019b08 f   libvcruntime:undname.obj
 0001:00018b1c       ??__K_l@@YA?AUStringLiteral@@PEBD_K@Z 0000000180019b1c f i libvcruntime:undname.obj
 0001:00018b28       ?Constructor@_HeapManager@@QEAAXP6APEAX_K@ZP6AXPEAX@Z@Z 0000000180019b28 f i libvcruntime:undname.obj
 0001:00018b40       ?Destructor@_HeapManager@@QEAAXXZ 0000000180019b40 f i libvcruntime:undname.obj
 0001:00018b94       ?UScore@UnDecorator@@SA?AUStringLiteral@@W4Tokens@@@Z 0000000180019b94 f   libvcruntime:undname.obj
 0001:00018be0       ?composeDeclaration@UnDecorator@@CA?AVDName@@AEBV2@@Z 0000000180019be0 f i libvcruntime:undname.obj
 0001:00019a88       ?doAccessSpecifiers@UnDecorator@@SAHXZ 000000018001aa88 f i libvcruntime:undname.obj
 0001:00019a98       ?doAllocationLanguage@UnDecorator@@SAHXZ 000000018001aa98 f i libvcruntime:undname.obj
 0001:00019aa8       ?doAllocationModel@UnDecorator@@SAHXZ 000000018001aaa8 f i libvcruntime:undname.obj
 0001:00019ab8       ?doEcsu@UnDecorator@@SAHXZ 000000018001aab8 f i libvcruntime:undname.obj
 0001:00019ac8       ?doEllipsis@UnDecorator@@SAHXZ 000000018001aac8 f i libvcruntime:undname.obj
 0001:00019ad8       ?doFunctionReturns@UnDecorator@@SAHXZ 000000018001aad8 f i libvcruntime:undname.obj
 0001:00019ae8       ?doMSKeywords@UnDecorator@@SAHXZ 000000018001aae8 f i libvcruntime:undname.obj
 0001:00019af8       ?doMemberTypes@UnDecorator@@SAHXZ 000000018001aaf8 f i libvcruntime:undname.obj
 0001:00019b08       ?doNameOnly@UnDecorator@@SAHXZ 000000018001ab08 f i libvcruntime:undname.obj
 0001:00019b14       ?doNoIdentCharCheck@UnDecorator@@SAHXZ 000000018001ab14 f i libvcruntime:undname.obj
 0001:00019b20       ?doPchar@DName@@AEAAXD@Z   000000018001ab20 f   libvcruntime:undname.obj
 0001:00019b70       ?doPtr64@UnDecorator@@SAHXZ 000000018001ab70 f i libvcruntime:undname.obj
 0001:00019b80       ?doRestrictionSpec@UnDecorator@@SAHXZ 000000018001ab80 f i libvcruntime:undname.obj
 0001:00019b90       ?doThisTypes@UnDecorator@@SAHXZ 000000018001ab90 f i libvcruntime:undname.obj
 0001:00019ba4       ?doThrowTypes@UnDecorator@@SAHXZ 000000018001aba4 f i libvcruntime:undname.obj
 0001:00019bb4       ?doTypeOnly@UnDecorator@@SAHXZ 000000018001abb4 f i libvcruntime:undname.obj
 0001:00019bc0       ?doUnderScore@UnDecorator@@SAHXZ 000000018001abc0 f i libvcruntime:undname.obj
 0001:00019bcc       ?getAddressOf@UnDecorator@@CA?AVDName@@XZ 000000018001abcc f   libvcruntime:undname.obj
 0001:00019c5c       ?getArgumentList@UnDecorator@@CA?AVDName@@XZ 000000018001ac5c f   libvcruntime:undname.obj
 0001:00019df0       ?getArgumentTypes@UnDecorator@@CA?AVDName@@XZ 000000018001adf0 f   libvcruntime:undname.obj
 0001:00019f3c       ?getArrayAccess@UnDecorator@@CA?AVDName@@XZ 000000018001af3c f   libvcruntime:undname.obj
 0001:00019fd8       ?getArrayObject@UnDecorator@@CA?AVDName@@XZ 000000018001afd8 f   libvcruntime:undname.obj
 0001:0001a0ac       ?getArrayType@UnDecorator@@CA?AVDName@@AEBV2@@Z 000000018001b0ac f i libvcruntime:undname.obj
 0001:0001a2f4       ?getBasedType@UnDecorator@@CA?AVDName@@XZ 000000018001b2f4 f   libvcruntime:undname.obj
 0001:0001a3ec       ?getBasicDataType@UnDecorator@@CA?AVDName@@AEBV2@@Z 000000018001b3ec f   libvcruntime:undname.obj
 0001:0001a990       ?getCHPEName@UnDecorator@@QEAAPEADPEADH@Z 000000018001b990 f i libvcruntime:undname.obj
 0001:0001aab0       ?getCallIndex@UnDecorator@@CA?AVDName@@XZ 000000018001bab0 f i libvcruntime:undname.obj
 0001:0001aacc       ?getCallingConvention@UnDecorator@@CA?AVDName@@XZ 000000018001bacc f   libvcruntime:undname.obj
 0001:0001ac0c       ?getDataIndirectType@UnDecorator@@CA?AVDName@@AEBV2@W4IndirectionKind@@0H@Z 000000018001bc0c f   libvcruntime:undname.obj
 0001:0001b4a4       ?getDataIndirectType@UnDecorator@@CA?AVDName@@XZ 000000018001c4a4 f i libvcruntime:undname.obj
 0001:0001b4e0       ?getDataType@UnDecorator@@CA?AVDName@@PEAV2@@Z 000000018001c4e0 f   libvcruntime:undname.obj
 0001:0001b5f4       ?getDecoratedName@UnDecorator@@CA?AVDName@@XZ 000000018001c5f4 f   libvcruntime:undname.obj
 0001:0001b8d8       ?getDimension@UnDecorator@@CA?AVDName@@_N@Z 000000018001c8d8 f   libvcruntime:undname.obj
 0001:0001ba20       ?getDispatchTarget@UnDecorator@@CA?AVDName@@XZ 000000018001ca20 f   libvcruntime:undname.obj
 0001:0001ba84       ?getDisplacement@UnDecorator@@CA?AVDName@@XZ 000000018001ca84 f i libvcruntime:undname.obj
 0001:0001baa0       ?getECSUDataType@UnDecorator@@CA?AVDName@@XZ 000000018001caa0 f   libvcruntime:undname.obj
 0001:0001bc98       ?getECSUName@UnDecorator@@CA?AVDName@@XZ 000000018001cc98 f i libvcruntime:undname.obj
 0001:0001bcb0       ?getEnumType@UnDecorator@@CA?AVDName@@XZ 000000018001ccb0 f i libvcruntime:undname.obj
 0001:0001bde0       ?getExtendedDataIndirectType@UnDecorator@@CA?AVDName@@AEAW4IndirectionKind@@AEA_NH@Z 000000018001cde0 f   libvcruntime:undname.obj
 0001:0001bfe8       ?getExternalDataType@UnDecorator@@CA?AVDName@@AEBV2@@Z 000000018001cfe8 f i libvcruntime:undname.obj
 0001:0001c0a8       ?getFloatingPoint@UnDecorator@@CA?AVDName@@H@Z 000000018001d0a8 f   libvcruntime:undname.obj
 0001:0001c1d0       ?getFunctionIndirectType@UnDecorator@@CA?AVDName@@AEBV2@@Z 000000018001d1d0 f   libvcruntime:undname.obj
 0001:0001c708       ?getGuardNumber@UnDecorator@@CA?AVDName@@XZ 000000018001d708 f i libvcruntime:undname.obj
 0001:0001c724       ?getLastChar@DName@@QEBADXZ 000000018001d724 f i libvcruntime:undname.obj
 0001:0001c740       ?getLastChar@DNameStatusNode@@UEBADXZ 000000018001d740 f i libvcruntime:undname.obj
 0001:0001c74c       ?getLastChar@charNode@@UEBADXZ 000000018001d74c f i libvcruntime:undname.obj
 0001:0001c750       ?getLastChar@pDNameNode@@UEBADXZ 000000018001d750 f i libvcruntime:undname.obj
 0001:0001c77c       ?getLastChar@pairNode@@UEBADXZ 000000018001d77c f i libvcruntime:undname.obj
 0001:0001c7b4       ?getLastChar@pcharNode@@UEBADXZ 000000018001d7b4 f i libvcruntime:undname.obj
 0001:0001c7c8       ?getLexicalFrame@UnDecorator@@CA?AVDName@@XZ 000000018001d7c8 f i libvcruntime:undname.obj
 0001:0001c82c       ?getMemberAccess@UnDecorator@@CA?AVDName@@XZ 000000018001d82c f   libvcruntime:undname.obj
 0001:0001c8c0       ?getMemoryWithBuffer@_HeapManager@@QEAAPEAX_K@Z 000000018001d8c0 f   libvcruntime:undname.obj
 0001:0001c950       ?getMemoryWithoutBuffer@_HeapManager@@QEAAPEAX_K@Z 000000018001d950 f   libvcruntime:undname.obj
 0001:0001c964       ?getNoexcept@UnDecorator@@CA?AVDName@@XZ 000000018001d964 f   libvcruntime:undname.obj
 0001:0001c9c8       ?getNumberOfDimensions@UnDecorator@@CAHXZ 000000018001d9c8 f   libvcruntime:undname.obj
 0001:0001ca28       ?getOperatorName@UnDecorator@@CA?AVDName@@_NPEA_N@Z 000000018001da28 f i libvcruntime:undname.obj
 0001:0001d3d8       ?getPointerToMember@UnDecorator@@CA?AVDName@@XZ 000000018001e3d8 f   libvcruntime:undname.obj
 0001:0001d4d0       ?getPointerType@UnDecorator@@CA?AVDName@@AEBV2@0@Z 000000018001e4d0 f i libvcruntime:undname.obj
 0001:0001d4f0       ?getPointerTypeArray@UnDecorator@@CA?AVDName@@AEBV2@0@Z 000000018001e4f0 f i libvcruntime:undname.obj
 0001:0001d50c       ?getPrimaryDataType@UnDecorator@@CA?AVDName@@AEBV2@@Z 000000018001e50c f   libvcruntime:undname.obj
 0001:0001d7c0       ?getPtrRefDataType@UnDecorator@@CA?AVDName@@AEBV2@H@Z 000000018001e7c0 f   libvcruntime:undname.obj
 0001:0001d98c       ?getPtrRefType@UnDecorator@@CA?AVDName@@AEBV2@0W4IndirectionKind@@@Z 000000018001e98c f   libvcruntime:undname.obj
 0001:0001db64       ?getReferenceType@UnDecorator@@CA?AVDName@@AEBV2@0W4IndirectionKind@@@Z 000000018001eb64 f i libvcruntime:undname.obj
 0001:0001db7c       ?getRestrictionSpec@UnDecorator@@CA?AVDName@@XZ 000000018001eb7c f   libvcruntime:undname.obj
 0001:0001dd48       ?getReturnType@UnDecorator@@CA?AVDName@@PEAV2@@Z 000000018001ed48 f   libvcruntime:undname.obj
 0001:0001dd7c       ?getScope@UnDecorator@@CA?AVDName@@XZ 000000018001ed7c f   libvcruntime:undname.obj
 0001:0001e230       ?getScopedName@UnDecorator@@CA?AVDName@@XZ 000000018001f230 f   libvcruntime:undname.obj
 0001:0001e36c       ?getSignedDimension@UnDecorator@@CA?AVDName@@XZ 000000018001f36c f   libvcruntime:undname.obj
 0001:0001e3f4       ?getStorageConvention@UnDecorator@@CA?AVDName@@XZ 000000018001f3f4 f i libvcruntime:undname.obj
 0001:0001e430       ?getString@DName@@QEBAPEADPEAD0@Z 000000018001f430 f i libvcruntime:undname.obj
 0001:0001e44c       ?getString@DName@@QEBAPEADPEADH@Z 000000018001f44c f i libvcruntime:undname.obj
 0001:0001e4e0       ?getString@DNameStatusNode@@UEBAPEADPEAD0@Z 000000018001f4e0 f i libvcruntime:undname.obj
 0001:0001e528       ?getString@charNode@@UEBAPEADPEAD0@Z 000000018001f528 f i libvcruntime:undname.obj
 0001:0001e53c       ?getString@pDNameNode@@UEBAPEADPEAD0@Z 000000018001f53c f i libvcruntime:undname.obj
 0001:0001e56c       ?getString@pairNode@@UEBAPEADPEAD0@Z 000000018001f56c f i libvcruntime:undname.obj
 0001:0001e5b8       ?getString@pcharNode@@UEBAPEADPEAD0@Z 000000018001f5b8 f i libvcruntime:undname.obj
 0001:0001e5f0       ?getStringEncoding@UnDecorator@@CA?AVDName@@W4PrefixKind@@H@Z 000000018001f5f0 f   libvcruntime:undname.obj
 0001:0001e6e8       ?getStringHelper@@YAPEADPEADPEBD1H@Z 000000018001f6e8 f i libvcruntime:undname.obj
 0001:0001e718       ?getStringObject@UnDecorator@@CA?AVDName@@XZ 000000018001f718 f   libvcruntime:undname.obj
 0001:0001e780       ?getSymbolName@UnDecorator@@CA?AVDName@@XZ 000000018001f780 f i libvcruntime:undname.obj
 0001:0001e7cc       ?getTemplateArgumentList@UnDecorator@@CA?AVDName@@XZ 000000018001f7cc f   libvcruntime:undname.obj
 0001:0001ea40       ?getTemplateName@UnDecorator@@CA?AVDName@@_N@Z 000000018001fa40 f   libvcruntime:undname.obj
 0001:0001ecd4       ?getTemplateNonTypeArgument@UnDecorator@@CA?AVDName@@XZ 000000018001fcd4 f   libvcruntime:undname.obj
 0001:0001f204       ?getTemplateTypeArgument@UnDecorator@@CA?AVDName@@XZ 0000000180020204 f   libvcruntime:undname.obj
 0001:0001f36c       ?getThisType@UnDecorator@@CA?AVDName@@XZ 000000018002036c f i libvcruntime:undname.obj
 0001:0001f3ac       ?getThrowTypes@UnDecorator@@CA?AVDName@@XZ 00000001800203ac f   libvcruntime:undname.obj
 0001:0001f3d0       ?getTypeEncoding@UnDecorator@@CAHXZ 00000001800203d0 f i libvcruntime:undname.obj
 0001:0001f784       ?getUndecoratedName@UnDecorator@@QEAAPEADPEADH@Z 0000000180020784 f i libvcruntime:undname.obj
 0001:0001f8d8       ?getUnionObject@UnDecorator@@CA?AVDName@@XZ 00000001800208d8 f   libvcruntime:undname.obj
 0001:0001f9b0       ?getVCallThunkType@UnDecorator@@CA?AVDName@@XZ 00000001800209b0 f i libvcruntime:undname.obj
 0001:0001fa28       ?getValue@UnDecorator@@CA?AV?$optional@_K@std@@XZ 0000000180020a28 f   libvcruntime:undname.obj
 0001:0001fa9c       ?getValueObject@UnDecorator@@CA?AVDName@@XZ 0000000180020a9c f   libvcruntime:undname.obj
 0001:0001fc00       ?getVbTableType@UnDecorator@@CA?AVDName@@AEBV2@@Z 0000000180020c00 f i libvcruntime:undname.obj
 0001:0001fc18       ?getVdispMapType@UnDecorator@@CA?AVDName@@AEBV2@@Z 0000000180020c18 f i libvcruntime:undname.obj
 0001:0001fc94       ?getVfTableType@UnDecorator@@CA?AVDName@@AEBV2@@Z 0000000180020c94 f i libvcruntime:undname.obj
 0001:0001fe9c       ?getZName@UnDecorator@@CA?AVDName@@_N0@Z 0000000180020e9c f   libvcruntime:undname.obj
 0001:00020178       ?get_current_character_and_increment_buffer@UnDecorator@@CADXZ 0000000180021178 f i libvcruntime:undname.obj
 0001:00020190       ?haveTemplateParameters@UnDecorator@@SAHXZ 0000000180021190 f i libvcruntime:undname.obj
 0001:0002019c       ?increment_buffer@UnDecorator@@CA_N_K@Z 000000018002119c f i libvcruntime:undname.obj
 0001:000201c8       ?increment_buffer_no_check@UnDecorator@@CAXXZ 00000001800211c8 f i libvcruntime:undname.obj
 0001:000201d0       ?increment_buffer_no_check@UnDecorator@@CAX_K@Z 00000001800211d0 f i libvcruntime:undname.obj
 0001:000201d8       ?isArray@DName@@QEBAHXZ    00000001800211d8 f i libvcruntime:undname.obj
 0001:000201e4       ?isComArray@DName@@QEBAHXZ 00000001800211e4 f i libvcruntime:undname.obj
 0001:000201f0       ?isEmpty@DName@@QEBAHXZ    00000001800211f0 f i libvcruntime:undname.obj
 0001:000201fc       ?isFull@Replicator@@QEBAHXZ 00000001800211fc f i libvcruntime:undname.obj
 0001:00020208       ?isNoTE@DName@@QEBAHXZ     0000000180021208 f i libvcruntime:undname.obj
 0001:00020214       ?isPinPtr@DName@@QEBAHXZ   0000000180021214 f i libvcruntime:undname.obj
 0001:00020220       ?isPtrRef@DName@@QEBAHXZ   0000000180021220 f i libvcruntime:undname.obj
 0001:0002022c       ?isUDC@DName@@QEBAHXZ      000000018002122c f i libvcruntime:undname.obj
 0001:00020244       ?isUDTThunk@DName@@QEBAHXZ 0000000180021244 f i libvcruntime:undname.obj
 0001:0002025c       ?isVCallThunk@DName@@QEBAHXZ 000000018002125c f i libvcruntime:undname.obj
 0001:00020268       ?isValid@DName@@QEBAHXZ    0000000180021268 f i libvcruntime:undname.obj
 0001:00020274       ?length@DName@@QEBAHXZ     0000000180021274 f i libvcruntime:undname.obj
 0001:0002028c       ?length@DNameStatusNode@@UEBAHXZ 000000018002128c f i libvcruntime:undname.obj
 0001:00020290       ?length@charNode@@UEBAHXZ  0000000180021290 f i libvcruntime:undname.obj
 0001:00020298       ?length@pDNameNode@@UEBAHXZ 0000000180021298 f i libvcruntime:undname.obj
 0001:000202c0       ?length@pairNode@@UEBAHXZ  00000001800212c0 f i libvcruntime:undname.obj
 0001:00020308       ?length@pcharNode@@UEBAHXZ 0000000180021308 f i libvcruntime:undname.obj
 0001:0002030c       ?make@DNameStatusNode@@SAPEBV1@W4DNameStatus@@@Z 000000018002130c f i libvcruntime:undname.obj
 0001:0002032c       ?parseDecoratedName@UnDecorator@@CA?AVDName@@XZ 000000018002132c f   libvcruntime:undname.obj
 0001:00020444       ?raw_length@DNameStatusNode@@UEBAHXZ 0000000180021444 f i libvcruntime:undname.obj
 0001:00020448       ?raw_length@charNode@@UEBAHXZ 0000000180021448 f i libvcruntime:undname.obj
 0001:00020450       ?raw_length@pDNameNode@@UEBAHXZ 0000000180021450 f i libvcruntime:undname.obj
 0001:00020454       ?raw_length@pairNode@@UEBAHXZ 0000000180021454 f i libvcruntime:undname.obj
 0001:00020458       ?raw_length@pcharNode@@UEBAHXZ 0000000180021458 f i libvcruntime:undname.obj
 0001:0002045c       ?setIsArray@DName@@QEAAXXZ 000000018002145c f i libvcruntime:undname.obj
 0001:00020464       ?setIsComArray@DName@@QEAAXXZ 0000000180021464 f i libvcruntime:undname.obj
 0001:0002046c       ?setIsNoTE@DName@@QEAAXXZ  000000018002146c f i libvcruntime:undname.obj
 0001:00020474       ?setIsPinPtr@DName@@QEAAXXZ 0000000180021474 f i libvcruntime:undname.obj
 0001:0002047c       ?setIsUDC@DName@@QEAAXXZ   000000018002147c f i libvcruntime:undname.obj
 0001:00020488       ?setIsVCallThunk@DName@@QEAAXXZ 0000000180021488 f i libvcruntime:undname.obj
 0001:00020490       ?setPtrRef@DName@@QEAAAEAV1@XZ 0000000180021490 f i libvcruntime:undname.obj
 0001:0002049c       ?status@DName@@QEBA?AW4DNameStatus@@XZ 000000018002149c f i libvcruntime:undname.obj
 0001:00020500       __unDName                  0000000180021500 f   libvcruntime:undname.obj
 0001:00020528       __unDNameEx                0000000180021528 f   libvcruntime:undname.obj
 0001:0002065c       _vsprintf_s_l              000000018002165c f i libvcruntime:undname.obj
 0001:000206c0       sprintf_s                  00000001800216c0 f i libvcruntime:undname.obj
 0001:00020714       unDNameGenerateCHPE        0000000180021714 f   libvcruntime:undname.obj
 0001:0002081c       ??$__crt_interlocked_exchange_pointer@UHINSTANCE__@@PEAU1@@@YAPEAUHINSTANCE__@@PEDSEAU0@QEAU0@@Z 000000018002181c f i libvcruntime:winapi_downlevel.obj
 0001:00020824       ??$__crt_interlocked_exchange_pointer@UHINSTANCE__@@PEAX@@YAPEAUHINSTANCE__@@PEDSEAU0@QEAX@Z 0000000180021824 f i libvcruntime:winapi_downlevel.obj
 0001:0002082c       ??$__crt_interlocked_exchange_pointer@XPEAX@@YAPEAXPEDSEAXQEAX@Z 000000018002182c f i libvcruntime:winapi_downlevel.obj
 0001:00020834       ??$__crt_interlocked_read_pointer@UHINSTANCE__@@@@YAPEAUHINSTANCE__@@PEDSEAU0@@Z 0000000180021834 f i libvcruntime:winapi_downlevel.obj
 0001:0002083c       ??$__crt_interlocked_read_pointer@X@@YAPEAXPEDSEAX@Z 000000018002183c f i libvcruntime:winapi_downlevel.obj
 0001:00020d7c       __vcrt_FlsAlloc            0000000180021d7c f   libvcruntime:winapi_downlevel.obj
 0001:00020dc4       __vcrt_FlsFree             0000000180021dc4 f   libvcruntime:winapi_downlevel.obj
 0001:00020e0c       __vcrt_FlsGetValue         0000000180021e0c f   libvcruntime:winapi_downlevel.obj
 0001:00020e54       __vcrt_FlsSetValue         0000000180021e54 f   libvcruntime:winapi_downlevel.obj
 0001:00020ea8       __vcrt_InitializeCriticalSectionEx 0000000180021ea8 f   libvcruntime:winapi_downlevel.obj
 0001:00020f20       _CallSettingFrame          0000000180021f20 f   libvcruntime:handlers.obj
 0001:00020f70       _CallSettingFrame_LookupContinuationIndex 0000000180021f70 f   libvcruntime:handlers.obj
 0001:00020fa0       _CallSettingFrame_NotifyContinuationAddr 0000000180021fa0 f   libvcruntime:handlers.obj
 0001:00020fd0       _CallSettingFrameEncoded   0000000180021fd0 f   libvcruntime:handlers.obj
 0001:00021018       ??$__crt_fast_decode_pointer@P6AXPEB_W00I_K@Z@@YAP6AXPEB_W00I_K@ZQ6AX000I1@Z@Z 0000000180022018 f i libucrt:invalid_parameter.obj
 0001:00021030       ??$__crt_fast_encode_pointer@P6AXPEB_W00I_K@Z@@YAP6AXPEB_W00I_K@ZQ6AX000I1@Z@Z 0000000180022030 f i libucrt:invalid_parameter.obj
 0001:00021050       ??$initialize_from_array@$$BY00Q6AXPEB_W00I_K@Z@?$dual_state_global@P6AXPEB_W00I_K@Z@__crt_state_management@@QEAAXAEAY00Q6AXPEB_W00I_K@Z@Z 0000000180022050 f i libucrt:invalid_parameter.obj
 0001:00021058       ??0?$cached@H@__crt_cached_ptd_host@@QEAA@XZ 0000000180022058 f i libucrt:invalid_parameter.obj
 0001:00021060       ??0?$cached@K@__crt_cached_ptd_host@@QEAA@XZ 0000000180022060 f i libucrt:invalid_parameter.obj
 0001:00021068       ??0__crt_cached_ptd_host@@QEAA@QEAU__crt_locale_pointers@@@Z 0000000180022068 f i libucrt:invalid_parameter.obj
 0001:000210a0       ??0__crt_scoped_get_last_error_reset@@QEAA@XZ 00000001800220a0 f i libucrt:invalid_parameter.obj
 0001:000210bc       ??1__crt_cached_ptd_host@@QEAA@XZ 00000001800220bc f i libucrt:invalid_parameter.obj
 0001:0002110c       ??1__crt_scoped_get_last_error_reset@@QEAA@XZ 000000018002210c f i libucrt:invalid_parameter.obj
 0001:00021118       ?__crt_rotate_pointer_value@@YA_K_KH@Z 0000000180022118 f i libucrt:invalid_parameter.obj
 0001:00021194       ?check_synchronize_global_state_index@__crt_cached_ptd_host@@AEAA_KAEBV__crt_scoped_get_last_error_reset@@@Z 0000000180022194 f i libucrt:invalid_parameter.obj
 0001:000211ac       ?check_synchronize_global_state_index@__crt_cached_ptd_host@@AEAA_KXZ 00000001800221ac f i libucrt:invalid_parameter.obj
 0001:000211e0       ?check_synchronize_per_thread_data@__crt_cached_ptd_host@@AEAAPEAU__acrt_ptd@@XZ 00000001800221e0 f i libucrt:invalid_parameter.obj
 0001:00021248       ?dangerous_get_state_array@?$dual_state_global@P6AXPEB_W00I_K@Z@__crt_state_management@@QEAAPEAP6AXPEB_W00I_K@ZXZ 0000000180022248 f i libucrt:invalid_parameter.obj
 0001:0002124c       ?force_synchronize_global_state_index@__crt_cached_ptd_host@@AEAA_KAEBV__crt_scoped_get_last_error_reset@@@Z 000000018002224c f i libucrt:invalid_parameter.obj
 0001:00021258       ?force_synchronize_per_thread_data@__crt_cached_ptd_host@@AEAAPEAU__acrt_ptd@@XZ 0000000180022258 f i libucrt:invalid_parameter.obj
 0001:000212ac       ?get_current_global_state_index@__crt_cached_ptd_host@@QEAA_KXZ 00000001800222ac f i libucrt:invalid_parameter.obj
 0001:000212ec       ?get_current_state_index@__crt_state_management@@YA_KAEBV__crt_scoped_get_last_error_reset@@@Z 00000001800222ec f i libucrt:invalid_parameter.obj
 0001:000212f0       ?get_current_state_index@__crt_state_management@@YA_KXZ 00000001800222f0 f i libucrt:invalid_parameter.obj
 0001:000212f4       ?get_raw_ptd@__crt_cached_ptd_host@@QEAAPEAU__acrt_ptd@@XZ 00000001800222f4 f i libucrt:invalid_parameter.obj
 0001:0002135c       ?get_raw_ptd_noexit@__crt_cached_ptd_host@@QEAAPEAU__acrt_ptd@@XZ 000000018002235c f i libucrt:invalid_parameter.obj
 0001:000213c8       ?try_synchronize_per_thread_data@__crt_cached_ptd_host@@AEAAPEAU__acrt_ptd@@XZ 00000001800223c8 f i libucrt:invalid_parameter.obj
 0001:0002142c       ?unsafe_value@?$cached@H@__crt_cached_ptd_host@@QEAAHXZ 000000018002242c f i libucrt:invalid_parameter.obj
 0001:00021430       ?unsafe_value@?$cached@K@__crt_cached_ptd_host@@QEAAKXZ 0000000180022430 f i libucrt:invalid_parameter.obj
 0001:00021434       ?valid@?$cached@H@__crt_cached_ptd_host@@QEBA_NXZ 0000000180022434 f i libucrt:invalid_parameter.obj
 0001:00021438       ?valid@?$cached@K@__crt_cached_ptd_host@@QEBA_NXZ 0000000180022438 f i libucrt:invalid_parameter.obj
 0001:0002143c       ?value@?$dual_state_global@P6AXPEB_W00I_K@Z@__crt_state_management@@QEAAAEAP6AXPEB_W00I_K@ZAEAV__crt_cached_ptd_host@@@Z 000000018002243c f i libucrt:invalid_parameter.obj
 0001:00021488       ?value@?$dual_state_global@P6AXPEB_W00I_K@Z@__crt_state_management@@QEAAAEAP6AXPEB_W00I_K@ZXZ 0000000180022488 f i libucrt:invalid_parameter.obj
 0001:0002148c       __acrt_call_reportfault    000000018002248c f   libucrt:invalid_parameter.obj
 0001:000215e8       __acrt_enable_global_locale_sync 00000001800225e8 f i libucrt:invalid_parameter.obj
 0001:000215f4       __acrt_initialize_invalid_parameter_handler 00000001800225f4 f   libucrt:invalid_parameter.obj
 0001:000215fc       __acrt_locale_changed      00000001800225fc f i libucrt:invalid_parameter.obj
 0001:00021608       _get_invalid_parameter_handler 0000000180022608 f   libucrt:invalid_parameter.obj
 0001:00021624       _get_thread_local_invalid_parameter_handler 0000000180022624 f   libucrt:invalid_parameter.obj
 0001:00021640       _invalid_parameter         0000000180022640 f   libucrt:invalid_parameter.obj
 0001:000216dc       _invalid_parameter_internal 00000001800226dc f   libucrt:invalid_parameter.obj
 0001:000217a8       _invalid_parameter_noinfo  00000001800227a8 f   libucrt:invalid_parameter.obj
 0001:000217c8       _invalid_parameter_noinfo_noreturn 00000001800227c8 f   libucrt:invalid_parameter.obj
 0001:000217f8       _invoke_watson             00000001800227f8 f   libucrt:invalid_parameter.obj
 0001:00021840       _set_invalid_parameter_handler 0000000180022840 f   libucrt:invalid_parameter.obj
 0001:00021874       _set_thread_local_invalid_parameter_handler 0000000180022874 f   libucrt:invalid_parameter.obj
 0001:0002189c       ?get_doserrno@__crt_cached_ptd_host@@QEAA@XZ 000000018002289c f i libucrt:errno.obj
 0001:000218a4       ?get_errno@__crt_cached_ptd_host@@QEAA@XZ 00000001800228a4 f i libucrt:errno.obj
 0001:000218ac       ?set@?$cached@H@__crt_cached_ptd_host@@QEAAHH@Z 00000001800228ac f i libucrt:errno.obj
 0001:000218b8       ?set@?$cached@K@__crt_cached_ptd_host@@QEAAKK@Z 00000001800228b8 f i libucrt:errno.obj
 0001:000218c4       __acrt_errno_from_os_error 00000001800228c4 f   libucrt:errno.obj
 0001:0002190c       __acrt_errno_map_os_error  000000018002290c f   libucrt:errno.obj
 0001:00021954       __acrt_errno_map_os_error_ptd 0000000180022954 f   libucrt:errno.obj
 0001:00021978       __doserrno                 0000000180022978 f   libucrt:errno.obj
 0001:00021998       _errno                     0000000180022998 f   libucrt:errno.obj
 0001:000219b8       _get_doserrno              00000001800229b8 f   libucrt:errno.obj
 0001:000219f4       _get_errno                 00000001800229f4 f   libucrt:errno.obj
 0001:00021a30       _set_doserrno              0000000180022a30 f   libucrt:errno.obj
 0001:00021a6c       _set_errno                 0000000180022a6c f   libucrt:errno.obj
 0001:00021b14       wcscpy_s                   0000000180022b14 f   libucrt:wcscpy_s.obj
 0001:00021c70       wcsncpy_s                  0000000180022c70 f   libucrt:wcsncpy_s.obj
 0001:00022620       ??1?$__crt_simd_cleanup_guard@$00@@QEAA@XZ 0000000180023620 f i libucrt:strnlen.obj
 0001:00022624       ??1?$__crt_simd_cleanup_guard@$0A@@@QEAA@XZ 0000000180023624 f i libucrt:strnlen.obj
 0001:00022628       ?compare_equals@?$__crt_simd_traits@$00E@@SA?AT__m256i@@T2@0@Z 0000000180023628 f i libucrt:strnlen.obj
 0001:00022634       ?compare_equals@?$__crt_simd_traits@$00G@@SA?AT__m256i@@T2@0@Z 0000000180023634 f i libucrt:strnlen.obj
 0001:00022640       ?compare_equals@?$__crt_simd_traits@$0A@E@@SA?AT__m128i@@T2@0@Z 0000000180023640 f i libucrt:strnlen.obj
 0001:0002264c       ?compare_equals@?$__crt_simd_traits@$0A@G@@SA?AT__m128i@@T2@0@Z 000000018002364c f i libucrt:strnlen.obj
 0001:00022658       ?compute_byte_mask@?$__crt_simd_pack_traits@$00@@SAHT__m256i@@@Z 0000000180023658 f i libucrt:strnlen.obj
 0001:00022664       ?compute_byte_mask@?$__crt_simd_pack_traits@$0A@@@SAHT__m128i@@@Z 0000000180023664 f i libucrt:strnlen.obj
 0001:00022670       ?get_zero_pack@?$__crt_simd_pack_traits@$00@@SA?AT__m256i@@XZ 0000000180023670 f i libucrt:strnlen.obj
 0001:00022678       ?get_zero_pack@?$__crt_simd_pack_traits@$0A@@@SA?AT__m128i@@XZ 0000000180023678 f i libucrt:strnlen.obj
 0001:0002267c       strnlen                    000000018002367c f   libucrt:strnlen.obj
 0001:000227cc       wcslen                     00000001800237cc f   libucrt:strnlen.obj
 0001:000228f8       wcsnlen                    00000001800238f8 f   libucrt:strnlen.obj
 0001:00022ad0       wcsncmp                    0000000180023ad0 f   libucrt:wcsncmp.obj
 0001:00022afc       ??$?0AEBV?$stream_output_adapter@D@__crt_stdio_output@@AEB_KAEBQEBDAEAV__crt_cached_ptd_host@@AEBQEAD@?$format_validation_base@DV?$stream_output_adapter@D@__crt_stdio_output@@@__crt_stdio_output@@IEAA@AEBV?$stream_output_adapter@D@1@AEB_KAEBQEBDAEAV__crt_cached_ptd_host@@AEBQEAD@Z 0000000180023afc f i libucrt:output.obj
 0001:00022b6c       ??$?0AEBV?$stream_output_adapter@D@__crt_stdio_output@@AEB_KAEBQEBDAEAV__crt_cached_ptd_host@@AEBQEAD@?$positional_parameter_base@DV?$stream_output_adapter@D@__crt_stdio_output@@@__crt_stdio_output@@IEAA@AEBV?$stream_output_adapter@D@1@AEB_KAEBQEBDAEAV__crt_cached_ptd_host@@AEBQEAD@Z 0000000180023b6c f i libucrt:output.obj
 0001:00022bfc       ??$?0AEBV?$stream_output_adapter@D@__crt_stdio_output@@AEB_KAEBQEBDAEAV__crt_cached_ptd_host@@AEBQEAD@?$standard_base@DV?$stream_output_adapter@D@__crt_stdio_output@@@__crt_stdio_output@@IEAA@AEBV?$stream_output_adapter@D@1@AEB_KAEBQEBDAEAV__crt_cached_ptd_host@@AEBQEAD@Z 0000000180023bfc f i libucrt:output.obj
 0001:00022c6c       ??$?0AEBV?$stream_output_adapter@_W@__crt_stdio_output@@AEB_KAEBQEB_WAEAV__crt_cached_ptd_host@@AEBQEAD@?$format_validation_base@_WV?$stream_output_adapter@_W@__crt_stdio_output@@@__crt_stdio_output@@IEAA@AEBV?$stream_output_adapter@_W@1@AEB_KAEBQEB_WAEAV__crt_cached_ptd_host@@AEBQEAD@Z 0000000180023c6c f i libucrt:output.obj
 0001:00022ce0       ??$?0AEBV?$stream_output_adapter@_W@__crt_stdio_output@@AEB_KAEBQEB_WAEAV__crt_cached_ptd_host@@AEBQEAD@?$positional_parameter_base@_WV?$stream_output_adapter@_W@__crt_stdio_output@@@__crt_stdio_output@@IEAA@AEBV?$stream_output_adapter@_W@1@AEB_KAEBQEB_WAEAV__crt_cached_ptd_host@@AEBQEAD@Z 0000000180023ce0 f i libucrt:output.obj
 0001:00022d74       ??$?0AEBV?$stream_output_adapter@_W@__crt_stdio_output@@AEB_KAEBQEB_WAEAV__crt_cached_ptd_host@@AEBQEAD@?$standard_base@_WV?$stream_output_adapter@_W@__crt_stdio_output@@@__crt_stdio_output@@IEAA@AEBV?$stream_output_adapter@_W@1@AEB_KAEBQEB_WAEAV__crt_cached_ptd_host@@AEBQEAD@Z 0000000180023d74 f i libucrt:output.obj
 0001:00022de8       ??$?0AEBV?$string_output_adapter@D@__crt_stdio_output@@AEB_KAEBQEBDAEAV__crt_cached_ptd_host@@AEBQEAD@?$format_validation_base@DV?$string_output_adapter@D@__crt_stdio_output@@@__crt_stdio_output@@IEAA@AEBV?$string_output_adapter@D@1@AEB_KAEBQEBDAEAV__crt_cached_ptd_host@@AEBQEAD@Z 0000000180023de8 f i libucrt:output.obj
 0001:00022e58       ??$?0AEBV?$string_output_adapter@D@__crt_stdio_output@@AEB_KAEBQEBDAEAV__crt_cached_ptd_host@@AEBQEAD@?$positional_parameter_base@DV?$string_output_adapter@D@__crt_stdio_output@@@__crt_stdio_output@@IEAA@AEBV?$string_output_adapter@D@1@AEB_KAEBQEBDAEAV__crt_cached_ptd_host@@AEBQEAD@Z 0000000180023e58 f i libucrt:output.obj
 0001:00022ee8       ??$?0AEBV?$string_output_adapter@D@__crt_stdio_output@@AEB_KAEBQEBDAEAV__crt_cached_ptd_host@@AEBQEAD@?$standard_base@DV?$string_output_adapter@D@__crt_stdio_output@@@__crt_stdio_output@@IEAA@AEBV?$string_output_adapter@D@1@AEB_KAEBQEBDAEAV__crt_cached_ptd_host@@AEBQEAD@Z 0000000180023ee8 f i libucrt:output.obj
 0001:00022f58       ??$?0AEBV?$string_output_adapter@_W@__crt_stdio_output@@AEB_KAEBQEB_WAEAV__crt_cached_ptd_host@@AEBQEAD@?$format_validation_base@_WV?$string_output_adapter@_W@__crt_stdio_output@@@__crt_stdio_output@@IEAA@AEBV?$string_output_adapter@_W@1@AEB_KAEBQEB_WAEAV__crt_cached_ptd_host@@AEBQEAD@Z 0000000180023f58 f i libucrt:output.obj
 0001:00022fcc       ??$?0AEBV?$string_output_adapter@_W@__crt_stdio_output@@AEB_KAEBQEB_WAEAV__crt_cached_ptd_host@@AEBQEAD@?$positional_parameter_base@_WV?$string_output_adapter@_W@__crt_stdio_output@@@__crt_stdio_output@@IEAA@AEBV?$string_output_adapter@_W@1@AEB_KAEBQEB_WAEAV__crt_cached_ptd_host@@AEBQEAD@Z 0000000180023fcc f i libucrt:output.obj
 0001:00023060       ??$?0AEBV?$string_output_adapter@_W@__crt_stdio_output@@AEB_KAEBQEB_WAEAV__crt_cached_ptd_host@@AEBQEAD@?$standard_base@_WV?$string_output_adapter@_W@__crt_stdio_output@@@__crt_stdio_output@@IEAA@AEBV?$string_output_adapter@_W@1@AEB_KAEBQEB_WAEAV__crt_cached_ptd_host@@AEBQEAD@Z 0000000180024060 f i libucrt:output.obj
 0001:00023344       ??$__crt_interlocked_read@J@@YAJPEDJ@Z 0000000180024344 f i libucrt:output.obj
 0001:00023348       ??$_tcstol_internal@DPEAPEAD$0A@@@YAJAEAV__crt_cached_ptd_host@@QEBDQEAPEADH@Z 0000000180024348 f i libucrt:output.obj
 0001:00023378       ??$_tcstol_internal@_WPEAPEA_W$0A@@@YAJAEAV__crt_cached_ptd_host@@QEB_WQEAPEA_WH@Z 0000000180024378 f i libucrt:output.obj
 0001:000244b8       ??$count@D@formatting_buffer@__crt_stdio_output@@QEBA_KXZ 00000001800254b8 f i libucrt:output.obj
 0001:000244d4       ??$count@_W@formatting_buffer@__crt_stdio_output@@QEBA_KXZ 00000001800254d4 f i libucrt:output.obj
 0001:000244f0       ??$data@D@formatting_buffer@__crt_stdio_output@@QEAAPEADXZ 00000001800254f0 f i libucrt:output.obj
 0001:00024500       ??$data@_W@formatting_buffer@__crt_stdio_output@@QEAAPEA_WXZ 0000000180025500 f i libucrt:output.obj
 0001:00024510       ??$ensure_buffer_is_big_enough@D@formatting_buffer@__crt_stdio_output@@QEAA_N_KAEAV__crt_cached_ptd_host@@@Z 0000000180025510 f i libucrt:output.obj
 0001:000245b8       ??$ensure_buffer_is_big_enough@_W@formatting_buffer@__crt_stdio_output@@QEAA_N_KAEAV__crt_cached_ptd_host@@@Z 00000001800255b8 f i libucrt:output.obj
 0001:00024664       ??$extract_argument_from_va_list@C_J@?$positional_parameter_base@DV?$stream_output_adapter@D@__crt_stdio_output@@@__crt_stdio_output@@IEAA_NAEA_J@Z 0000000180025664 f i libucrt:output.obj
 0001:00024770       ??$extract_argument_from_va_list@C_J@?$positional_parameter_base@DV?$string_output_adapter@D@__crt_stdio_output@@@__crt_stdio_output@@IEAA_NAEA_J@Z 0000000180025770 f i libucrt:output.obj
 0001:0002487c       ??$extract_argument_from_va_list@C_J@?$positional_parameter_base@_WV?$stream_output_adapter@_W@__crt_stdio_output@@@__crt_stdio_output@@IEAA_NAEA_J@Z 000000018002587c f i libucrt:output.obj
 0001:00024988       ??$extract_argument_from_va_list@C_J@?$positional_parameter_base@_WV?$string_output_adapter@_W@__crt_stdio_output@@@__crt_stdio_output@@IEAA_NAEA_J@Z 0000000180025988 f i libucrt:output.obj
 0001:00024a94       ??$extract_argument_from_va_list@C_J@?$standard_base@DV?$stream_output_adapter@D@__crt_stdio_output@@@__crt_stdio_output@@IEAA_NAEA_J@Z 0000000180025a94 f i libucrt:output.obj
 0001:00024aac       ??$extract_argument_from_va_list@C_J@?$standard_base@DV?$string_output_adapter@D@__crt_stdio_output@@@__crt_stdio_output@@IEAA_NAEA_J@Z 0000000180025aac f i libucrt:output.obj
 0001:00024ac4       ??$extract_argument_from_va_list@C_J@?$standard_base@_WV?$stream_output_adapter@_W@__crt_stdio_output@@@__crt_stdio_output@@IEAA_NAEA_J@Z 0000000180025ac4 f i libucrt:output.obj
 0001:00024adc       ??$extract_argument_from_va_list@C_J@?$standard_base@_WV?$string_output_adapter@_W@__crt_stdio_output@@@__crt_stdio_output@@IEAA_NAEA_J@Z 0000000180025adc f i libucrt:output.obj
 0001:00024af4       ??$extract_argument_from_va_list@E_J@?$positional_parameter_base@DV?$stream_output_adapter@D@__crt_stdio_output@@@__crt_stdio_output@@IEAA_NAEA_J@Z 0000000180025af4 f i libucrt:output.obj
 0001:00024bfc       ??$extract_argument_from_va_list@E_J@?$positional_parameter_base@DV?$string_output_adapter@D@__crt_stdio_output@@@__crt_stdio_output@@IEAA_NAEA_J@Z 0000000180025bfc f i libucrt:output.obj
 0001:00024d04       ??$extract_argument_from_va_list@E_J@?$positional_parameter_base@_WV?$stream_output_adapter@_W@__crt_stdio_output@@@__crt_stdio_output@@IEAA_NAEA_J@Z 0000000180025d04 f i libucrt:output.obj
 0001:00024e10       ??$extract_argument_from_va_list@E_J@?$positional_parameter_base@_WV?$string_output_adapter@_W@__crt_stdio_output@@@__crt_stdio_output@@IEAA_NAEA_J@Z 0000000180025e10 f i libucrt:output.obj
 0001:00024f1c       ??$extract_argument_from_va_list@E_J@?$standard_base@DV?$stream_output_adapter@D@__crt_stdio_output@@@__crt_stdio_output@@IEAA_NAEA_J@Z 0000000180025f1c f i libucrt:output.obj
 0001:00024f34       ??$extract_argument_from_va_list@E_J@?$standard_base@DV?$string_output_adapter@D@__crt_stdio_output@@@__crt_stdio_output@@IEAA_NAEA_J@Z 0000000180025f34 f i libucrt:output.obj
 0001:00024f4c       ??$extract_argument_from_va_list@E_J@?$standard_base@_WV?$stream_output_adapter@_W@__crt_stdio_output@@@__crt_stdio_output@@IEAA_NAEA_J@Z 0000000180025f4c f i libucrt:output.obj
 0001:00024f64       ??$extract_argument_from_va_list@E_J@?$standard_base@_WV?$string_output_adapter@_W@__crt_stdio_output@@@__crt_stdio_output@@IEAA_NAEA_J@Z 0000000180025f64 f i libucrt:output.obj
 0001:00024f7c       ??$extract_argument_from_va_list@F_J@?$positional_parameter_base@DV?$stream_output_adapter@D@__crt_stdio_output@@@__crt_stdio_output@@IEAA_NAEA_J@Z 0000000180025f7c f i libucrt:output.obj
 0001:00025088       ??$extract_argument_from_va_list@F_J@?$positional_parameter_base@DV?$string_output_adapter@D@__crt_stdio_output@@@__crt_stdio_output@@IEAA_NAEA_J@Z 0000000180026088 f i libucrt:output.obj
 0001:00025194       ??$extract_argument_from_va_list@F_J@?$positional_parameter_base@_WV?$stream_output_adapter@_W@__crt_stdio_output@@@__crt_stdio_output@@IEAA_NAEA_J@Z 0000000180026194 f i libucrt:output.obj
 0001:000252a0       ??$extract_argument_from_va_list@F_J@?$positional_parameter_base@_WV?$string_output_adapter@_W@__crt_stdio_output@@@__crt_stdio_output@@IEAA_NAEA_J@Z 00000001800262a0 f i libucrt:output.obj
 0001:000253ac       ??$extract_argument_from_va_list@F_J@?$standard_base@DV?$stream_output_adapter@D@__crt_stdio_output@@@__crt_stdio_output@@IEAA_NAEA_J@Z 00000001800263ac f i libucrt:output.obj
 0001:000253c4       ??$extract_argument_from_va_list@F_J@?$standard_base@DV?$string_output_adapter@D@__crt_stdio_output@@@__crt_stdio_output@@IEAA_NAEA_J@Z 00000001800263c4 f i libucrt:output.obj
 0001:000253dc       ??$extract_argument_from_va_list@F_J@?$standard_base@_WV?$stream_output_adapter@_W@__crt_stdio_output@@@__crt_stdio_output@@IEAA_NAEA_J@Z 00000001800263dc f i libucrt:output.obj
 0001:000253f4       ??$extract_argument_from_va_list@F_J@?$standard_base@_WV?$string_output_adapter@_W@__crt_stdio_output@@@__crt_stdio_output@@IEAA_NAEA_J@Z 00000001800263f4 f i libucrt:output.obj
 0001:0002540c       ??$extract_argument_from_va_list@GD@?$positional_parameter_base@DV?$stream_output_adapter@D@__crt_stdio_output@@@__crt_stdio_output@@IEAA_NAEAD@Z 000000018002640c f i libucrt:output.obj
 0001:00025510       ??$extract_argument_from_va_list@GD@?$positional_parameter_base@DV?$string_output_adapter@D@__crt_stdio_output@@@__crt_stdio_output@@IEAA_NAEAD@Z 0000000180026510 f i libucrt:output.obj
 0001:00025614       ??$extract_argument_from_va_list@GD@?$standard_base@DV?$stream_output_adapter@D@__crt_stdio_output@@@__crt_stdio_output@@IEAA_NAEAD@Z 0000000180026614 f i libucrt:output.obj
 0001:00025628       ??$extract_argument_from_va_list@GD@?$standard_base@DV?$string_output_adapter@D@__crt_stdio_output@@@__crt_stdio_output@@IEAA_NAEAD@Z 0000000180026628 f i libucrt:output.obj
 0001:0002563c       ??$extract_argument_from_va_list@G_J@?$positional_parameter_base@DV?$stream_output_adapter@D@__crt_stdio_output@@@__crt_stdio_output@@IEAA_NAEA_J@Z 000000018002663c f i libucrt:output.obj
 0001:00025744       ??$extract_argument_from_va_list@G_J@?$positional_parameter_base@DV?$string_output_adapter@D@__crt_stdio_output@@@__crt_stdio_output@@IEAA_NAEA_J@Z 0000000180026744 f i libucrt:output.obj
 0001:0002584c       ??$extract_argument_from_va_list@G_J@?$positional_parameter_base@_WV?$stream_output_adapter@_W@__crt_stdio_output@@@__crt_stdio_output@@IEAA_NAEA_J@Z 000000018002684c f i libucrt:output.obj
 0001:00025958       ??$extract_argument_from_va_list@G_J@?$positional_parameter_base@_WV?$string_output_adapter@_W@__crt_stdio_output@@@__crt_stdio_output@@IEAA_NAEA_J@Z 0000000180026958 f i libucrt:output.obj
 0001:00025a64       ??$extract_argument_from_va_list@G_J@?$standard_base@DV?$stream_output_adapter@D@__crt_stdio_output@@@__crt_stdio_output@@IEAA_NAEA_J@Z 0000000180026a64 f i libucrt:output.obj
 0001:00025a7c       ??$extract_argument_from_va_list@G_J@?$standard_base@DV?$string_output_adapter@D@__crt_stdio_output@@@__crt_stdio_output@@IEAA_NAEA_J@Z 0000000180026a7c f i libucrt:output.obj
 0001:00025a94       ??$extract_argument_from_va_list@G_J@?$standard_base@_WV?$stream_output_adapter@_W@__crt_stdio_output@@@__crt_stdio_output@@IEAA_NAEA_J@Z 0000000180026a94 f i libucrt:output.obj
 0001:00025aac       ??$extract_argument_from_va_list@G_J@?$standard_base@_WV?$string_output_adapter@_W@__crt_stdio_output@@@__crt_stdio_output@@IEAA_NAEA_J@Z 0000000180026aac f i libucrt:output.obj
 0001:00025ac4       ??$extract_argument_from_va_list@H_J@?$positional_parameter_base@DV?$stream_output_adapter@D@__crt_stdio_output@@@__crt_stdio_output@@IEAA_NAEA_J@Z 0000000180026ac4 f i libucrt:output.obj
 0001:00025bcc       ??$extract_argument_from_va_list@H_J@?$positional_parameter_base@DV?$string_output_adapter@D@__crt_stdio_output@@@__crt_stdio_output@@IEAA_NAEA_J@Z 0000000180026bcc f i libucrt:output.obj
 0001:00025cd4       ??$extract_argument_from_va_list@H_J@?$positional_parameter_base@_WV?$stream_output_adapter@_W@__crt_stdio_output@@@__crt_stdio_output@@IEAA_NAEA_J@Z 0000000180026cd4 f i libucrt:output.obj
 0001:00025de0       ??$extract_argument_from_va_list@H_J@?$positional_parameter_base@_WV?$string_output_adapter@_W@__crt_stdio_output@@@__crt_stdio_output@@IEAA_NAEA_J@Z 0000000180026de0 f i libucrt:output.obj
 0001:00025eec       ??$extract_argument_from_va_list@H_J@?$standard_base@DV?$stream_output_adapter@D@__crt_stdio_output@@@__crt_stdio_output@@IEAA_NAEA_J@Z 0000000180026eec f i libucrt:output.obj
 0001:00025f04       ??$extract_argument_from_va_list@H_J@?$standard_base@DV?$string_output_adapter@D@__crt_stdio_output@@@__crt_stdio_output@@IEAA_NAEA_J@Z 0000000180026f04 f i libucrt:output.obj
 0001:00025f1c       ??$extract_argument_from_va_list@H_J@?$standard_base@_WV?$stream_output_adapter@_W@__crt_stdio_output@@@__crt_stdio_output@@IEAA_NAEA_J@Z 0000000180026f1c f i libucrt:output.obj
 0001:00025f34       ??$extract_argument_from_va_list@H_J@?$standard_base@_WV?$string_output_adapter@_W@__crt_stdio_output@@@__crt_stdio_output@@IEAA_NAEA_J@Z 0000000180026f34 f i libucrt:output.obj
 0001:00025f4c       ??$extract_argument_from_va_list@I_J@?$positional_parameter_base@DV?$stream_output_adapter@D@__crt_stdio_output@@@__crt_stdio_output@@IEAA_NAEA_J@Z 0000000180026f4c f i libucrt:output.obj
 0001:00026054       ??$extract_argument_from_va_list@I_J@?$positional_parameter_base@DV?$string_output_adapter@D@__crt_stdio_output@@@__crt_stdio_output@@IEAA_NAEA_J@Z 0000000180027054 f i libucrt:output.obj
 0001:0002615c       ??$extract_argument_from_va_list@I_J@?$positional_parameter_base@_WV?$stream_output_adapter@_W@__crt_stdio_output@@@__crt_stdio_output@@IEAA_NAEA_J@Z 000000018002715c f i libucrt:output.obj
 0001:00026264       ??$extract_argument_from_va_list@I_J@?$positional_parameter_base@_WV?$string_output_adapter@_W@__crt_stdio_output@@@__crt_stdio_output@@IEAA_NAEA_J@Z 0000000180027264 f i libucrt:output.obj
 0001:0002636c       ??$extract_argument_from_va_list@I_J@?$standard_base@DV?$stream_output_adapter@D@__crt_stdio_output@@@__crt_stdio_output@@IEAA_NAEA_J@Z 000000018002736c f i libucrt:output.obj
 0001:00026384       ??$extract_argument_from_va_list@I_J@?$standard_base@DV?$string_output_adapter@D@__crt_stdio_output@@@__crt_stdio_output@@IEAA_NAEA_J@Z 0000000180027384 f i libucrt:output.obj
 0001:0002639c       ??$extract_argument_from_va_list@I_J@?$standard_base@_WV?$stream_output_adapter@_W@__crt_stdio_output@@@__crt_stdio_output@@IEAA_NAEA_J@Z 000000018002739c f i libucrt:output.obj
 0001:000263b4       ??$extract_argument_from_va_list@I_J@?$standard_base@_WV?$string_output_adapter@_W@__crt_stdio_output@@@__crt_stdio_output@@IEAA_NAEA_J@Z 00000001800273b4 f i libucrt:output.obj
 0001:000263cc       ??$extract_argument_from_va_list@PEADPEAD@?$positional_parameter_base@DV?$stream_output_adapter@D@__crt_stdio_output@@@__crt_stdio_output@@IEAA_NAEAPEAD@Z 00000001800273cc f i libucrt:output.obj
 0001:000264d4       ??$extract_argument_from_va_list@PEADPEAD@?$positional_parameter_base@DV?$string_output_adapter@D@__crt_stdio_output@@@__crt_stdio_output@@IEAA_NAEAPEAD@Z 00000001800274d4 f i libucrt:output.obj
 0001:000265dc       ??$extract_argument_from_va_list@PEADPEAD@?$positional_parameter_base@_WV?$stream_output_adapter@_W@__crt_stdio_output@@@__crt_stdio_output@@IEAA_NAEAPEAD@Z 00000001800275dc f i libucrt:output.obj
 0001:000266e8       ??$extract_argument_from_va_list@PEADPEAD@?$positional_parameter_base@_WV?$string_output_adapter@_W@__crt_stdio_output@@@__crt_stdio_output@@IEAA_NAEAPEAD@Z 00000001800276e8 f i libucrt:output.obj
 0001:000267f4       ??$extract_argument_from_va_list@PEADPEAD@?$standard_base@DV?$stream_output_adapter@D@__crt_stdio_output@@@__crt_stdio_output@@IEAA_NAEAPEAD@Z 00000001800277f4 f i libucrt:output.obj
 0001:0002680c       ??$extract_argument_from_va_list@PEADPEAD@?$standard_base@DV?$string_output_adapter@D@__crt_stdio_output@@@__crt_stdio_output@@IEAA_NAEAPEAD@Z 000000018002780c f i libucrt:output.obj
 0001:00026824       ??$extract_argument_from_va_list@PEADPEAD@?$standard_base@_WV?$stream_output_adapter@_W@__crt_stdio_output@@@__crt_stdio_output@@IEAA_NAEAPEAD@Z 0000000180027824 f i libucrt:output.obj
 0001:0002683c       ??$extract_argument_from_va_list@PEADPEAD@?$standard_base@_WV?$string_output_adapter@_W@__crt_stdio_output@@@__crt_stdio_output@@IEAA_NAEAPEAD@Z 000000018002783c f i libucrt:output.obj
 0001:00026854       ??$extract_argument_from_va_list@PEAUansi_string@?1??type_case_Z@?$output_processor@DV?$stream_output_adapter@D@__crt_stdio_output@@V?$format_validation_base@DV?$stream_output_adapter@D@__crt_stdio_output@@@2@@__crt_stdio_output@@AEAA_NXZ@PEAU1?1??234@AEAA_NXZ@@?$standard_base@DV?$stream_output_adapter@D@__crt_stdio_output@@@__crt_stdio_output@@IEAA_NAEAPEAUansi_string@?1??type_case_Z@?$output_processor@DV?$stream_output_adapter@D@__crt_stdio_output@@V?$format_validation_base@DV?$stream_output_adapter@D@__crt_stdio_output@@@2@@1@AEAA_NXZ@@Z 0000000180027854 f i libucrt:output.obj
 0001:0002686c       ??$extract_argument_from_va_list@PEAUansi_string@?1??type_case_Z@?$output_processor@DV?$stream_output_adapter@D@__crt_stdio_output@@V?$positional_parameter_base@DV?$stream_output_adapter@D@__crt_stdio_output@@@2@@__crt_stdio_output@@AEAA_NXZ@PEAU1?1??234@AEAA_NXZ@@?$positional_parameter_base@DV?$stream_output_adapter@D@__crt_stdio_output@@@__crt_stdio_output@@IEAA_NAEAPEAUansi_string@?1??type_case_Z@?$output_processor@DV?$stream_output_adapter@D@__crt_stdio_output@@V?$positional_parameter_base@DV?$stream_output_adapter@D@__crt_stdio_output@@@2@@1@AEAA_NXZ@@Z 000000018002786c f i libucrt:output.obj
 0001:00026974       ??$extract_argument_from_va_list@PEAUansi_string@?1??type_case_Z@?$output_processor@DV?$stream_output_adapter@D@__crt_stdio_output@@V?$positional_parameter_base@DV?$stream_output_adapter@D@__crt_stdio_output@@@2@@__crt_stdio_output@@AEAA_NXZ@PEAU1?1??234@AEAA_NXZ@@?$standard_base@DV?$stream_output_adapter@D@__crt_stdio_output@@@__crt_stdio_output@@IEAA_NAEAPEAUansi_string@?1??type_case_Z@?$output_processor@DV?$stream_output_adapter@D@__crt_stdio_output@@V?$positional_parameter_base@DV?$stream_output_adapter@D@__crt_stdio_output@@@2@@1@AEAA_NXZ@@Z 0000000180027974 f i libucrt:output.obj
 0001:0002698c       ??$extract_argument_from_va_list@PEAUansi_string@?1??type_case_Z@?$output_processor@DV?$stream_output_adapter@D@__crt_stdio_output@@V?$standard_base@DV?$stream_output_adapter@D@__crt_stdio_output@@@2@@__crt_stdio_output@@AEAA_NXZ@PEAU1?1??234@AEAA_NXZ@@?$standard_base@DV?$stream_output_adapter@D@__crt_stdio_output@@@__crt_stdio_output@@IEAA_NAEAPEAUansi_string@?1??type_case_Z@?$output_processor@DV?$stream_output_adapter@D@__crt_stdio_output@@V?$standard_base@DV?$stream_output_adapter@D@__crt_stdio_output@@@2@@1@AEAA_NXZ@@Z 000000018002798c f i libucrt:output.obj
 0001:000269a4       ??$extract_argument_from_va_list@PEAUansi_string@?1??type_case_Z@?$output_processor@DV?$string_output_adapter@D@__crt_stdio_output@@V?$format_validation_base@DV?$string_output_adapter@D@__crt_stdio_output@@@2@@__crt_stdio_output@@AEAA_NXZ@PEAU1?1??234@AEAA_NXZ@@?$standard_base@DV?$string_output_adapter@D@__crt_stdio_output@@@__crt_stdio_output@@IEAA_NAEAPEAUansi_string@?1??type_case_Z@?$output_processor@DV?$string_output_adapter@D@__crt_stdio_output@@V?$format_validation_base@DV?$string_output_adapter@D@__crt_stdio_output@@@2@@1@AEAA_NXZ@@Z 00000001800279a4 f i libucrt:output.obj
 0001:000269bc       ??$extract_argument_from_va_list@PEAUansi_string@?1??type_case_Z@?$output_processor@DV?$string_output_adapter@D@__crt_stdio_output@@V?$positional_parameter_base@DV?$string_output_adapter@D@__crt_stdio_output@@@2@@__crt_stdio_output@@AEAA_NXZ@PEAU1?1??234@AEAA_NXZ@@?$positional_parameter_base@DV?$string_output_adapter@D@__crt_stdio_output@@@__crt_stdio_output@@IEAA_NAEAPEAUansi_string@?1??type_case_Z@?$output_processor@DV?$string_output_adapter@D@__crt_stdio_output@@V?$positional_parameter_base@DV?$string_output_adapter@D@__crt_stdio_output@@@2@@1@AEAA_NXZ@@Z 00000001800279bc f i libucrt:output.obj
 0001:00026ac4       ??$extract_argument_from_va_list@PEAUansi_string@?1??type_case_Z@?$output_processor@DV?$string_output_adapter@D@__crt_stdio_output@@V?$positional_parameter_base@DV?$string_output_adapter@D@__crt_stdio_output@@@2@@__crt_stdio_output@@AEAA_NXZ@PEAU1?1??234@AEAA_NXZ@@?$standard_base@DV?$string_output_adapter@D@__crt_stdio_output@@@__crt_stdio_output@@IEAA_NAEAPEAUansi_string@?1??type_case_Z@?$output_processor@DV?$string_output_adapter@D@__crt_stdio_output@@V?$positional_parameter_base@DV?$string_output_adapter@D@__crt_stdio_output@@@2@@1@AEAA_NXZ@@Z 0000000180027ac4 f i libucrt:output.obj
 0001:00026adc       ??$extract_argument_from_va_list@PEAUansi_string@?1??type_case_Z@?$output_processor@DV?$string_output_adapter@D@__crt_stdio_output@@V?$standard_base@DV?$string_output_adapter@D@__crt_stdio_output@@@2@@__crt_stdio_output@@AEAA_NXZ@PEAU1?1??234@AEAA_NXZ@@?$standard_base@DV?$string_output_adapter@D@__crt_stdio_output@@@__crt_stdio_output@@IEAA_NAEAPEAUansi_string@?1??type_case_Z@?$output_processor@DV?$string_output_adapter@D@__crt_stdio_output@@V?$standard_base@DV?$string_output_adapter@D@__crt_stdio_output@@@2@@1@AEAA_NXZ@@Z 0000000180027adc f i libucrt:output.obj
 0001:00026af4       ??$extract_argument_from_va_list@PEAUansi_string@?1??type_case_Z@?$output_processor@_WV?$stream_output_adapter@_W@__crt_stdio_output@@V?$format_validation_base@_WV?$stream_output_adapter@_W@__crt_stdio_output@@@2@@__crt_stdio_output@@AEAA_NXZ@PEAU1?1??234@AEAA_NXZ@@?$standard_base@_WV?$stream_output_adapter@_W@__crt_stdio_output@@@__crt_stdio_output@@IEAA_NAEAPEAUansi_string@?1??type_case_Z@?$output_processor@_WV?$stream_output_adapter@_W@__crt_stdio_output@@V?$format_validation_base@_WV?$stream_output_adapter@_W@__crt_stdio_output@@@2@@1@AEAA_NXZ@@Z 0000000180027af4 f i libucrt:output.obj
 0001:00026b0c       ??$extract_argument_from_va_list@PEAUansi_string@?1??type_case_Z@?$output_processor@_WV?$stream_output_adapter@_W@__crt_stdio_output@@V?$positional_parameter_base@_WV?$stream_output_adapter@_W@__crt_stdio_output@@@2@@__crt_stdio_output@@AEAA_NXZ@PEAU1?1??234@AEAA_NXZ@@?$positional_parameter_base@_WV?$stream_output_adapter@_W@__crt_stdio_output@@@__crt_stdio_output@@IEAA_NAEAPEAUansi_string@?1??type_case_Z@?$output_processor@_WV?$stream_output_adapter@_W@__crt_stdio_output@@V?$positional_parameter_base@_WV?$stream_output_adapter@_W@__crt_stdio_output@@@2@@1@AEAA_NXZ@@Z 0000000180027b0c f i libucrt:output.obj
 0001:00026c18       ??$extract_argument_from_va_list@PEAUansi_string@?1??type_case_Z@?$output_processor@_WV?$stream_output_adapter@_W@__crt_stdio_output@@V?$positional_parameter_base@_WV?$stream_output_adapter@_W@__crt_stdio_output@@@2@@__crt_stdio_output@@AEAA_NXZ@PEAU1?1??234@AEAA_NXZ@@?$standard_base@_WV?$stream_output_adapter@_W@__crt_stdio_output@@@__crt_stdio_output@@IEAA_NAEAPEAUansi_string@?1??type_case_Z@?$output_processor@_WV?$stream_output_adapter@_W@__crt_stdio_output@@V?$positional_parameter_base@_WV?$stream_output_adapter@_W@__crt_stdio_output@@@2@@1@AEAA_NXZ@@Z 0000000180027c18 f i libucrt:output.obj
 0001:00026c30       ??$extract_argument_from_va_list@PEAUansi_string@?1??type_case_Z@?$output_processor@_WV?$stream_output_adapter@_W@__crt_stdio_output@@V?$standard_base@_WV?$stream_output_adapter@_W@__crt_stdio_output@@@2@@__crt_stdio_output@@AEAA_NXZ@PEAU1?1??234@AEAA_NXZ@@?$standard_base@_WV?$stream_output_adapter@_W@__crt_stdio_output@@@__crt_stdio_output@@IEAA_NAEAPEAUansi_string@?1??type_case_Z@?$output_processor@_WV?$stream_output_adapter@_W@__crt_stdio_output@@V?$standard_base@_WV?$stream_output_adapter@_W@__crt_stdio_output@@@2@@1@AEAA_NXZ@@Z 0000000180027c30 f i libucrt:output.obj
 0001:00026c48       ??$extract_argument_from_va_list@PEAUansi_string@?1??type_case_Z@?$output_processor@_WV?$string_output_adapter@_W@__crt_stdio_output@@V?$format_validation_base@_WV?$string_output_adapter@_W@__crt_stdio_output@@@2@@__crt_stdio_output@@AEAA_NXZ@PEAU1?1??234@AEAA_NXZ@@?$standard_base@_WV?$string_output_adapter@_W@__crt_stdio_output@@@__crt_stdio_output@@IEAA_NAEAPEAUansi_string@?1??type_case_Z@?$output_processor@_WV?$string_output_adapter@_W@__crt_stdio_output@@V?$format_validation_base@_WV?$string_output_adapter@_W@__crt_stdio_output@@@2@@1@AEAA_NXZ@@Z 0000000180027c48 f i libucrt:output.obj
 0001:00026c60       ??$extract_argument_from_va_list@PEAUansi_string@?1??type_case_Z@?$output_processor@_WV?$string_output_adapter@_W@__crt_stdio_output@@V?$positional_parameter_base@_WV?$string_output_adapter@_W@__crt_stdio_output@@@2@@__crt_stdio_output@@AEAA_NXZ@PEAU1?1??234@AEAA_NXZ@@?$positional_parameter_base@_WV?$string_output_adapter@_W@__crt_stdio_output@@@__crt_stdio_output@@IEAA_NAEAPEAUansi_string@?1??type_case_Z@?$output_processor@_WV?$string_output_adapter@_W@__crt_stdio_output@@V?$positional_parameter_base@_WV?$string_output_adapter@_W@__crt_stdio_output@@@2@@1@AEAA_NXZ@@Z 0000000180027c60 f i libucrt:output.obj
 0001:00026d6c       ??$extract_argument_from_va_list@PEAUansi_string@?1??type_case_Z@?$output_processor@_WV?$string_output_adapter@_W@__crt_stdio_output@@V?$positional_parameter_base@_WV?$string_output_adapter@_W@__crt_stdio_output@@@2@@__crt_stdio_output@@AEAA_NXZ@PEAU1?1??234@AEAA_NXZ@@?$standard_base@_WV?$string_output_adapter@_W@__crt_stdio_output@@@__crt_stdio_output@@IEAA_NAEAPEAUansi_string@?1??type_case_Z@?$output_processor@_WV?$string_output_adapter@_W@__crt_stdio_output@@V?$positional_parameter_base@_WV?$string_output_adapter@_W@__crt_stdio_output@@@2@@1@AEAA_NXZ@@Z 0000000180027d6c f i libucrt:output.obj
 0001:00026d84       ??$extract_argument_from_va_list@PEAUansi_string@?1??type_case_Z@?$output_processor@_WV?$string_output_adapter@_W@__crt_stdio_output@@V?$standard_base@_WV?$string_output_adapter@_W@__crt_stdio_output@@@2@@__crt_stdio_output@@AEAA_NXZ@PEAU1?1??234@AEAA_NXZ@@?$standard_base@_WV?$string_output_adapter@_W@__crt_stdio_output@@@__crt_stdio_output@@IEAA_NAEAPEAUansi_string@?1??type_case_Z@?$output_processor@_WV?$string_output_adapter@_W@__crt_stdio_output@@V?$standard_base@_WV?$string_output_adapter@_W@__crt_stdio_output@@@2@@1@AEAA_NXZ@@Z 0000000180027d84 f i libucrt:output.obj
 0001:00026d9c       ??$extract_argument_from_va_list@PEAXPEAX@?$positional_parameter_base@DV?$stream_output_adapter@D@__crt_stdio_output@@@__crt_stdio_output@@IEAA_NAEAPEAX@Z 0000000180027d9c f i libucrt:output.obj
 0001:00026ea4       ??$extract_argument_from_va_list@PEAXPEAX@?$positional_parameter_base@DV?$string_output_adapter@D@__crt_stdio_output@@@__crt_stdio_output@@IEAA_NAEAPEAX@Z 0000000180027ea4 f i libucrt:output.obj
 0001:00026fac       ??$extract_argument_from_va_list@PEAXPEAX@?$positional_parameter_base@_WV?$stream_output_adapter@_W@__crt_stdio_output@@@__crt_stdio_output@@IEAA_NAEAPEAX@Z 0000000180027fac f i libucrt:output.obj
 0001:000270b8       ??$extract_argument_from_va_list@PEAXPEAX@?$positional_parameter_base@_WV?$string_output_adapter@_W@__crt_stdio_output@@@__crt_stdio_output@@IEAA_NAEAPEAX@Z 00000001800280b8 f i libucrt:output.obj
 0001:000271c4       ??$extract_argument_from_va_list@PEAXPEAX@?$standard_base@DV?$stream_output_adapter@D@__crt_stdio_output@@@__crt_stdio_output@@IEAA_NAEAPEAX@Z 00000001800281c4 f i libucrt:output.obj
 0001:000271dc       ??$extract_argument_from_va_list@PEAXPEAX@?$standard_base@DV?$string_output_adapter@D@__crt_stdio_output@@@__crt_stdio_output@@IEAA_NAEAPEAX@Z 00000001800281dc f i libucrt:output.obj
 0001:000271f4       ??$extract_argument_from_va_list@PEAXPEAX@?$standard_base@_WV?$stream_output_adapter@_W@__crt_stdio_output@@@__crt_stdio_output@@IEAA_NAEAPEAX@Z 00000001800281f4 f i libucrt:output.obj
 0001:0002720c       ??$extract_argument_from_va_list@PEAXPEAX@?$standard_base@_WV?$string_output_adapter@_W@__crt_stdio_output@@@__crt_stdio_output@@IEAA_NAEAPEAX@Z 000000018002820c f i libucrt:output.obj
 0001:00027224       ??$extract_argument_from_va_list@U_CRT_DOUBLE@@U1@@?$positional_parameter_base@DV?$stream_output_adapter@D@__crt_stdio_output@@@__crt_stdio_output@@IEAA_NAEAU_CRT_DOUBLE@@@Z 0000000180028224 f i libucrt:output.obj
 0001:0002732c       ??$extract_argument_from_va_list@U_CRT_DOUBLE@@U1@@?$positional_parameter_base@DV?$string_output_adapter@D@__crt_stdio_output@@@__crt_stdio_output@@IEAA_NAEAU_CRT_DOUBLE@@@Z 000000018002832c f i libucrt:output.obj
 0001:00027434       ??$extract_argument_from_va_list@U_CRT_DOUBLE@@U1@@?$positional_parameter_base@_WV?$stream_output_adapter@_W@__crt_stdio_output@@@__crt_stdio_output@@IEAA_NAEAU_CRT_DOUBLE@@@Z 0000000180028434 f i libucrt:output.obj
 0001:00027540       ??$extract_argument_from_va_list@U_CRT_DOUBLE@@U1@@?$positional_parameter_base@_WV?$string_output_adapter@_W@__crt_stdio_output@@@__crt_stdio_output@@IEAA_NAEAU_CRT_DOUBLE@@@Z 0000000180028540 f i libucrt:output.obj
 0001:0002764c       ??$extract_argument_from_va_list@U_CRT_DOUBLE@@U1@@?$standard_base@DV?$stream_output_adapter@D@__crt_stdio_output@@@__crt_stdio_output@@IEAA_NAEAU_CRT_DOUBLE@@@Z 000000018002864c f i libucrt:output.obj
 0001:00027664       ??$extract_argument_from_va_list@U_CRT_DOUBLE@@U1@@?$standard_base@DV?$string_output_adapter@D@__crt_stdio_output@@@__crt_stdio_output@@IEAA_NAEAU_CRT_DOUBLE@@@Z 0000000180028664 f i libucrt:output.obj
 0001:0002767c       ??$extract_argument_from_va_list@U_CRT_DOUBLE@@U1@@?$standard_base@_WV?$stream_output_adapter@_W@__crt_stdio_output@@@__crt_stdio_output@@IEAA_NAEAU_CRT_DOUBLE@@@Z 000000018002867c f i libucrt:output.obj
 0001:00027694       ??$extract_argument_from_va_list@U_CRT_DOUBLE@@U1@@?$standard_base@_WV?$string_output_adapter@_W@__crt_stdio_output@@@__crt_stdio_output@@IEAA_NAEAU_CRT_DOUBLE@@@Z 0000000180028694 f i libucrt:output.obj
 0001:000276ac       ??$extract_argument_from_va_list@_J_J@?$positional_parameter_base@DV?$stream_output_adapter@D@__crt_stdio_output@@@__crt_stdio_output@@IEAA_NAEA_J@Z 00000001800286ac f i libucrt:output.obj
 0001:000277b4       ??$extract_argument_from_va_list@_J_J@?$positional_parameter_base@DV?$string_output_adapter@D@__crt_stdio_output@@@__crt_stdio_output@@IEAA_NAEA_J@Z 00000001800287b4 f i libucrt:output.obj
 0001:000278bc       ??$extract_argument_from_va_list@_J_J@?$positional_parameter_base@_WV?$stream_output_adapter@_W@__crt_stdio_output@@@__crt_stdio_output@@IEAA_NAEA_J@Z 00000001800288bc f i libucrt:output.obj
 0001:000279c8       ??$extract_argument_from_va_list@_J_J@?$positional_parameter_base@_WV?$string_output_adapter@_W@__crt_stdio_output@@@__crt_stdio_output@@IEAA_NAEA_J@Z 00000001800289c8 f i libucrt:output.obj
 0001:00027ad4       ??$extract_argument_from_va_list@_J_J@?$standard_base@DV?$stream_output_adapter@D@__crt_stdio_output@@@__crt_stdio_output@@IEAA_NAEA_J@Z 0000000180028ad4 f i libucrt:output.obj
 0001:00027aec       ??$extract_argument_from_va_list@_J_J@?$standard_base@DV?$string_output_adapter@D@__crt_stdio_output@@@__crt_stdio_output@@IEAA_NAEA_J@Z 0000000180028aec f i libucrt:output.obj
 0001:00027b04       ??$extract_argument_from_va_list@_J_J@?$standard_base@_WV?$stream_output_adapter@_W@__crt_stdio_output@@@__crt_stdio_output@@IEAA_NAEA_J@Z 0000000180028b04 f i libucrt:output.obj
 0001:00027b1c       ??$extract_argument_from_va_list@_J_J@?$standard_base@_WV?$string_output_adapter@_W@__crt_stdio_output@@@__crt_stdio_output@@IEAA_NAEA_J@Z 0000000180028b1c f i libucrt:output.obj
 0001:00027b34       ??$extract_argument_from_va_list@_K_J@?$positional_parameter_base@DV?$stream_output_adapter@D@__crt_stdio_output@@@__crt_stdio_output@@IEAA_NAEA_J@Z 0000000180028b34 f i libucrt:output.obj
 0001:00027c3c       ??$extract_argument_from_va_list@_K_J@?$positional_parameter_base@DV?$string_output_adapter@D@__crt_stdio_output@@@__crt_stdio_output@@IEAA_NAEA_J@Z 0000000180028c3c f i libucrt:output.obj
 0001:00027d44       ??$extract_argument_from_va_list@_K_J@?$positional_parameter_base@_WV?$stream_output_adapter@_W@__crt_stdio_output@@@__crt_stdio_output@@IEAA_NAEA_J@Z 0000000180028d44 f i libucrt:output.obj
 0001:00027e50       ??$extract_argument_from_va_list@_K_J@?$positional_parameter_base@_WV?$string_output_adapter@_W@__crt_stdio_output@@@__crt_stdio_output@@IEAA_NAEA_J@Z 0000000180028e50 f i libucrt:output.obj
 0001:00027f5c       ??$extract_argument_from_va_list@_K_J@?$standard_base@DV?$stream_output_adapter@D@__crt_stdio_output@@@__crt_stdio_output@@IEAA_NAEA_J@Z 0000000180028f5c f i libucrt:output.obj
 0001:00027f74       ??$extract_argument_from_va_list@_K_J@?$standard_base@DV?$string_output_adapter@D@__crt_stdio_output@@@__crt_stdio_output@@IEAA_NAEA_J@Z 0000000180028f74 f i libucrt:output.obj
 0001:00027f8c       ??$extract_argument_from_va_list@_K_J@?$standard_base@_WV?$stream_output_adapter@_W@__crt_stdio_output@@@__crt_stdio_output@@IEAA_NAEA_J@Z 0000000180028f8c f i libucrt:output.obj
 0001:00027fa4       ??$extract_argument_from_va_list@_K_J@?$standard_base@_WV?$string_output_adapter@_W@__crt_stdio_output@@@__crt_stdio_output@@IEAA_NAEA_J@Z 0000000180028fa4 f i libucrt:output.obj
 0001:00027fbc       ??$extract_argument_from_va_list@_W_W@?$positional_parameter_base@DV?$stream_output_adapter@D@__crt_stdio_output@@@__crt_stdio_output@@IEAA_NAEA_W@Z 0000000180028fbc f i libucrt:output.obj
 0001:000280c4       ??$extract_argument_from_va_list@_W_W@?$positional_parameter_base@DV?$string_output_adapter@D@__crt_stdio_output@@@__crt_stdio_output@@IEAA_NAEA_W@Z 00000001800290c4 f i libucrt:output.obj
 0001:000281cc       ??$extract_argument_from_va_list@_W_W@?$positional_parameter_base@_WV?$stream_output_adapter@_W@__crt_stdio_output@@@__crt_stdio_output@@IEAA_NAEA_W@Z 00000001800291cc f i libucrt:output.obj
 0001:000282d8       ??$extract_argument_from_va_list@_W_W@?$positional_parameter_base@_WV?$string_output_adapter@_W@__crt_stdio_output@@@__crt_stdio_output@@IEAA_NAEA_W@Z 00000001800292d8 f i libucrt:output.obj
 0001:000283e4       ??$extract_argument_from_va_list@_W_W@?$standard_base@DV?$stream_output_adapter@D@__crt_stdio_output@@@__crt_stdio_output@@IEAA_NAEA_W@Z 00000001800293e4 f i libucrt:output.obj
 0001:000283fc       ??$extract_argument_from_va_list@_W_W@?$standard_base@DV?$string_output_adapter@D@__crt_stdio_output@@@__crt_stdio_output@@IEAA_NAEA_W@Z 00000001800293fc f i libucrt:output.obj
 0001:00028414       ??$extract_argument_from_va_list@_W_W@?$standard_base@_WV?$stream_output_adapter@_W@__crt_stdio_output@@@__crt_stdio_output@@IEAA_NAEA_W@Z 0000000180029414 f i libucrt:output.obj
 0001:0002842c       ??$extract_argument_from_va_list@_W_W@?$standard_base@_WV?$string_output_adapter@_W@__crt_stdio_output@@@__crt_stdio_output@@IEAA_NAEA_W@Z 000000018002942c f i libucrt:output.obj
 0001:00028444       ??$get_parameter_type@D@?$positional_parameter_base@DV?$stream_output_adapter@D@__crt_stdio_output@@@__crt_stdio_output@@CA?AW4parameter_type@01@PEAD@Z 0000000180029444 f i libucrt:output.obj
 0001:0002844c       ??$get_parameter_type@D@?$positional_parameter_base@DV?$string_output_adapter@D@__crt_stdio_output@@@__crt_stdio_output@@CA?AW4parameter_type@01@PEAD@Z 000000018002944c f i libucrt:output.obj
 0001:00028454       ??$get_parameter_type@D@?$positional_parameter_base@_WV?$stream_output_adapter@_W@__crt_stdio_output@@@__crt_stdio_output@@CA?AW4parameter_type@01@PEAD@Z 0000000180029454 f i libucrt:output.obj
 0001:0002845c       ??$get_parameter_type@D@?$positional_parameter_base@_WV?$string_output_adapter@_W@__crt_stdio_output@@@__crt_stdio_output@@CA?AW4parameter_type@01@PEAD@Z 000000018002945c f i libucrt:output.obj
 0001:00028464       ??$get_parameter_type@Uansi_string@?1??type_case_Z@?$output_processor@DV?$stream_output_adapter@D@__crt_stdio_output@@V?$positional_parameter_base@DV?$stream_output_adapter@D@__crt_stdio_output@@@2@@__crt_stdio_output@@AEAA_NXZ@@?$positional_parameter_base@DV?$stream_output_adapter@D@__crt_stdio_output@@@__crt_stdio_output@@CA?AW4parameter_type@01@PEAUansi_string@?1??type_case_Z@?$output_processor@DV?$stream_output_adapter@D@__crt_stdio_output@@V?$positional_parameter_base@DV?$stream_output_adapter@D@__crt_stdio_output@@@2@@1@AEAA_NXZ@@Z 0000000180029464 f i libucrt:output.obj
 0001:0002846c       ??$get_parameter_type@Uansi_string@?1??type_case_Z@?$output_processor@DV?$string_output_adapter@D@__crt_stdio_output@@V?$positional_parameter_base@DV?$string_output_adapter@D@__crt_stdio_output@@@2@@__crt_stdio_output@@AEAA_NXZ@@?$positional_parameter_base@DV?$string_output_adapter@D@__crt_stdio_output@@@__crt_stdio_output@@CA?AW4parameter_type@01@PEAUansi_string@?1??type_case_Z@?$output_processor@DV?$string_output_adapter@D@__crt_stdio_output@@V?$positional_parameter_base@DV?$string_output_adapter@D@__crt_stdio_output@@@2@@1@AEAA_NXZ@@Z 000000018002946c f i libucrt:output.obj
 0001:00028474       ??$get_parameter_type@Uansi_string@?1??type_case_Z@?$output_processor@_WV?$stream_output_adapter@_W@__crt_stdio_output@@V?$positional_parameter_base@_WV?$stream_output_adapter@_W@__crt_stdio_output@@@2@@__crt_stdio_output@@AEAA_NXZ@@?$positional_parameter_base@_WV?$stream_output_adapter@_W@__crt_stdio_output@@@__crt_stdio_output@@CA?AW4parameter_type@01@PEAUansi_string@?1??type_case_Z@?$output_processor@_WV?$stream_output_adapter@_W@__crt_stdio_output@@V?$positional_parameter_base@_WV?$stream_output_adapter@_W@__crt_stdio_output@@@2@@1@AEAA_NXZ@@Z 0000000180029474 f i libucrt:output.obj
 0001:0002847c       ??$get_parameter_type@Uansi_string@?1??type_case_Z@?$output_processor@_WV?$string_output_adapter@_W@__crt_stdio_output@@V?$positional_parameter_base@_WV?$string_output_adapter@_W@__crt_stdio_output@@@2@@__crt_stdio_output@@AEAA_NXZ@@?$positional_parameter_base@_WV?$string_output_adapter@_W@__crt_stdio_output@@@__crt_stdio_output@@CA?AW4parameter_type@01@PEAUansi_string@?1??type_case_Z@?$output_processor@_WV?$string_output_adapter@_W@__crt_stdio_output@@V?$positional_parameter_base@_WV?$string_output_adapter@_W@__crt_stdio_output@@@2@@1@AEAA_NXZ@@Z 000000018002947c f i libucrt:output.obj
 0001:00028484       ??$get_parameter_type@X@?$positional_parameter_base@DV?$stream_output_adapter@D@__crt_stdio_output@@@__crt_stdio_output@@CA?AW4parameter_type@01@PEAX@Z 0000000180029484 f i libucrt:output.obj
 0001:0002848c       ??$get_parameter_type@X@?$positional_parameter_base@DV?$string_output_adapter@D@__crt_stdio_output@@@__crt_stdio_output@@CA?AW4parameter_type@01@PEAX@Z 000000018002948c f i libucrt:output.obj
 0001:00028494       ??$get_parameter_type@X@?$positional_parameter_base@_WV?$stream_output_adapter@_W@__crt_stdio_output@@@__crt_stdio_output@@CA?AW4parameter_type@01@PEAX@Z 0000000180029494 f i libucrt:output.obj
 0001:0002849c       ??$get_parameter_type@X@?$positional_parameter_base@_WV?$string_output_adapter@_W@__crt_stdio_output@@@__crt_stdio_output@@CA?AW4parameter_type@01@PEAX@Z 000000018002949c f i libucrt:output.obj
 0001:000284a4       ??$is_character_specifier@D@?$positional_parameter_base@DV?$stream_output_adapter@D@__crt_stdio_output@@@__crt_stdio_output@@CA_ND@Z 00000001800294a4 f i libucrt:output.obj
 0001:000284b0       ??$is_character_specifier@D@?$positional_parameter_base@DV?$string_output_adapter@D@__crt_stdio_output@@@__crt_stdio_output@@CA_ND@Z 00000001800294b0 f i libucrt:output.obj
 0001:000284bc       ??$is_character_specifier@_W@?$positional_parameter_base@_WV?$stream_output_adapter@_W@__crt_stdio_output@@@__crt_stdio_output@@CA_N_W@Z 00000001800294bc f i libucrt:output.obj
 0001:000284cc       ??$is_character_specifier@_W@?$positional_parameter_base@_WV?$string_output_adapter@_W@__crt_stdio_output@@@__crt_stdio_output@@CA_N_W@Z 00000001800294cc f i libucrt:output.obj
 0001:000284dc       ??$is_integral_specifier@D@?$positional_parameter_base@DV?$stream_output_adapter@D@__crt_stdio_output@@@__crt_stdio_output@@CA_ND@Z 00000001800294dc f i libucrt:output.obj
 0001:00028500       ??$is_integral_specifier@D@?$positional_parameter_base@DV?$string_output_adapter@D@__crt_stdio_output@@@__crt_stdio_output@@CA_ND@Z 0000000180029500 f i libucrt:output.obj
 0001:00028524       ??$is_integral_specifier@_W@?$positional_parameter_base@_WV?$stream_output_adapter@_W@__crt_stdio_output@@@__crt_stdio_output@@CA_N_W@Z 0000000180029524 f i libucrt:output.obj
 0001:0002854c       ??$is_integral_specifier@_W@?$positional_parameter_base@_WV?$string_output_adapter@_W@__crt_stdio_output@@@__crt_stdio_output@@CA_N_W@Z 000000018002954c f i libucrt:output.obj
 0001:00028574       ??$is_overflow_condition@K@__crt_strtox@@YA_NIK@Z 0000000180029574 f i libucrt:output.obj
 0001:0002859c       ??$is_pointer_specifier@D@?$positional_parameter_base@DV?$stream_output_adapter@D@__crt_stdio_output@@@__crt_stdio_output@@CA_ND@Z 000000018002959c f i libucrt:output.obj
 0001:000285a4       ??$is_pointer_specifier@D@?$positional_parameter_base@DV?$string_output_adapter@D@__crt_stdio_output@@@__crt_stdio_output@@CA_ND@Z 00000001800295a4 f i libucrt:output.obj
 0001:000285ac       ??$is_pointer_specifier@_W@?$positional_parameter_base@_WV?$stream_output_adapter@_W@__crt_stdio_output@@@__crt_stdio_output@@CA_N_W@Z 00000001800295ac f i libucrt:output.obj
 0001:000285b4       ??$is_pointer_specifier@_W@?$positional_parameter_base@_WV?$string_output_adapter@_W@__crt_stdio_output@@@__crt_stdio_output@@CA_N_W@Z 00000001800295b4 f i libucrt:output.obj
 0001:000285bc       ??$is_string_specifier@D@?$positional_parameter_base@DV?$stream_output_adapter@D@__crt_stdio_output@@@__crt_stdio_output@@CA_ND@Z 00000001800295bc f i libucrt:output.obj
 0001:000285c8       ??$is_string_specifier@D@?$positional_parameter_base@DV?$string_output_adapter@D@__crt_stdio_output@@@__crt_stdio_output@@CA_ND@Z 00000001800295c8 f i libucrt:output.obj
 0001:000285d4       ??$is_string_specifier@_W@?$positional_parameter_base@_WV?$stream_output_adapter@_W@__crt_stdio_output@@@__crt_stdio_output@@CA_N_W@Z 00000001800295d4 f i libucrt:output.obj
 0001:000285e4       ??$is_string_specifier@_W@?$positional_parameter_base@_WV?$string_output_adapter@_W@__crt_stdio_output@@@__crt_stdio_output@@CA_N_W@Z 00000001800295e4 f i libucrt:output.obj
 0001:000285f4       ??$is_wide_character_specifier@D@__crt_stdio_output@@YA_N_KDW4length_modifier@0@@Z 00000001800295f4 f i libucrt:output.obj
 0001:0002861c       ??$is_wide_character_specifier@_W@__crt_stdio_output@@YA_N_K_WW4length_modifier@0@@Z 000000018002961c f i libucrt:output.obj
 0001:0002865c       ??$make_c_string_character_source@DPEAPEAD@__crt_strtox@@YA?AV?$c_string_character_source@D@0@QEBDQEAPEAD@Z 000000018002965c f i libucrt:output.obj
 0001:00028670       ??$make_c_string_character_source@_WPEAPEA_W@__crt_strtox@@YA?AV?$c_string_character_source@_W@0@QEB_WQEAPEA_W@Z 0000000180029670 f i libucrt:output.obj
 0001:00028684       ??$parse_integer@KV?$c_string_character_source@D@__crt_strtox@@$0A@@__crt_strtox@@YAKAEAV__crt_cached_ptd_host@@V?$c_string_character_source@D@0@H_N@Z 0000000180029684 f i libucrt:output.obj
 0001:00028938       ??$parse_integer@KV?$c_string_character_source@_W@__crt_strtox@@$0A@@__crt_strtox@@YAKAEAV__crt_cached_ptd_host@@V?$c_string_character_source@_W@0@H_N@Z 0000000180029938 f i libucrt:output.obj
 0001:000290b0       ??$peek_va_arg@C@__crt_stdio_output@@YACPEAD@Z 000000018002a0b0 f i libucrt:output.obj
 0001:000290b4       ??$peek_va_arg@E@__crt_stdio_output@@YAEPEAD@Z 000000018002a0b4 f i libucrt:output.obj
 0001:000290b8       ??$peek_va_arg@F@__crt_stdio_output@@YAFPEAD@Z 000000018002a0b8 f i libucrt:output.obj
 0001:000290bc       ??$peek_va_arg@G@__crt_stdio_output@@YAGPEAD@Z 000000018002a0bc f i libucrt:output.obj
 0001:000290c0       ??$peek_va_arg@H@__crt_stdio_output@@YAHPEAD@Z 000000018002a0c0 f i libucrt:output.obj
 0001:000290c4       ??$peek_va_arg@I@__crt_stdio_output@@YAIPEAD@Z 000000018002a0c4 f i libucrt:output.obj
 0001:000290c8       ??$peek_va_arg@PEAD@__crt_stdio_output@@YAPEADPEAD@Z 000000018002a0c8 f i libucrt:output.obj
 0001:000290cc       ??$peek_va_arg@PEAUansi_string@?1??type_case_Z@?$output_processor@DV?$stream_output_adapter@D@__crt_stdio_output@@V?$positional_parameter_base@DV?$stream_output_adapter@D@__crt_stdio_output@@@2@@__crt_stdio_output@@AEAA_NXZ@@__crt_stdio_output@@YAPEAUansi_string@?1??type_case_Z@?$output_processor@DV?$stream_output_adapter@D@__crt_stdio_output@@V?$positional_parameter_base@DV?$stream_output_adapter@D@__crt_stdio_output@@@2@@0@AEAA_NXZ@PEAD@Z 000000018002a0cc f i libucrt:output.obj
 0001:000290d0       ??$peek_va_arg@PEAUansi_string@?1??type_case_Z@?$output_processor@DV?$string_output_adapter@D@__crt_stdio_output@@V?$positional_parameter_base@DV?$string_output_adapter@D@__crt_stdio_output@@@2@@__crt_stdio_output@@AEAA_NXZ@@__crt_stdio_output@@YAPEAUansi_string@?1??type_case_Z@?$output_processor@DV?$string_output_adapter@D@__crt_stdio_output@@V?$positional_parameter_base@DV?$string_output_adapter@D@__crt_stdio_output@@@2@@0@AEAA_NXZ@PEAD@Z 000000018002a0d0 f i libucrt:output.obj
 0001:000290d4       ??$peek_va_arg@PEAUansi_string@?1??type_case_Z@?$output_processor@_WV?$stream_output_adapter@_W@__crt_stdio_output@@V?$positional_parameter_base@_WV?$stream_output_adapter@_W@__crt_stdio_output@@@2@@__crt_stdio_output@@AEAA_NXZ@@__crt_stdio_output@@YAPEAUansi_string@?1??type_case_Z@?$output_processor@_WV?$stream_output_adapter@_W@__crt_stdio_output@@V?$positional_parameter_base@_WV?$stream_output_adapter@_W@__crt_stdio_output@@@2@@0@AEAA_NXZ@PEAD@Z 000000018002a0d4 f i libucrt:output.obj
 0001:000290d8       ??$peek_va_arg@PEAUansi_string@?1??type_case_Z@?$output_processor@_WV?$string_output_adapter@_W@__crt_stdio_output@@V?$positional_parameter_base@_WV?$string_output_adapter@_W@__crt_stdio_output@@@2@@__crt_stdio_output@@AEAA_NXZ@@__crt_stdio_output@@YAPEAUansi_string@?1??type_case_Z@?$output_processor@_WV?$string_output_adapter@_W@__crt_stdio_output@@V?$positional_parameter_base@_WV?$string_output_adapter@_W@__crt_stdio_output@@@2@@0@AEAA_NXZ@PEAD@Z 000000018002a0d8 f i libucrt:output.obj
 0001:000290dc       ??$peek_va_arg@PEAX@__crt_stdio_output@@YAPEAXPEAD@Z 000000018002a0dc f i libucrt:output.obj
 0001:000290e0       ??$peek_va_arg@U_CRT_DOUBLE@@@__crt_stdio_output@@YA?AU_CRT_DOUBLE@@PEAD@Z 000000018002a0e0 f i libucrt:output.obj
 0001:000290e4       ??$peek_va_arg@_J@__crt_stdio_output@@YA_JPEAD@Z 000000018002a0e4 f i libucrt:output.obj
 0001:000290e8       ??$peek_va_arg@_K@__crt_stdio_output@@YA_KPEAD@Z 000000018002a0e8 f i libucrt:output.obj
 0001:000290ec       ??$peek_va_arg@_W@__crt_stdio_output@@YA_WPEAD@Z 000000018002a0ec f i libucrt:output.obj
 0001:000290f0       ??$puttc_nolock_internal@AEBDPEAU_iobuf@@AEAV__crt_cached_ptd_host@@@?$__crt_char_traits@D@@SAHAEBD$$QEAPEAU_iobuf@@AEAV__crt_cached_ptd_host@@@Z 000000018002a0f0 f i libucrt:output.obj
 0001:000290fc       ??$puttc_nolock_internal@AEB_WPEAU_iobuf@@AEAV__crt_cached_ptd_host@@@?$__crt_char_traits@_W@@SAGAEB_W$$QEAPEAU_iobuf@@AEAV__crt_cached_ptd_host@@@Z 000000018002a0fc f i libucrt:output.obj
 0001:00029108       ??$read_va_arg@C@__crt_stdio_output@@YACAEAPEAD@Z 000000018002a108 f i libucrt:output.obj
 0001:00029118       ??$read_va_arg@E@__crt_stdio_output@@YAEAEAPEAD@Z 000000018002a118 f i libucrt:output.obj
 0001:00029128       ??$read_va_arg@F@__crt_stdio_output@@YAFAEAPEAD@Z 000000018002a128 f i libucrt:output.obj
 0001:00029138       ??$read_va_arg@G@__crt_stdio_output@@YAGAEAPEAD@Z 000000018002a138 f i libucrt:output.obj
 0001:00029148       ??$read_va_arg@H@__crt_stdio_output@@YAHAEAPEAD@Z 000000018002a148 f i libucrt:output.obj
 0001:00029158       ??$read_va_arg@I@__crt_stdio_output@@YAIAEAPEAD@Z 000000018002a158 f i libucrt:output.obj
 0001:00029168       ??$read_va_arg@PEAD@__crt_stdio_output@@YAPEADAEAPEAD@Z 000000018002a168 f i libucrt:output.obj
 0001:00029178       ??$read_va_arg@PEAUansi_string@?1??type_case_Z@?$output_processor@DV?$stream_output_adapter@D@__crt_stdio_output@@V?$format_validation_base@DV?$stream_output_adapter@D@__crt_stdio_output@@@2@@__crt_stdio_output@@AEAA_NXZ@@__crt_stdio_output@@YAPEAUansi_string@?1??type_case_Z@?$output_processor@DV?$stream_output_adapter@D@__crt_stdio_output@@V?$format_validation_base@DV?$stream_output_adapter@D@__crt_stdio_output@@@2@@0@AEAA_NXZ@AEAPEAD@Z 000000018002a178 f i libucrt:output.obj
 0001:00029188       ??$read_va_arg@PEAUansi_string@?1??type_case_Z@?$output_processor@DV?$stream_output_adapter@D@__crt_stdio_output@@V?$positional_parameter_base@DV?$stream_output_adapter@D@__crt_stdio_output@@@2@@__crt_stdio_output@@AEAA_NXZ@@__crt_stdio_output@@YAPEAUansi_string@?1??type_case_Z@?$output_processor@DV?$stream_output_adapter@D@__crt_stdio_output@@V?$positional_parameter_base@DV?$stream_output_adapter@D@__crt_stdio_output@@@2@@0@AEAA_NXZ@AEAPEAD@Z 000000018002a188 f i libucrt:output.obj
 0001:00029198       ??$read_va_arg@PEAUansi_string@?1??type_case_Z@?$output_processor@DV?$stream_output_adapter@D@__crt_stdio_output@@V?$standard_base@DV?$stream_output_adapter@D@__crt_stdio_output@@@2@@__crt_stdio_output@@AEAA_NXZ@@__crt_stdio_output@@YAPEAUansi_string@?1??type_case_Z@?$output_processor@DV?$stream_output_adapter@D@__crt_stdio_output@@V?$standard_base@DV?$stream_output_adapter@D@__crt_stdio_output@@@2@@0@AEAA_NXZ@AEAPEAD@Z 000000018002a198 f i libucrt:output.obj
 0001:000291a8       ??$read_va_arg@PEAUansi_string@?1??type_case_Z@?$output_processor@DV?$string_output_adapter@D@__crt_stdio_output@@V?$format_validation_base@DV?$string_output_adapter@D@__crt_stdio_output@@@2@@__crt_stdio_output@@AEAA_NXZ@@__crt_stdio_output@@YAPEAUansi_string@?1??type_case_Z@?$output_processor@DV?$string_output_adapter@D@__crt_stdio_output@@V?$format_validation_base@DV?$string_output_adapter@D@__crt_stdio_output@@@2@@0@AEAA_NXZ@AEAPEAD@Z 000000018002a1a8 f i libucrt:output.obj
 0001:000291b8       ??$read_va_arg@PEAUansi_string@?1??type_case_Z@?$output_processor@DV?$string_output_adapter@D@__crt_stdio_output@@V?$positional_parameter_base@DV?$string_output_adapter@D@__crt_stdio_output@@@2@@__crt_stdio_output@@AEAA_NXZ@@__crt_stdio_output@@YAPEAUansi_string@?1??type_case_Z@?$output_processor@DV?$string_output_adapter@D@__crt_stdio_output@@V?$positional_parameter_base@DV?$string_output_adapter@D@__crt_stdio_output@@@2@@0@AEAA_NXZ@AEAPEAD@Z 000000018002a1b8 f i libucrt:output.obj
 0001:000291c8       ??$read_va_arg@PEAUansi_string@?1??type_case_Z@?$output_processor@DV?$string_output_adapter@D@__crt_stdio_output@@V?$standard_base@DV?$string_output_adapter@D@__crt_stdio_output@@@2@@__crt_stdio_output@@AEAA_NXZ@@__crt_stdio_output@@YAPEAUansi_string@?1??type_case_Z@?$output_processor@DV?$string_output_adapter@D@__crt_stdio_output@@V?$standard_base@DV?$string_output_adapter@D@__crt_stdio_output@@@2@@0@AEAA_NXZ@AEAPEAD@Z 000000018002a1c8 f i libucrt:output.obj
 0001:000291d8       ??$read_va_arg@PEAUansi_string@?1??type_case_Z@?$output_processor@_WV?$stream_output_adapter@_W@__crt_stdio_output@@V?$format_validation_base@_WV?$stream_output_adapter@_W@__crt_stdio_output@@@2@@__crt_stdio_output@@AEAA_NXZ@@__crt_stdio_output@@YAPEAUansi_string@?1??type_case_Z@?$output_processor@_WV?$stream_output_adapter@_W@__crt_stdio_output@@V?$format_validation_base@_WV?$stream_output_adapter@_W@__crt_stdio_output@@@2@@0@AEAA_NXZ@AEAPEAD@Z 000000018002a1d8 f i libucrt:output.obj
 0001:000291e8       ??$read_va_arg@PEAUansi_string@?1??type_case_Z@?$output_processor@_WV?$stream_output_adapter@_W@__crt_stdio_output@@V?$positional_parameter_base@_WV?$stream_output_adapter@_W@__crt_stdio_output@@@2@@__crt_stdio_output@@AEAA_NXZ@@__crt_stdio_output@@YAPEAUansi_string@?1??type_case_Z@?$output_processor@_WV?$stream_output_adapter@_W@__crt_stdio_output@@V?$positional_parameter_base@_WV?$stream_output_adapter@_W@__crt_stdio_output@@@2@@0@AEAA_NXZ@AEAPEAD@Z 000000018002a1e8 f i libucrt:output.obj
 0001:000291f8       ??$read_va_arg@PEAUansi_string@?1??type_case_Z@?$output_processor@_WV?$stream_output_adapter@_W@__crt_stdio_output@@V?$standard_base@_WV?$stream_output_adapter@_W@__crt_stdio_output@@@2@@__crt_stdio_output@@AEAA_NXZ@@__crt_stdio_output@@YAPEAUansi_string@?1??type_case_Z@?$output_processor@_WV?$stream_output_adapter@_W@__crt_stdio_output@@V?$standard_base@_WV?$stream_output_adapter@_W@__crt_stdio_output@@@2@@0@AEAA_NXZ@AEAPEAD@Z 000000018002a1f8 f i libucrt:output.obj
 0001:00029208       ??$read_va_arg@PEAUansi_string@?1??type_case_Z@?$output_processor@_WV?$string_output_adapter@_W@__crt_stdio_output@@V?$format_validation_base@_WV?$string_output_adapter@_W@__crt_stdio_output@@@2@@__crt_stdio_output@@AEAA_NXZ@@__crt_stdio_output@@YAPEAUansi_string@?1??type_case_Z@?$output_processor@_WV?$string_output_adapter@_W@__crt_stdio_output@@V?$format_validation_base@_WV?$string_output_adapter@_W@__crt_stdio_output@@@2@@0@AEAA_NXZ@AEAPEAD@Z 000000018002a208 f i libucrt:output.obj
 0001:00029218       ??$read_va_arg@PEAUansi_string@?1??type_case_Z@?$output_processor@_WV?$string_output_adapter@_W@__crt_stdio_output@@V?$positional_parameter_base@_WV?$string_output_adapter@_W@__crt_stdio_output@@@2@@__crt_stdio_output@@AEAA_NXZ@@__crt_stdio_output@@YAPEAUansi_string@?1??type_case_Z@?$output_processor@_WV?$string_output_adapter@_W@__crt_stdio_output@@V?$positional_parameter_base@_WV?$string_output_adapter@_W@__crt_stdio_output@@@2@@0@AEAA_NXZ@AEAPEAD@Z 000000018002a218 f i libucrt:output.obj
 0001:00029228       ??$read_va_arg@PEAUansi_string@?1??type_case_Z@?$output_processor@_WV?$string_output_adapter@_W@__crt_stdio_output@@V?$standard_base@_WV?$string_output_adapter@_W@__crt_stdio_output@@@2@@__crt_stdio_output@@AEAA_NXZ@@__crt_stdio_output@@YAPEAUansi_string@?1??type_case_Z@?$output_processor@_WV?$string_output_adapter@_W@__crt_stdio_output@@V?$standard_base@_WV?$string_output_adapter@_W@__crt_stdio_output@@@2@@0@AEAA_NXZ@AEAPEAD@Z 000000018002a228 f i libucrt:output.obj
 0001:00029238       ??$read_va_arg@PEAX@__crt_stdio_output@@YAPEAXAEAPEAD@Z 000000018002a238 f i libucrt:output.obj
 0001:00029248       ??$read_va_arg@U_CRT_DOUBLE@@@__crt_stdio_output@@YA?AU_CRT_DOUBLE@@AEAPEAD@Z 000000018002a248 f i libucrt:output.obj
 0001:00029258       ??$read_va_arg@_J@__crt_stdio_output@@YA_JAEAPEAD@Z 000000018002a258 f i libucrt:output.obj
 0001:00029268       ??$read_va_arg@_K@__crt_stdio_output@@YA_KAEAPEAD@Z 000000018002a268 f i libucrt:output.obj
 0001:00029278       ??$read_va_arg@_W@__crt_stdio_output@@YA_WAEAPEAD@Z 000000018002a278 f i libucrt:output.obj
 0001:00029288       ??$scratch_count@D@formatting_buffer@__crt_stdio_output@@QEBA_KXZ 000000018002a288 f i libucrt:output.obj
 0001:000292a4       ??$scratch_data@D@formatting_buffer@__crt_stdio_output@@QEAAPEADXZ 000000018002a2a4 f i libucrt:output.obj
 0001:000292c8       ??$type_case_integer@$07@?$output_processor@DV?$stream_output_adapter@D@__crt_stdio_output@@V?$format_validation_base@DV?$stream_output_adapter@D@__crt_stdio_output@@@2@@__crt_stdio_output@@AEAA_N_N@Z 000000018002a2c8 f i libucrt:output.obj
 0001:000294cc       ??$type_case_integer@$07@?$output_processor@DV?$stream_output_adapter@D@__crt_stdio_output@@V?$positional_parameter_base@DV?$stream_output_adapter@D@__crt_stdio_output@@@2@@__crt_stdio_output@@AEAA_N_N@Z 000000018002a4cc f i libucrt:output.obj
 0001:000296f8       ??$type_case_integer@$07@?$output_processor@DV?$stream_output_adapter@D@__crt_stdio_output@@V?$standard_base@DV?$stream_output_adapter@D@__crt_stdio_output@@@2@@__crt_stdio_output@@AEAA_N_N@Z 000000018002a6f8 f i libucrt:output.obj
 0001:000298fc       ??$type_case_integer@$07@?$output_processor@DV?$string_output_adapter@D@__crt_stdio_output@@V?$format_validation_base@DV?$string_output_adapter@D@__crt_stdio_output@@@2@@__crt_stdio_output@@AEAA_N_N@Z 000000018002a8fc f i libucrt:output.obj
 0001:00029b00       ??$type_case_integer@$07@?$output_processor@DV?$string_output_adapter@D@__crt_stdio_output@@V?$positional_parameter_base@DV?$string_output_adapter@D@__crt_stdio_output@@@2@@__crt_stdio_output@@AEAA_N_N@Z 000000018002ab00 f i libucrt:output.obj
 0001:00029d2c       ??$type_case_integer@$07@?$output_processor@DV?$string_output_adapter@D@__crt_stdio_output@@V?$standard_base@DV?$string_output_adapter@D@__crt_stdio_output@@@2@@__crt_stdio_output@@AEAA_N_N@Z 000000018002ad2c f i libucrt:output.obj
 0001:00029f30       ??$type_case_integer@$07@?$output_processor@_WV?$stream_output_adapter@_W@__crt_stdio_output@@V?$format_validation_base@_WV?$stream_output_adapter@_W@__crt_stdio_output@@@2@@__crt_stdio_output@@AEAA_N_N@Z 000000018002af30 f i libucrt:output.obj
 0001:0002a13c       ??$type_case_integer@$07@?$output_processor@_WV?$stream_output_adapter@_W@__crt_stdio_output@@V?$positional_parameter_base@_WV?$stream_output_adapter@_W@__crt_stdio_output@@@2@@__crt_stdio_output@@AEAA_N_N@Z 000000018002b13c f i libucrt:output.obj
 0001:0002a370       ??$type_case_integer@$07@?$output_processor@_WV?$stream_output_adapter@_W@__crt_stdio_output@@V?$standard_base@_WV?$stream_output_adapter@_W@__crt_stdio_output@@@2@@__crt_stdio_output@@AEAA_N_N@Z 000000018002b370 f i libucrt:output.obj
 0001:0002a57c       ??$type_case_integer@$07@?$output_processor@_WV?$string_output_adapter@_W@__crt_stdio_output@@V?$format_validation_base@_WV?$string_output_adapter@_W@__crt_stdio_output@@@2@@__crt_stdio_output@@AEAA_N_N@Z 000000018002b57c f i libucrt:output.obj
 0001:0002a788       ??$type_case_integer@$07@?$output_processor@_WV?$string_output_adapter@_W@__crt_stdio_output@@V?$positional_parameter_base@_WV?$string_output_adapter@_W@__crt_stdio_output@@@2@@__crt_stdio_output@@AEAA_N_N@Z 000000018002b788 f i libucrt:output.obj
 0001:0002a9bc       ??$type_case_integer@$07@?$output_processor@_WV?$string_output_adapter@_W@__crt_stdio_output@@V?$standard_base@_WV?$string_output_adapter@_W@__crt_stdio_output@@@2@@__crt_stdio_output@@AEAA_N_N@Z 000000018002b9bc f i libucrt:output.obj
 0001:0002abc8       ??$type_case_integer@$09@?$output_processor@DV?$stream_output_adapter@D@__crt_stdio_output@@V?$format_validation_base@DV?$stream_output_adapter@D@__crt_stdio_output@@@2@@__crt_stdio_output@@AEAA_N_N@Z 000000018002bbc8 f i libucrt:output.obj
 0001:0002adcc       ??$type_case_integer@$09@?$output_processor@DV?$stream_output_adapter@D@__crt_stdio_output@@V?$positional_parameter_base@DV?$stream_output_adapter@D@__crt_stdio_output@@@2@@__crt_stdio_output@@AEAA_N_N@Z 000000018002bdcc f i libucrt:output.obj
 0001:0002aff8       ??$type_case_integer@$09@?$output_processor@DV?$stream_output_adapter@D@__crt_stdio_output@@V?$standard_base@DV?$stream_output_adapter@D@__crt_stdio_output@@@2@@__crt_stdio_output@@AEAA_N_N@Z 000000018002bff8 f i libucrt:output.obj
 0001:0002b1fc       ??$type_case_integer@$09@?$output_processor@DV?$string_output_adapter@D@__crt_stdio_output@@V?$format_validation_base@DV?$string_output_adapter@D@__crt_stdio_output@@@2@@__crt_stdio_output@@AEAA_N_N@Z 000000018002c1fc f i libucrt:output.obj
 0001:0002b400       ??$type_case_integer@$09@?$output_processor@DV?$string_output_adapter@D@__crt_stdio_output@@V?$positional_parameter_base@DV?$string_output_adapter@D@__crt_stdio_output@@@2@@__crt_stdio_output@@AEAA_N_N@Z 000000018002c400 f i libucrt:output.obj
 0001:0002b62c       ??$type_case_integer@$09@?$output_processor@DV?$string_output_adapter@D@__crt_stdio_output@@V?$standard_base@DV?$string_output_adapter@D@__crt_stdio_output@@@2@@__crt_stdio_output@@AEAA_N_N@Z 000000018002c62c f i libucrt:output.obj
 0001:0002b830       ??$type_case_integer@$09@?$output_processor@_WV?$stream_output_adapter@_W@__crt_stdio_output@@V?$format_validation_base@_WV?$stream_output_adapter@_W@__crt_stdio_output@@@2@@__crt_stdio_output@@AEAA_N_N@Z 000000018002c830 f i libucrt:output.obj
 0001:0002ba3c       ??$type_case_integer@$09@?$output_processor@_WV?$stream_output_adapter@_W@__crt_stdio_output@@V?$positional_parameter_base@_WV?$stream_output_adapter@_W@__crt_stdio_output@@@2@@__crt_stdio_output@@AEAA_N_N@Z 000000018002ca3c f i libucrt:output.obj
 0001:0002bc70       ??$type_case_integer@$09@?$output_processor@_WV?$stream_output_adapter@_W@__crt_stdio_output@@V?$standard_base@_WV?$stream_output_adapter@_W@__crt_stdio_output@@@2@@__crt_stdio_output@@AEAA_N_N@Z 000000018002cc70 f i libucrt:output.obj
 0001:0002be7c       ??$type_case_integer@$09@?$output_processor@_WV?$string_output_adapter@_W@__crt_stdio_output@@V?$format_validation_base@_WV?$string_output_adapter@_W@__crt_stdio_output@@@2@@__crt_stdio_output@@AEAA_N_N@Z 000000018002ce7c f i libucrt:output.obj
 0001:0002c088       ??$type_case_integer@$09@?$output_processor@_WV?$string_output_adapter@_W@__crt_stdio_output@@V?$positional_parameter_base@_WV?$string_output_adapter@_W@__crt_stdio_output@@@2@@__crt_stdio_output@@AEAA_N_N@Z 000000018002d088 f i libucrt:output.obj
 0001:0002c2bc       ??$type_case_integer@$09@?$output_processor@_WV?$string_output_adapter@_W@__crt_stdio_output@@V?$standard_base@_WV?$string_output_adapter@_W@__crt_stdio_output@@@2@@__crt_stdio_output@@AEAA_N_N@Z 000000018002d2bc f i libucrt:output.obj
 0001:0002c4c8       ??$type_case_integer@$0BA@@?$output_processor@DV?$stream_output_adapter@D@__crt_stdio_output@@V?$format_validation_base@DV?$stream_output_adapter@D@__crt_stdio_output@@@2@@__crt_stdio_output@@AEAA_N_N@Z 000000018002d4c8 f i libucrt:output.obj
 0001:0002c6cc       ??$type_case_integer@$0BA@@?$output_processor@DV?$stream_output_adapter@D@__crt_stdio_output@@V?$positional_parameter_base@DV?$stream_output_adapter@D@__crt_stdio_output@@@2@@__crt_stdio_output@@AEAA_N_N@Z 000000018002d6cc f i libucrt:output.obj
 0001:0002c8f8       ??$type_case_integer@$0BA@@?$output_processor@DV?$stream_output_adapter@D@__crt_stdio_output@@V?$standard_base@DV?$stream_output_adapter@D@__crt_stdio_output@@@2@@__crt_stdio_output@@AEAA_N_N@Z 000000018002d8f8 f i libucrt:output.obj
 0001:0002cafc       ??$type_case_integer@$0BA@@?$output_processor@DV?$string_output_adapter@D@__crt_stdio_output@@V?$format_validation_base@DV?$string_output_adapter@D@__crt_stdio_output@@@2@@__crt_stdio_output@@AEAA_N_N@Z 000000018002dafc f i libucrt:output.obj
 0001:0002cd00       ??$type_case_integer@$0BA@@?$output_processor@DV?$string_output_adapter@D@__crt_stdio_output@@V?$positional_parameter_base@DV?$string_output_adapter@D@__crt_stdio_output@@@2@@__crt_stdio_output@@AEAA_N_N@Z 000000018002dd00 f i libucrt:output.obj
 0001:0002cf2c       ??$type_case_integer@$0BA@@?$output_processor@DV?$string_output_adapter@D@__crt_stdio_output@@V?$standard_base@DV?$string_output_adapter@D@__crt_stdio_output@@@2@@__crt_stdio_output@@AEAA_N_N@Z 000000018002df2c f i libucrt:output.obj
 0001:0002d130       ??$type_case_integer@$0BA@@?$output_processor@_WV?$stream_output_adapter@_W@__crt_stdio_output@@V?$format_validation_base@_WV?$stream_output_adapter@_W@__crt_stdio_output@@@2@@__crt_stdio_output@@AEAA_N_N@Z 000000018002e130 f i libucrt:output.obj
 0001:0002d33c       ??$type_case_integer@$0BA@@?$output_processor@_WV?$stream_output_adapter@_W@__crt_stdio_output@@V?$positional_parameter_base@_WV?$stream_output_adapter@_W@__crt_stdio_output@@@2@@__crt_stdio_output@@AEAA_N_N@Z 000000018002e33c f i libucrt:output.obj
 0001:0002d570       ??$type_case_integer@$0BA@@?$output_processor@_WV?$stream_output_adapter@_W@__crt_stdio_output@@V?$standard_base@_WV?$stream_output_adapter@_W@__crt_stdio_output@@@2@@__crt_stdio_output@@AEAA_N_N@Z 000000018002e570 f i libucrt:output.obj
 0001:0002d77c       ??$type_case_integer@$0BA@@?$output_processor@_WV?$string_output_adapter@_W@__crt_stdio_output@@V?$format_validation_base@_WV?$string_output_adapter@_W@__crt_stdio_output@@@2@@__crt_stdio_output@@AEAA_N_N@Z 000000018002e77c f i libucrt:output.obj
 0001:0002d988       ??$type_case_integer@$0BA@@?$output_processor@_WV?$string_output_adapter@_W@__crt_stdio_output@@V?$positional_parameter_base@_WV?$string_output_adapter@_W@__crt_stdio_output@@@2@@__crt_stdio_output@@AEAA_N_N@Z 000000018002e988 f i libucrt:output.obj
 0001:0002dbbc       ??$type_case_integer@$0BA@@?$output_processor@_WV?$string_output_adapter@_W@__crt_stdio_output@@V?$standard_base@_WV?$string_output_adapter@_W@__crt_stdio_output@@@2@@__crt_stdio_output@@AEAA_N_N@Z 000000018002ebbc f i libucrt:output.obj
 0001:0002ddc8       ??$type_case_integer_parse_into_buffer@I$07@?$output_processor@DV?$stream_output_adapter@D@__crt_stdio_output@@V?$format_validation_base@DV?$stream_output_adapter@D@__crt_stdio_output@@@2@@__crt_stdio_output@@AEAAXI_N@Z 000000018002edc8 f i libucrt:output.obj
 0001:0002de38       ??$type_case_integer_parse_into_buffer@I$07@?$output_processor@DV?$stream_output_adapter@D@__crt_stdio_output@@V?$positional_parameter_base@DV?$stream_output_adapter@D@__crt_stdio_output@@@2@@__crt_stdio_output@@AEAAXI_N@Z 000000018002ee38 f i libucrt:output.obj
 0001:0002dea8       ??$type_case_integer_parse_into_buffer@I$07@?$output_processor@DV?$stream_output_adapter@D@__crt_stdio_output@@V?$standard_base@DV?$stream_output_adapter@D@__crt_stdio_output@@@2@@__crt_stdio_output@@AEAAXI_N@Z 000000018002eea8 f i libucrt:output.obj
 0001:0002df18       ??$type_case_integer_parse_into_buffer@I$07@?$output_processor@DV?$string_output_adapter@D@__crt_stdio_output@@V?$format_validation_base@DV?$string_output_adapter@D@__crt_stdio_output@@@2@@__crt_stdio_output@@AEAAXI_N@Z 000000018002ef18 f i libucrt:output.obj
 0001:0002df88       ??$type_case_integer_parse_into_buffer@I$07@?$output_processor@DV?$string_output_adapter@D@__crt_stdio_output@@V?$positional_parameter_base@DV?$string_output_adapter@D@__crt_stdio_output@@@2@@__crt_stdio_output@@AEAAXI_N@Z 000000018002ef88 f i libucrt:output.obj
 0001:0002dff8       ??$type_case_integer_parse_into_buffer@I$07@?$output_processor@DV?$string_output_adapter@D@__crt_stdio_output@@V?$standard_base@DV?$string_output_adapter@D@__crt_stdio_output@@@2@@__crt_stdio_output@@AEAAXI_N@Z 000000018002eff8 f i libucrt:output.obj
 0001:0002e068       ??$type_case_integer_parse_into_buffer@I$07@?$output_processor@_WV?$stream_output_adapter@_W@__crt_stdio_output@@V?$format_validation_base@_WV?$stream_output_adapter@_W@__crt_stdio_output@@@2@@__crt_stdio_output@@AEAAXI_N@Z 000000018002f068 f i libucrt:output.obj
 0001:0002e0ec       ??$type_case_integer_parse_into_buffer@I$07@?$output_processor@_WV?$stream_output_adapter@_W@__crt_stdio_output@@V?$positional_parameter_base@_WV?$stream_output_adapter@_W@__crt_stdio_output@@@2@@__crt_stdio_output@@AEAAXI_N@Z 000000018002f0ec f i libucrt:output.obj
 0001:0002e170       ??$type_case_integer_parse_into_buffer@I$07@?$output_processor@_WV?$stream_output_adapter@_W@__crt_stdio_output@@V?$standard_base@_WV?$stream_output_adapter@_W@__crt_stdio_output@@@2@@__crt_stdio_output@@AEAAXI_N@Z 000000018002f170 f i libucrt:output.obj
 0001:0002e1f4       ??$type_case_integer_parse_into_buffer@I$07@?$output_processor@_WV?$string_output_adapter@_W@__crt_stdio_output@@V?$format_validation_base@_WV?$string_output_adapter@_W@__crt_stdio_output@@@2@@__crt_stdio_output@@AEAAXI_N@Z 000000018002f1f4 f i libucrt:output.obj
 0001:0002e278       ??$type_case_integer_parse_into_buffer@I$07@?$output_processor@_WV?$string_output_adapter@_W@__crt_stdio_output@@V?$positional_parameter_base@_WV?$string_output_adapter@_W@__crt_stdio_output@@@2@@__crt_stdio_output@@AEAAXI_N@Z 000000018002f278 f i libucrt:output.obj
 0001:0002e2fc       ??$type_case_integer_parse_into_buffer@I$07@?$output_processor@_WV?$string_output_adapter@_W@__crt_stdio_output@@V?$standard_base@_WV?$string_output_adapter@_W@__crt_stdio_output@@@2@@__crt_stdio_output@@AEAAXI_N@Z 000000018002f2fc f i libucrt:output.obj
 0001:0002e380       ??$type_case_integer_parse_into_buffer@I$09@?$output_processor@DV?$stream_output_adapter@D@__crt_stdio_output@@V?$format_validation_base@DV?$stream_output_adapter@D@__crt_stdio_output@@@2@@__crt_stdio_output@@AEAAXI_N@Z 000000018002f380 f i libucrt:output.obj
 0001:0002e42c       ??$type_case_integer_parse_into_buffer@I$09@?$output_processor@DV?$stream_output_adapter@D@__crt_stdio_output@@V?$positional_parameter_base@DV?$stream_output_adapter@D@__crt_stdio_output@@@2@@__crt_stdio_output@@AEAAXI_N@Z 000000018002f42c f i libucrt:output.obj
 0001:0002e4d8       ??$type_case_integer_parse_into_buffer@I$09@?$output_processor@DV?$stream_output_adapter@D@__crt_stdio_output@@V?$standard_base@DV?$stream_output_adapter@D@__crt_stdio_output@@@2@@__crt_stdio_output@@AEAAXI_N@Z 000000018002f4d8 f i libucrt:output.obj
 0001:0002e584       ??$type_case_integer_parse_into_buffer@I$09@?$output_processor@DV?$string_output_adapter@D@__crt_stdio_output@@V?$format_validation_base@DV?$string_output_adapter@D@__crt_stdio_output@@@2@@__crt_stdio_output@@AEAAXI_N@Z 000000018002f584 f i libucrt:output.obj
 0001:0002e630       ??$type_case_integer_parse_into_buffer@I$09@?$output_processor@DV?$string_output_adapter@D@__crt_stdio_output@@V?$positional_parameter_base@DV?$string_output_adapter@D@__crt_stdio_output@@@2@@__crt_stdio_output@@AEAAXI_N@Z 000000018002f630 f i libucrt:output.obj
 0001:0002e6dc       ??$type_case_integer_parse_into_buffer@I$09@?$output_processor@DV?$string_output_adapter@D@__crt_stdio_output@@V?$standard_base@DV?$string_output_adapter@D@__crt_stdio_output@@@2@@__crt_stdio_output@@AEAAXI_N@Z 000000018002f6dc f i libucrt:output.obj
 0001:0002e788       ??$type_case_integer_parse_into_buffer@I$09@?$output_processor@_WV?$stream_output_adapter@_W@__crt_stdio_output@@V?$format_validation_base@_WV?$stream_output_adapter@_W@__crt_stdio_output@@@2@@__crt_stdio_output@@AEAAXI_N@Z 000000018002f788 f i libucrt:output.obj
 0001:0002e848       ??$type_case_integer_parse_into_buffer@I$09@?$output_processor@_WV?$stream_output_adapter@_W@__crt_stdio_output@@V?$positional_parameter_base@_WV?$stream_output_adapter@_W@__crt_stdio_output@@@2@@__crt_stdio_output@@AEAAXI_N@Z 000000018002f848 f i libucrt:output.obj
 0001:0002e908       ??$type_case_integer_parse_into_buffer@I$09@?$output_processor@_WV?$stream_output_adapter@_W@__crt_stdio_output@@V?$standard_base@_WV?$stream_output_adapter@_W@__crt_stdio_output@@@2@@__crt_stdio_output@@AEAAXI_N@Z 000000018002f908 f i libucrt:output.obj
 0001:0002e9c8       ??$type_case_integer_parse_into_buffer@I$09@?$output_processor@_WV?$string_output_adapter@_W@__crt_stdio_output@@V?$format_validation_base@_WV?$string_output_adapter@_W@__crt_stdio_output@@@2@@__crt_stdio_output@@AEAAXI_N@Z 000000018002f9c8 f i libucrt:output.obj
 0001:0002ea88       ??$type_case_integer_parse_into_buffer@I$09@?$output_processor@_WV?$string_output_adapter@_W@__crt_stdio_output@@V?$positional_parameter_base@_WV?$string_output_adapter@_W@__crt_stdio_output@@@2@@__crt_stdio_output@@AEAAXI_N@Z 000000018002fa88 f i libucrt:output.obj
 0001:0002eb48       ??$type_case_integer_parse_into_buffer@I$09@?$output_processor@_WV?$string_output_adapter@_W@__crt_stdio_output@@V?$standard_base@_WV?$string_output_adapter@_W@__crt_stdio_output@@@2@@__crt_stdio_output@@AEAAXI_N@Z 000000018002fb48 f i libucrt:output.obj
 0001:0002ec08       ??$type_case_integer_parse_into_buffer@I$0BA@@?$output_processor@DV?$stream_output_adapter@D@__crt_stdio_output@@V?$format_validation_base@DV?$stream_output_adapter@D@__crt_stdio_output@@@2@@__crt_stdio_output@@AEAAXI_N@Z 000000018002fc08 f i libucrt:output.obj
 0001:0002ec8c       ??$type_case_integer_parse_into_buffer@I$0BA@@?$output_processor@DV?$stream_output_adapter@D@__crt_stdio_output@@V?$positional_parameter_base@DV?$stream_output_adapter@D@__crt_stdio_output@@@2@@__crt_stdio_output@@AEAAXI_N@Z 000000018002fc8c f i libucrt:output.obj
 0001:0002ed10       ??$type_case_integer_parse_into_buffer@I$0BA@@?$output_processor@DV?$stream_output_adapter@D@__crt_stdio_output@@V?$standard_base@DV?$stream_output_adapter@D@__crt_stdio_output@@@2@@__crt_stdio_output@@AEAAXI_N@Z 000000018002fd10 f i libucrt:output.obj
 0001:0002ed94       ??$type_case_integer_parse_into_buffer@I$0BA@@?$output_processor@DV?$string_output_adapter@D@__crt_stdio_output@@V?$format_validation_base@DV?$string_output_adapter@D@__crt_stdio_output@@@2@@__crt_stdio_output@@AEAAXI_N@Z 000000018002fd94 f i libucrt:output.obj
 0001:0002ee18       ??$type_case_integer_parse_into_buffer@I$0BA@@?$output_processor@DV?$string_output_adapter@D@__crt_stdio_output@@V?$positional_parameter_base@DV?$string_output_adapter@D@__crt_stdio_output@@@2@@__crt_stdio_output@@AEAAXI_N@Z 000000018002fe18 f i libucrt:output.obj
 0001:0002ee9c       ??$type_case_integer_parse_into_buffer@I$0BA@@?$output_processor@DV?$string_output_adapter@D@__crt_stdio_output@@V?$standard_base@DV?$string_output_adapter@D@__crt_stdio_output@@@2@@__crt_stdio_output@@AEAAXI_N@Z 000000018002fe9c f i libucrt:output.obj
 0001:0002ef20       ??$type_case_integer_parse_into_buffer@I$0BA@@?$output_processor@_WV?$stream_output_adapter@_W@__crt_stdio_output@@V?$format_validation_base@_WV?$stream_output_adapter@_W@__crt_stdio_output@@@2@@__crt_stdio_output@@AEAAXI_N@Z 000000018002ff20 f i libucrt:output.obj
 0001:0002efc0       ??$type_case_integer_parse_into_buffer@I$0BA@@?$output_processor@_WV?$stream_output_adapter@_W@__crt_stdio_output@@V?$positional_parameter_base@_WV?$stream_output_adapter@_W@__crt_stdio_output@@@2@@__crt_stdio_output@@AEAAXI_N@Z 000000018002ffc0 f i libucrt:output.obj
 0001:0002f060       ??$type_case_integer_parse_into_buffer@I$0BA@@?$output_processor@_WV?$stream_output_adapter@_W@__crt_stdio_output@@V?$standard_base@_WV?$stream_output_adapter@_W@__crt_stdio_output@@@2@@__crt_stdio_output@@AEAAXI_N@Z 0000000180030060 f i libucrt:output.obj
 0001:0002f100       ??$type_case_integer_parse_into_buffer@I$0BA@@?$output_processor@_WV?$string_output_adapter@_W@__crt_stdio_output@@V?$format_validation_base@_WV?$string_output_adapter@_W@__crt_stdio_output@@@2@@__crt_stdio_output@@AEAAXI_N@Z 0000000180030100 f i libucrt:output.obj
 0001:0002f1a0       ??$type_case_integer_parse_into_buffer@I$0BA@@?$output_processor@_WV?$string_output_adapter@_W@__crt_stdio_output@@V?$positional_parameter_base@_WV?$string_output_adapter@_W@__crt_stdio_output@@@2@@__crt_stdio_output@@AEAAXI_N@Z 00000001800301a0 f i libucrt:output.obj
 0001:0002f240       ??$type_case_integer_parse_into_buffer@I$0BA@@?$output_processor@_WV?$string_output_adapter@_W@__crt_stdio_output@@V?$standard_base@_WV?$string_output_adapter@_W@__crt_stdio_output@@@2@@__crt_stdio_output@@AEAAXI_N@Z 0000000180030240 f i libucrt:output.obj
 0001:0002f2e0       ??$type_case_integer_parse_into_buffer@_K$07@?$output_processor@DV?$stream_output_adapter@D@__crt_stdio_output@@V?$format_validation_base@DV?$stream_output_adapter@D@__crt_stdio_output@@@2@@__crt_stdio_output@@AEAAX_K_N@Z 00000001800302e0 f i libucrt:output.obj
 0001:0002f350       ??$type_case_integer_parse_into_buffer@_K$07@?$output_processor@DV?$stream_output_adapter@D@__crt_stdio_output@@V?$positional_parameter_base@DV?$stream_output_adapter@D@__crt_stdio_output@@@2@@__crt_stdio_output@@AEAAX_K_N@Z 0000000180030350 f i libucrt:output.obj
 0001:0002f3c0       ??$type_case_integer_parse_into_buffer@_K$07@?$output_processor@DV?$stream_output_adapter@D@__crt_stdio_output@@V?$standard_base@DV?$stream_output_adapter@D@__crt_stdio_output@@@2@@__crt_stdio_output@@AEAAX_K_N@Z 00000001800303c0 f i libucrt:output.obj
 0001:0002f430       ??$type_case_integer_parse_into_buffer@_K$07@?$output_processor@DV?$string_output_adapter@D@__crt_stdio_output@@V?$format_validation_base@DV?$string_output_adapter@D@__crt_stdio_output@@@2@@__crt_stdio_output@@AEAAX_K_N@Z 0000000180030430 f i libucrt:output.obj
 0001:0002f4a0       ??$type_case_integer_parse_into_buffer@_K$07@?$output_processor@DV?$string_output_adapter@D@__crt_stdio_output@@V?$positional_parameter_base@DV?$string_output_adapter@D@__crt_stdio_output@@@2@@__crt_stdio_output@@AEAAX_K_N@Z 00000001800304a0 f i libucrt:output.obj
 0001:0002f510       ??$type_case_integer_parse_into_buffer@_K$07@?$output_processor@DV?$string_output_adapter@D@__crt_stdio_output@@V?$standard_base@DV?$string_output_adapter@D@__crt_stdio_output@@@2@@__crt_stdio_output@@AEAAX_K_N@Z 0000000180030510 f i libucrt:output.obj
 0001:0002f580       ??$type_case_integer_parse_into_buffer@_K$07@?$output_processor@_WV?$stream_output_adapter@_W@__crt_stdio_output@@V?$format_validation_base@_WV?$stream_output_adapter@_W@__crt_stdio_output@@@2@@__crt_stdio_output@@AEAAX_K_N@Z 0000000180030580 f i libucrt:output.obj
 0001:0002f608       ??$type_case_integer_parse_into_buffer@_K$07@?$output_processor@_WV?$stream_output_adapter@_W@__crt_stdio_output@@V?$positional_parameter_base@_WV?$stream_output_adapter@_W@__crt_stdio_output@@@2@@__crt_stdio_output@@AEAAX_K_N@Z 0000000180030608 f i libucrt:output.obj
 0001:0002f690       ??$type_case_integer_parse_into_buffer@_K$07@?$output_processor@_WV?$stream_output_adapter@_W@__crt_stdio_output@@V?$standard_base@_WV?$stream_output_adapter@_W@__crt_stdio_output@@@2@@__crt_stdio_output@@AEAAX_K_N@Z 0000000180030690 f i libucrt:output.obj
 0001:0002f718       ??$type_case_integer_parse_into_buffer@_K$07@?$output_processor@_WV?$string_output_adapter@_W@__crt_stdio_output@@V?$format_validation_base@_WV?$string_output_adapter@_W@__crt_stdio_output@@@2@@__crt_stdio_output@@AEAAX_K_N@Z 0000000180030718 f i libucrt:output.obj
 0001:0002f7a0       ??$type_case_integer_parse_into_buffer@_K$07@?$output_processor@_WV?$string_output_adapter@_W@__crt_stdio_output@@V?$positional_parameter_base@_WV?$string_output_adapter@_W@__crt_stdio_output@@@2@@__crt_stdio_output@@AEAAX_K_N@Z 00000001800307a0 f i libucrt:output.obj
 0001:0002f828       ??$type_case_integer_parse_into_buffer@_K$07@?$output_processor@_WV?$string_output_adapter@_W@__crt_stdio_output@@V?$standard_base@_WV?$string_output_adapter@_W@__crt_stdio_output@@@2@@__crt_stdio_output@@AEAAX_K_N@Z 0000000180030828 f i libucrt:output.obj
 0001:0002f8b0       ??$type_case_integer_parse_into_buffer@_K$09@?$output_processor@DV?$stream_output_adapter@D@__crt_stdio_output@@V?$format_validation_base@DV?$stream_output_adapter@D@__crt_stdio_output@@@2@@__crt_stdio_output@@AEAAX_K_N@Z 00000001800308b0 f i libucrt:output.obj
 0001:0002f960       ??$type_case_integer_parse_into_buffer@_K$09@?$output_processor@DV?$stream_output_adapter@D@__crt_stdio_output@@V?$positional_parameter_base@DV?$stream_output_adapter@D@__crt_stdio_output@@@2@@__crt_stdio_output@@AEAAX_K_N@Z 0000000180030960 f i libucrt:output.obj
 0001:0002fa10       ??$type_case_integer_parse_into_buffer@_K$09@?$output_processor@DV?$stream_output_adapter@D@__crt_stdio_output@@V?$standard_base@DV?$stream_output_adapter@D@__crt_stdio_output@@@2@@__crt_stdio_output@@AEAAX_K_N@Z 0000000180030a10 f i libucrt:output.obj
 0001:0002fac0       ??$type_case_integer_parse_into_buffer@_K$09@?$output_processor@DV?$string_output_adapter@D@__crt_stdio_output@@V?$format_validation_base@DV?$string_output_adapter@D@__crt_stdio_output@@@2@@__crt_stdio_output@@AEAAX_K_N@Z 0000000180030ac0 f i libucrt:output.obj
 0001:0002fb70       ??$type_case_integer_parse_into_buffer@_K$09@?$output_processor@DV?$string_output_adapter@D@__crt_stdio_output@@V?$positional_parameter_base@DV?$string_output_adapter@D@__crt_stdio_output@@@2@@__crt_stdio_output@@AEAAX_K_N@Z 0000000180030b70 f i libucrt:output.obj
 0001:0002fc20       ??$type_case_integer_parse_into_buffer@_K$09@?$output_processor@DV?$string_output_adapter@D@__crt_stdio_output@@V?$standard_base@DV?$string_output_adapter@D@__crt_stdio_output@@@2@@__crt_stdio_output@@AEAAX_K_N@Z 0000000180030c20 f i libucrt:output.obj
 0001:0002fcd0       ??$type_case_integer_parse_into_buffer@_K$09@?$output_processor@_WV?$stream_output_adapter@_W@__crt_stdio_output@@V?$format_validation_base@_WV?$stream_output_adapter@_W@__crt_stdio_output@@@2@@__crt_stdio_output@@AEAAX_K_N@Z 0000000180030cd0 f i libucrt:output.obj
 0001:0002fd94       ??$type_case_integer_parse_into_buffer@_K$09@?$output_processor@_WV?$stream_output_adapter@_W@__crt_stdio_output@@V?$positional_parameter_base@_WV?$stream_output_adapter@_W@__crt_stdio_output@@@2@@__crt_stdio_output@@AEAAX_K_N@Z 0000000180030d94 f i libucrt:output.obj
 0001:0002fe58       ??$type_case_integer_parse_into_buffer@_K$09@?$output_processor@_WV?$stream_output_adapter@_W@__crt_stdio_output@@V?$standard_base@_WV?$stream_output_adapter@_W@__crt_stdio_output@@@2@@__crt_stdio_output@@AEAAX_K_N@Z 0000000180030e58 f i libucrt:output.obj
 0001:0002ff1c       ??$type_case_integer_parse_into_buffer@_K$09@?$output_processor@_WV?$string_output_adapter@_W@__crt_stdio_output@@V?$format_validation_base@_WV?$string_output_adapter@_W@__crt_stdio_output@@@2@@__crt_stdio_output@@AEAAX_K_N@Z 0000000180030f1c f i libucrt:output.obj
 0001:0002ffe0       ??$type_case_integer_parse_into_buffer@_K$09@?$output_processor@_WV?$string_output_adapter@_W@__crt_stdio_output@@V?$positional_parameter_base@_WV?$string_output_adapter@_W@__crt_stdio_output@@@2@@__crt_stdio_output@@AEAAX_K_N@Z 0000000180030fe0 f i libucrt:output.obj
 0001:000300a4       ??$type_case_integer_parse_into_buffer@_K$09@?$output_processor@_WV?$string_output_adapter@_W@__crt_stdio_output@@V?$standard_base@_WV?$string_output_adapter@_W@__crt_stdio_output@@@2@@__crt_stdio_output@@AEAAX_K_N@Z 00000001800310a4 f i libucrt:output.obj
 0001:00030168       ??$type_case_integer_parse_into_buffer@_K$0BA@@?$output_processor@DV?$stream_output_adapter@D@__crt_stdio_output@@V?$format_validation_base@DV?$stream_output_adapter@D@__crt_stdio_output@@@2@@__crt_stdio_output@@AEAAX_K_N@Z 0000000180031168 f i libucrt:output.obj
 0001:000301ec       ??$type_case_integer_parse_into_buffer@_K$0BA@@?$output_processor@DV?$stream_output_adapter@D@__crt_stdio_output@@V?$positional_parameter_base@DV?$stream_output_adapter@D@__crt_stdio_output@@@2@@__crt_stdio_output@@AEAAX_K_N@Z 00000001800311ec f i libucrt:output.obj
 0001:00030270       ??$type_case_integer_parse_into_buffer@_K$0BA@@?$output_processor@DV?$stream_output_adapter@D@__crt_stdio_output@@V?$standard_base@DV?$stream_output_adapter@D@__crt_stdio_output@@@2@@__crt_stdio_output@@AEAAX_K_N@Z 0000000180031270 f i libucrt:output.obj
 0001:000302f4       ??$type_case_integer_parse_into_buffer@_K$0BA@@?$output_processor@DV?$string_output_adapter@D@__crt_stdio_output@@V?$format_validation_base@DV?$string_output_adapter@D@__crt_stdio_output@@@2@@__crt_stdio_output@@AEAAX_K_N@Z 00000001800312f4 f i libucrt:output.obj
 0001:00030378       ??$type_case_integer_parse_into_buffer@_K$0BA@@?$output_processor@DV?$string_output_adapter@D@__crt_stdio_output@@V?$positional_parameter_base@DV?$string_output_adapter@D@__crt_stdio_output@@@2@@__crt_stdio_output@@AEAAX_K_N@Z 0000000180031378 f i libucrt:output.obj
 0001:000303fc       ??$type_case_integer_parse_into_buffer@_K$0BA@@?$output_processor@DV?$string_output_adapter@D@__crt_stdio_output@@V?$standard_base@DV?$string_output_adapter@D@__crt_stdio_output@@@2@@__crt_stdio_output@@AEAAX_K_N@Z 00000001800313fc f i libucrt:output.obj
 0001:00030480       ??$type_case_integer_parse_into_buffer@_K$0BA@@?$output_processor@_WV?$stream_output_adapter@_W@__crt_stdio_output@@V?$format_validation_base@_WV?$stream_output_adapter@_W@__crt_stdio_output@@@2@@__crt_stdio_output@@AEAAX_K_N@Z 0000000180031480 f i libucrt:output.obj
 0001:00030520       ??$type_case_integer_parse_into_buffer@_K$0BA@@?$output_processor@_WV?$stream_output_adapter@_W@__crt_stdio_output@@V?$positional_parameter_base@_WV?$stream_output_adapter@_W@__crt_stdio_output@@@2@@__crt_stdio_output@@AEAAX_K_N@Z 0000000180031520 f i libucrt:output.obj
 0001:000305c0       ??$type_case_integer_parse_into_buffer@_K$0BA@@?$output_processor@_WV?$stream_output_adapter@_W@__crt_stdio_output@@V?$standard_base@_WV?$stream_output_adapter@_W@__crt_stdio_output@@@2@@__crt_stdio_output@@AEAAX_K_N@Z 00000001800315c0 f i libucrt:output.obj
 0001:00030660       ??$type_case_integer_parse_into_buffer@_K$0BA@@?$output_processor@_WV?$string_output_adapter@_W@__crt_stdio_output@@V?$format_validation_base@_WV?$string_output_adapter@_W@__crt_stdio_output@@@2@@__crt_stdio_output@@AEAAX_K_N@Z 0000000180031660 f i libucrt:output.obj
 0001:00030700       ??$type_case_integer_parse_into_buffer@_K$0BA@@?$output_processor@_WV?$string_output_adapter@_W@__crt_stdio_output@@V?$positional_parameter_base@_WV?$string_output_adapter@_W@__crt_stdio_output@@@2@@__crt_stdio_output@@AEAAX_K_N@Z 0000000180031700 f i libucrt:output.obj
 0001:000307a0       ??$type_case_integer_parse_into_buffer@_K$0BA@@?$output_processor@_WV?$string_output_adapter@_W@__crt_stdio_output@@V?$standard_base@_WV?$string_output_adapter@_W@__crt_stdio_output@@@2@@__crt_stdio_output@@AEAAX_K_N@Z 00000001800317a0 f i libucrt:output.obj
 0001:00030840       ??$write_multiple_characters@V?$stream_output_adapter@D@__crt_stdio_output@@D@__crt_stdio_output@@YAXAEBV?$stream_output_adapter@D@0@DHQEAHAEAV__crt_cached_ptd_host@@@Z 0000000180031840 f i libucrt:output.obj
 0001:000308d4       ??$write_multiple_characters@V?$stream_output_adapter@_W@__crt_stdio_output@@D@__crt_stdio_output@@YAXAEBV?$stream_output_adapter@_W@0@DHQEAHAEAV__crt_cached_ptd_host@@@Z 00000001800318d4 f i libucrt:output.obj
 0001:0003096c       ??$write_multiple_characters@V?$string_output_adapter@D@__crt_stdio_output@@D@__crt_stdio_output@@YAXAEBV?$string_output_adapter@D@0@DHQEAHAEAV__crt_cached_ptd_host@@@Z 000000018003196c f i libucrt:output.obj
 0001:000309e4       ??$write_multiple_characters@V?$string_output_adapter@_W@__crt_stdio_output@@D@__crt_stdio_output@@YAXAEBV?$string_output_adapter@_W@0@DHQEAHAEAV__crt_cached_ptd_host@@@Z 00000001800319e4 f i libucrt:output.obj
 0001:00030bc4       ??0?$c_string_character_source@D@__crt_strtox@@QEAA@QEBDQEAPEBD@Z 0000000180031bc4 f i libucrt:output.obj
 0001:00030bd8       ??0?$c_string_character_source@_W@__crt_strtox@@QEAA@QEB_WQEAPEB_W@Z 0000000180031bd8 f i libucrt:output.obj
 0001:00030bec       ??0?$common_data@D@__crt_stdio_output@@IEAA@AEAV__crt_cached_ptd_host@@@Z 0000000180031bec f i libucrt:output.obj
 0001:00030c28       ??0?$common_data@_W@__crt_stdio_output@@IEAA@AEAV__crt_cached_ptd_host@@@Z 0000000180031c28 f i libucrt:output.obj
 0001:00030c68       ??0?$output_adapter_data@DV?$stream_output_adapter@D@__crt_stdio_output@@@__crt_stdio_output@@IEAA@AEBV?$stream_output_adapter@D@1@_KQEBDAEAV__crt_cached_ptd_host@@QEAD@Z 0000000180031c68 f i libucrt:output.obj
 0001:00030cc8       ??0?$output_adapter_data@DV?$string_output_adapter@D@__crt_stdio_output@@@__crt_stdio_output@@IEAA@AEBV?$string_output_adapter@D@1@_KQEBDAEAV__crt_cached_ptd_host@@QEAD@Z 0000000180031cc8 f i libucrt:output.obj
 0001:00030d28       ??0?$output_adapter_data@_WV?$stream_output_adapter@_W@__crt_stdio_output@@@__crt_stdio_output@@IEAA@AEBV?$stream_output_adapter@_W@1@_KQEB_WAEAV__crt_cached_ptd_host@@QEAD@Z 0000000180031d28 f i libucrt:output.obj
 0001:00030d8c       ??0?$output_adapter_data@_WV?$string_output_adapter@_W@__crt_stdio_output@@@__crt_stdio_output@@IEAA@AEBV?$string_output_adapter@_W@1@_KQEB_WAEAV__crt_cached_ptd_host@@QEAD@Z 0000000180031d8c f i libucrt:output.obj
 0001:00030df0       ??0?$output_processor@DV?$stream_output_adapter@D@__crt_stdio_output@@V?$format_validation_base@DV?$stream_output_adapter@D@__crt_stdio_output@@@2@@__crt_stdio_output@@QEAA@AEBV?$stream_output_adapter@D@1@_KQEBDAEAV__crt_cached_ptd_host@@QEAD@Z 0000000180031df0 f i libucrt:output.obj
 0001:00030e58       ??0?$output_processor@DV?$stream_output_adapter@D@__crt_stdio_output@@V?$positional_parameter_base@DV?$stream_output_adapter@D@__crt_stdio_output@@@2@@__crt_stdio_output@@QEAA@AEBV?$stream_output_adapter@D@1@_KQEBDAEAV__crt_cached_ptd_host@@QEAD@Z 0000000180031e58 f i libucrt:output.obj
 0001:00030edc       ??0?$output_processor@DV?$stream_output_adapter@D@__crt_stdio_output@@V?$standard_base@DV?$stream_output_adapter@D@__crt_stdio_output@@@2@@__crt_stdio_output@@QEAA@AEBV?$stream_output_adapter@D@1@_KQEBDAEAV__crt_cached_ptd_host@@QEAD@Z 0000000180031edc f i libucrt:output.obj
 0001:00030f44       ??0?$output_processor@DV?$string_output_adapter@D@__crt_stdio_output@@V?$format_validation_base@DV?$string_output_adapter@D@__crt_stdio_output@@@2@@__crt_stdio_output@@QEAA@AEBV?$string_output_adapter@D@1@_KQEBDAEAV__crt_cached_ptd_host@@QEAD@Z 0000000180031f44 f i libucrt:output.obj
 0001:00030fac       ??0?$output_processor@DV?$string_output_adapter@D@__crt_stdio_output@@V?$positional_parameter_base@DV?$string_output_adapter@D@__crt_stdio_output@@@2@@__crt_stdio_output@@QEAA@AEBV?$string_output_adapter@D@1@_KQEBDAEAV__crt_cached_ptd_host@@QEAD@Z 0000000180031fac f i libucrt:output.obj
 0001:00031030       ??0?$output_processor@DV?$string_output_adapter@D@__crt_stdio_output@@V?$standard_base@DV?$string_output_adapter@D@__crt_stdio_output@@@2@@__crt_stdio_output@@QEAA@AEBV?$string_output_adapter@D@1@_KQEBDAEAV__crt_cached_ptd_host@@QEAD@Z 0000000180032030 f i libucrt:output.obj
 0001:00031098       ??0?$output_processor@_WV?$stream_output_adapter@_W@__crt_stdio_output@@V?$format_validation_base@_WV?$stream_output_adapter@_W@__crt_stdio_output@@@2@@__crt_stdio_output@@QEAA@AEBV?$stream_output_adapter@_W@1@_KQEB_WAEAV__crt_cached_ptd_host@@QEAD@Z 0000000180032098 f i libucrt:output.obj
 0001:00031104       ??0?$output_processor@_WV?$stream_output_adapter@_W@__crt_stdio_output@@V?$positional_parameter_base@_WV?$stream_output_adapter@_W@__crt_stdio_output@@@2@@__crt_stdio_output@@QEAA@AEBV?$stream_output_adapter@_W@1@_KQEB_WAEAV__crt_cached_ptd_host@@QEAD@Z 0000000180032104 f i libucrt:output.obj
 0001:0003118c       ??0?$output_processor@_WV?$stream_output_adapter@_W@__crt_stdio_output@@V?$standard_base@_WV?$stream_output_adapter@_W@__crt_stdio_output@@@2@@__crt_stdio_output@@QEAA@AEBV?$stream_output_adapter@_W@1@_KQEB_WAEAV__crt_cached_ptd_host@@QEAD@Z 000000018003218c f i libucrt:output.obj
 0001:000311f8       ??0?$output_processor@_WV?$string_output_adapter@_W@__crt_stdio_output@@V?$format_validation_base@_WV?$string_output_adapter@_W@__crt_stdio_output@@@2@@__crt_stdio_output@@QEAA@AEBV?$string_output_adapter@_W@1@_KQEB_WAEAV__crt_cached_ptd_host@@QEAD@Z 00000001800321f8 f i libucrt:output.obj
 0001:00031264       ??0?$output_processor@_WV?$string_output_adapter@_W@__crt_stdio_output@@V?$positional_parameter_base@_WV?$string_output_adapter@_W@__crt_stdio_output@@@2@@__crt_stdio_output@@QEAA@AEBV?$string_output_adapter@_W@1@_KQEB_WAEAV__crt_cached_ptd_host@@QEAD@Z 0000000180032264 f i libucrt:output.obj
 0001:000312ec       ??0?$output_processor@_WV?$string_output_adapter@_W@__crt_stdio_output@@V?$standard_base@_WV?$string_output_adapter@_W@__crt_stdio_output@@@2@@__crt_stdio_output@@QEAA@AEBV?$string_output_adapter@_W@1@_KQEB_WAEAV__crt_cached_ptd_host@@QEAD@Z 00000001800322ec f i libucrt:output.obj
 0001:00031358       ??0?$stream_output_adapter@D@__crt_stdio_output@@QEAA@QEAU_iobuf@@@Z 0000000180032358 f i libucrt:output.obj
 0001:00031360       ??0?$stream_output_adapter@_W@__crt_stdio_output@@QEAA@QEAU_iobuf@@@Z 0000000180032360 f i libucrt:output.obj
 0001:00031368       ??0?$string_output_adapter@D@__crt_stdio_output@@QEAA@QEAU?$string_output_adapter_context@D@1@@Z 0000000180032368 f i libucrt:output.obj
 0001:00031370       ??0?$string_output_adapter@_W@__crt_stdio_output@@QEAA@QEAU?$string_output_adapter_context@_W@1@@Z 0000000180032370 f i libucrt:output.obj
 0001:00031378       ??0__acrt_stdio_temporary_buffering_guard@@QEAA@QEAU_iobuf@@AEAV__crt_cached_ptd_host@@@Z 0000000180032378 f i libucrt:output.obj
 0001:0003139c       ??0__crt_stdio_stream@@QEAA@QEAU_iobuf@@@Z 000000018003239c f i libucrt:output.obj
 0001:000313a4       ??0formatting_buffer@__crt_stdio_output@@QEAA@XZ 00000001800323a4 f i libucrt:output.obj
 0001:000313b8       ??0guard@?$cached@H@__crt_cached_ptd_host@@QEAA@AEAU12@@Z 00000001800323b8 f i libucrt:output.obj
 0001:000313cc       ??1?$c_string_character_source@D@__crt_strtox@@QEAA@XZ 00000001800323cc f i libucrt:output.obj
 0001:000313dc       ??1?$c_string_character_source@_W@__crt_strtox@@QEAA@XZ 00000001800323dc f i libucrt:output.obj
 0001:000313ec       ??1?$common_data@D@__crt_stdio_output@@QEAA@XZ 00000001800323ec f i libucrt:output.obj
 0001:00031410       ??1?$common_data@_W@__crt_stdio_output@@QEAA@XZ 0000000180032410 f i libucrt:output.obj
 0001:00031434       ??1?$format_validation_base@DV?$stream_output_adapter@D@__crt_stdio_output@@@__crt_stdio_output@@QEAA@XZ 0000000180032434 f i libucrt:output.obj
 0001:00031458       ??1?$format_validation_base@DV?$string_output_adapter@D@__crt_stdio_output@@@__crt_stdio_output@@QEAA@XZ 0000000180032458 f i libucrt:output.obj
 0001:0003147c       ??1?$format_validation_base@_WV?$stream_output_adapter@_W@__crt_stdio_output@@@__crt_stdio_output@@QEAA@XZ 000000018003247c f i libucrt:output.obj
 0001:000314a0       ??1?$format_validation_base@_WV?$string_output_adapter@_W@__crt_stdio_output@@@__crt_stdio_output@@QEAA@XZ 00000001800324a0 f i libucrt:output.obj
 0001:000314c4       ??1?$output_adapter_data@DV?$stream_output_adapter@D@__crt_stdio_output@@@__crt_stdio_output@@QEAA@XZ 00000001800324c4 f i libucrt:output.obj
 0001:000314e8       ??1?$output_adapter_data@DV?$string_output_adapter@D@__crt_stdio_output@@@__crt_stdio_output@@QEAA@XZ 00000001800324e8 f i libucrt:output.obj
 0001:0003150c       ??1?$output_adapter_data@_WV?$stream_output_adapter@_W@__crt_stdio_output@@@__crt_stdio_output@@QEAA@XZ 000000018003250c f i libucrt:output.obj
 0001:00031530       ??1?$output_adapter_data@_WV?$string_output_adapter@_W@__crt_stdio_output@@@__crt_stdio_output@@QEAA@XZ 0000000180032530 f i libucrt:output.obj
 0001:00031554       ??1?$output_processor@DV?$stream_output_adapter@D@__crt_stdio_output@@V?$format_validation_base@DV?$stream_output_adapter@D@__crt_stdio_output@@@2@@__crt_stdio_output@@QEAA@XZ 0000000180032554 f i libucrt:output.obj
 0001:00031578       ??1?$output_processor@DV?$stream_output_adapter@D@__crt_stdio_output@@V?$positional_parameter_base@DV?$stream_output_adapter@D@__crt_stdio_output@@@2@@__crt_stdio_output@@QEAA@XZ 0000000180032578 f i libucrt:output.obj
 0001:0003159c       ??1?$output_processor@DV?$stream_output_adapter@D@__crt_stdio_output@@V?$standard_base@DV?$stream_output_adapter@D@__crt_stdio_output@@@2@@__crt_stdio_output@@QEAA@XZ 000000018003259c f i libucrt:output.obj
 0001:000315c0       ??1?$output_processor@DV?$string_output_adapter@D@__crt_stdio_output@@V?$format_validation_base@DV?$string_output_adapter@D@__crt_stdio_output@@@2@@__crt_stdio_output@@QEAA@XZ 00000001800325c0 f i libucrt:output.obj
 0001:000315e4       ??1?$output_processor@DV?$string_output_adapter@D@__crt_stdio_output@@V?$positional_parameter_base@DV?$string_output_adapter@D@__crt_stdio_output@@@2@@__crt_stdio_output@@QEAA@XZ 00000001800325e4 f i libucrt:output.obj
 0001:00031608       ??1?$output_processor@DV?$string_output_adapter@D@__crt_stdio_output@@V?$standard_base@DV?$string_output_adapter@D@__crt_stdio_output@@@2@@__crt_stdio_output@@QEAA@XZ 0000000180032608 f i libucrt:output.obj
 0001:0003162c       ??1?$output_processor@_WV?$stream_output_adapter@_W@__crt_stdio_output@@V?$format_validation_base@_WV?$stream_output_adapter@_W@__crt_stdio_output@@@2@@__crt_stdio_output@@QEAA@XZ 000000018003262c f i libucrt:output.obj
 0001:00031650       ??1?$output_processor@_WV?$stream_output_adapter@_W@__crt_stdio_output@@V?$positional_parameter_base@_WV?$stream_output_adapter@_W@__crt_stdio_output@@@2@@__crt_stdio_output@@QEAA@XZ 0000000180032650 f i libucrt:output.obj
 0001:00031674       ??1?$output_processor@_WV?$stream_output_adapter@_W@__crt_stdio_output@@V?$standard_base@_WV?$stream_output_adapter@_W@__crt_stdio_output@@@2@@__crt_stdio_output@@QEAA@XZ 0000000180032674 f i libucrt:output.obj
 0001:00031698       ??1?$output_processor@_WV?$string_output_adapter@_W@__crt_stdio_output@@V?$format_validation_base@_WV?$string_output_adapter@_W@__crt_stdio_output@@@2@@__crt_stdio_output@@QEAA@XZ 0000000180032698 f i libucrt:output.obj
 0001:000316bc       ??1?$output_processor@_WV?$string_output_adapter@_W@__crt_stdio_output@@V?$positional_parameter_base@_WV?$string_output_adapter@_W@__crt_stdio_output@@@2@@__crt_stdio_output@@QEAA@XZ 00000001800326bc f i libucrt:output.obj
 0001:000316e0       ??1?$output_processor@_WV?$string_output_adapter@_W@__crt_stdio_output@@V?$standard_base@_WV?$string_output_adapter@_W@__crt_stdio_output@@@2@@__crt_stdio_output@@QEAA@XZ 00000001800326e0 f i libucrt:output.obj
 0001:00031704       ??1?$positional_parameter_base@DV?$stream_output_adapter@D@__crt_stdio_output@@@__crt_stdio_output@@QEAA@XZ 0000000180032704 f i libucrt:output.obj
 0001:00031728       ??1?$positional_parameter_base@DV?$string_output_adapter@D@__crt_stdio_output@@@__crt_stdio_output@@QEAA@XZ 0000000180032728 f i libucrt:output.obj
 0001:0003174c       ??1?$positional_parameter_base@_WV?$stream_output_adapter@_W@__crt_stdio_output@@@__crt_stdio_output@@QEAA@XZ 000000018003274c f i libucrt:output.obj
 0001:00031770       ??1?$positional_parameter_base@_WV?$string_output_adapter@_W@__crt_stdio_output@@@__crt_stdio_output@@QEAA@XZ 0000000180032770 f i libucrt:output.obj
 0001:00031794       ??1?$standard_base@DV?$stream_output_adapter@D@__crt_stdio_output@@@__crt_stdio_output@@QEAA@XZ 0000000180032794 f i libucrt:output.obj
 0001:000317b8       ??1?$standard_base@DV?$string_output_adapter@D@__crt_stdio_output@@@__crt_stdio_output@@QEAA@XZ 00000001800327b8 f i libucrt:output.obj
 0001:000317dc       ??1?$standard_base@_WV?$stream_output_adapter@_W@__crt_stdio_output@@@__crt_stdio_output@@QEAA@XZ 00000001800327dc f i libucrt:output.obj
 0001:00031800       ??1?$standard_base@_WV?$string_output_adapter@_W@__crt_stdio_output@@@__crt_stdio_output@@QEAA@XZ 0000000180032800 f i libucrt:output.obj
 0001:00031824       ??1__acrt_stdio_temporary_buffering_guard@@QEAA@XZ 0000000180032824 f i libucrt:output.obj
 0001:00031834       ??1formatting_buffer@__crt_stdio_output@@QEAA@XZ 0000000180032834 f i libucrt:output.obj
 0001:00031858       ??1guard@?$cached@H@__crt_cached_ptd_host@@QEAA@XZ 0000000180032858 f i libucrt:output.obj
 0001:0003186c       ??4?$__crt_unique_heap_ptr@DU__crt_internal_free_policy@@@@QEAAAEAV0@$$QEAV0@@Z 000000018003286c f i libucrt:output.obj
 0001:000318a0       ??A?$spectre_mitigated_lookup_table@Ustate_transition_pair@__crt_stdio_output@@$0IA@@__crt_stdio_output@@QEBAAEBUstate_transition_pair@1@_K@Z 00000001800328a0 f i libucrt:output.obj
 0001:000318a8       ??C__crt_stdio_stream@@QEBAPEAU__crt_stdio_stream_data@@XZ 00000001800328a8 f i libucrt:output.obj
 0001:00031ff0       ?__crt_interlocked_read_32@@YAHPEDH@Z 0000000180032ff0 f i libucrt:output.obj
 0001:00031ff4       ?adjust_hexit@?$output_processor@DV?$stream_output_adapter@D@__crt_stdio_output@@V?$format_validation_base@DV?$stream_output_adapter@D@__crt_stdio_output@@@2@@__crt_stdio_output@@CADH_N@Z 0000000180032ff4 f i libucrt:output.obj
 0001:00032000       ?adjust_hexit@?$output_processor@DV?$stream_output_adapter@D@__crt_stdio_output@@V?$positional_parameter_base@DV?$stream_output_adapter@D@__crt_stdio_output@@@2@@__crt_stdio_output@@CADH_N@Z 0000000180033000 f i libucrt:output.obj
 0001:0003200c       ?adjust_hexit@?$output_processor@DV?$stream_output_adapter@D@__crt_stdio_output@@V?$standard_base@DV?$stream_output_adapter@D@__crt_stdio_output@@@2@@__crt_stdio_output@@CADH_N@Z 000000018003300c f i libucrt:output.obj
 0001:00032018       ?adjust_hexit@?$output_processor@DV?$string_output_adapter@D@__crt_stdio_output@@V?$format_validation_base@DV?$string_output_adapter@D@__crt_stdio_output@@@2@@__crt_stdio_output@@CADH_N@Z 0000000180033018 f i libucrt:output.obj
 0001:00032024       ?adjust_hexit@?$output_processor@DV?$string_output_adapter@D@__crt_stdio_output@@V?$positional_parameter_base@DV?$string_output_adapter@D@__crt_stdio_output@@@2@@__crt_stdio_output@@CADH_N@Z 0000000180033024 f i libucrt:output.obj
 0001:00032030       ?adjust_hexit@?$output_processor@DV?$string_output_adapter@D@__crt_stdio_output@@V?$standard_base@DV?$string_output_adapter@D@__crt_stdio_output@@@2@@__crt_stdio_output@@CADH_N@Z 0000000180033030 f i libucrt:output.obj
 0001:0003203c       ?adjust_hexit@?$output_processor@_WV?$stream_output_adapter@_W@__crt_stdio_output@@V?$format_validation_base@_WV?$stream_output_adapter@_W@__crt_stdio_output@@@2@@__crt_stdio_output@@CADH_N@Z 000000018003303c f i libucrt:output.obj
 0001:00032048       ?adjust_hexit@?$output_processor@_WV?$stream_output_adapter@_W@__crt_stdio_output@@V?$positional_parameter_base@_WV?$stream_output_adapter@_W@__crt_stdio_output@@@2@@__crt_stdio_output@@CADH_N@Z 0000000180033048 f i libucrt:output.obj
 0001:00032054       ?adjust_hexit@?$output_processor@_WV?$stream_output_adapter@_W@__crt_stdio_output@@V?$standard_base@_WV?$stream_output_adapter@_W@__crt_stdio_output@@@2@@__crt_stdio_output@@CADH_N@Z 0000000180033054 f i libucrt:output.obj
 0001:00032060       ?adjust_hexit@?$output_processor@_WV?$string_output_adapter@_W@__crt_stdio_output@@V?$format_validation_base@_WV?$string_output_adapter@_W@__crt_stdio_output@@@2@@__crt_stdio_output@@CADH_N@Z 0000000180033060 f i libucrt:output.obj
 0001:0003206c       ?adjust_hexit@?$output_processor@_WV?$string_output_adapter@_W@__crt_stdio_output@@V?$positional_parameter_base@_WV?$string_output_adapter@_W@__crt_stdio_output@@@2@@__crt_stdio_output@@CADH_N@Z 000000018003306c f i libucrt:output.obj
 0001:00032078       ?adjust_hexit@?$output_processor@_WV?$string_output_adapter@_W@__crt_stdio_output@@V?$standard_base@_WV?$string_output_adapter@_W@__crt_stdio_output@@@2@@__crt_stdio_output@@CADH_N@Z 0000000180033078 f i libucrt:output.obj
 0001:00032084       ?advance_to_next_pass@?$positional_parameter_base@DV?$stream_output_adapter@D@__crt_stdio_output@@@__crt_stdio_output@@IEAA_NXZ 0000000180033084 f i libucrt:output.obj
 0001:000320d8       ?advance_to_next_pass@?$positional_parameter_base@DV?$string_output_adapter@D@__crt_stdio_output@@@__crt_stdio_output@@IEAA_NXZ 00000001800330d8 f i libucrt:output.obj
 0001:0003212c       ?advance_to_next_pass@?$positional_parameter_base@_WV?$stream_output_adapter@_W@__crt_stdio_output@@@__crt_stdio_output@@IEAA_NXZ 000000018003312c f i libucrt:output.obj
 0001:00032180       ?advance_to_next_pass@?$positional_parameter_base@_WV?$string_output_adapter@_W@__crt_stdio_output@@@__crt_stdio_output@@IEAA_NXZ 0000000180033180 f i libucrt:output.obj
 0001:000321d4       ?advance_to_next_pass@?$standard_base@DV?$stream_output_adapter@D@__crt_stdio_output@@@__crt_stdio_output@@IEAA_NXZ 00000001800331d4 f i libucrt:output.obj
 0001:000321e8       ?advance_to_next_pass@?$standard_base@DV?$string_output_adapter@D@__crt_stdio_output@@@__crt_stdio_output@@IEAA_NXZ 00000001800331e8 f i libucrt:output.obj
 0001:000321fc       ?advance_to_next_pass@?$standard_base@_WV?$stream_output_adapter@_W@__crt_stdio_output@@@__crt_stdio_output@@IEAA_NXZ 00000001800331fc f i libucrt:output.obj
 0001:00032210       ?advance_to_next_pass@?$standard_base@_WV?$string_output_adapter@_W@__crt_stdio_output@@@__crt_stdio_output@@IEAA_NXZ 0000000180033210 f i libucrt:output.obj
 0001:00032224       ?check@?$cached@H@__crt_cached_ptd_host@@QEBA_NH@Z 0000000180033224 f i libucrt:output.obj
 0001:00032234       ?create_guard@?$cached@H@__crt_cached_ptd_host@@QEAA?AVguard@12@XZ 0000000180033234 f i libucrt:output.obj
 0001:00032248       ?crop_zeroes@__crt_stdio_output@@YAXPEADQEAU__crt_locale_pointers@@@Z 0000000180033248 f i libucrt:output.obj
 0001:000322b4       ?disable@guard@?$cached@H@__crt_cached_ptd_host@@QEAAXXZ 00000001800332b4 f i libucrt:output.obj
 0001:000322bc       ?enable@guard@?$cached@H@__crt_cached_ptd_host@@QEAAXXZ 00000001800332bc f i libucrt:output.obj
 0001:000322c4       ?find_next_state@?$output_processor@DV?$stream_output_adapter@D@__crt_stdio_output@@V?$format_validation_base@DV?$stream_output_adapter@D@__crt_stdio_output@@@2@@__crt_stdio_output@@AEBA?AW4state@2@DW432@@Z 00000001800332c4 f i libucrt:output.obj
 0001:000322fc       ?find_next_state@?$output_processor@DV?$stream_output_adapter@D@__crt_stdio_output@@V?$positional_parameter_base@DV?$stream_output_adapter@D@__crt_stdio_output@@@2@@__crt_stdio_output@@AEBA?AW4state@2@DW432@@Z 00000001800332fc f i libucrt:output.obj
 0001:00032334       ?find_next_state@?$output_processor@DV?$stream_output_adapter@D@__crt_stdio_output@@V?$standard_base@DV?$stream_output_adapter@D@__crt_stdio_output@@@2@@__crt_stdio_output@@AEBA?AW4state@2@DW432@@Z 0000000180033334 f i libucrt:output.obj
 0001:00032368       ?find_next_state@?$output_processor@DV?$string_output_adapter@D@__crt_stdio_output@@V?$format_validation_base@DV?$string_output_adapter@D@__crt_stdio_output@@@2@@__crt_stdio_output@@AEBA?AW4state@2@DW432@@Z 0000000180033368 f i libucrt:output.obj
 0001:000323a0       ?find_next_state@?$output_processor@DV?$string_output_adapter@D@__crt_stdio_output@@V?$positional_parameter_base@DV?$string_output_adapter@D@__crt_stdio_output@@@2@@__crt_stdio_output@@AEBA?AW4state@2@DW432@@Z 00000001800333a0 f i libucrt:output.obj
 0001:000323d8       ?find_next_state@?$output_processor@DV?$string_output_adapter@D@__crt_stdio_output@@V?$standard_base@DV?$string_output_adapter@D@__crt_stdio_output@@@2@@__crt_stdio_output@@AEBA?AW4state@2@DW432@@Z 00000001800333d8 f i libucrt:output.obj
 0001:0003240c       ?find_next_state@?$output_processor@_WV?$stream_output_adapter@_W@__crt_stdio_output@@V?$format_validation_base@_WV?$stream_output_adapter@_W@__crt_stdio_output@@@2@@__crt_stdio_output@@AEBA?AW4state@2@_WW432@@Z 000000018003340c f i libucrt:output.obj
 0001:0003244c       ?find_next_state@?$output_processor@_WV?$stream_output_adapter@_W@__crt_stdio_output@@V?$positional_parameter_base@_WV?$stream_output_adapter@_W@__crt_stdio_output@@@2@@__crt_stdio_output@@AEBA?AW4state@2@_WW432@@Z 000000018003344c f i libucrt:output.obj
 0001:0003248c       ?find_next_state@?$output_processor@_WV?$stream_output_adapter@_W@__crt_stdio_output@@V?$standard_base@_WV?$stream_output_adapter@_W@__crt_stdio_output@@@2@@__crt_stdio_output@@AEBA?AW4state@2@_WW432@@Z 000000018003348c f i libucrt:output.obj
 0001:000324c8       ?find_next_state@?$output_processor@_WV?$string_output_adapter@_W@__crt_stdio_output@@V?$format_validation_base@_WV?$string_output_adapter@_W@__crt_stdio_output@@@2@@__crt_stdio_output@@AEBA?AW4state@2@_WW432@@Z 00000001800334c8 f i libucrt:output.obj
 0001:00032508       ?find_next_state@?$output_processor@_WV?$string_output_adapter@_W@__crt_stdio_output@@V?$positional_parameter_base@_WV?$string_output_adapter@_W@__crt_stdio_output@@@2@@__crt_stdio_output@@AEBA?AW4state@2@_WW432@@Z 0000000180033508 f i libucrt:output.obj
 0001:00032548       ?find_next_state@?$output_processor@_WV?$string_output_adapter@_W@__crt_stdio_output@@V?$standard_base@_WV?$string_output_adapter@_W@__crt_stdio_output@@@2@@__crt_stdio_output@@AEBA?AW4state@2@_WW432@@Z 0000000180033548 f i libucrt:output.obj
 0001:00032584       ?force_decimal_point@__crt_stdio_output@@YAXPEADQEAU__crt_locale_pointers@@@Z 0000000180033584 f i libucrt:output.obj
 0001:000325e4       ?get@?$c_string_character_source@D@__crt_strtox@@QEAADXZ 00000001800335e4 f i libucrt:output.obj
 0001:000325f0       ?get@?$c_string_character_source@_W@__crt_strtox@@QEAA_WXZ 00000001800335f0 f i libucrt:output.obj
 0001:00032600       ?get_flags@__crt_stdio_stream@@QEBAJXZ 0000000180033600 f i libucrt:output.obj
 0001:00032610       ?get_locale@__crt_cached_ptd_host@@QEAAPEAU__crt_locale_pointers@@XZ 0000000180033610 f i libucrt:output.obj
 0001:00032638       ?get_parameter_type@?$positional_parameter_base@DV?$stream_output_adapter@D@__crt_stdio_output@@@__crt_stdio_output@@CA?AW4parameter_type@12@F@Z 0000000180033638 f i libucrt:output.obj
 0001:00032640       ?get_parameter_type@?$positional_parameter_base@DV?$stream_output_adapter@D@__crt_stdio_output@@@__crt_stdio_output@@CA?AW4parameter_type@12@G@Z 0000000180033640 f i libucrt:output.obj
 0001:00032648       ?get_parameter_type@?$positional_parameter_base@DV?$stream_output_adapter@D@__crt_stdio_output@@@__crt_stdio_output@@CA?AW4parameter_type@12@H@Z 0000000180033648 f i libucrt:output.obj
 0001:00032650       ?get_parameter_type@?$positional_parameter_base@DV?$stream_output_adapter@D@__crt_stdio_output@@@__crt_stdio_output@@CA?AW4parameter_type@12@I@Z 0000000180033650 f i libucrt:output.obj
 0001:00032658       ?get_parameter_type@?$positional_parameter_base@DV?$stream_output_adapter@D@__crt_stdio_output@@@__crt_stdio_output@@CA?AW4parameter_type@12@U_CRT_DOUBLE@@@Z 0000000180033658 f i libucrt:output.obj
 0001:00032660       ?get_parameter_type@?$positional_parameter_base@DV?$stream_output_adapter@D@__crt_stdio_output@@@__crt_stdio_output@@CA?AW4parameter_type@12@_J@Z 0000000180033660 f i libucrt:output.obj
 0001:00032668       ?get_parameter_type@?$positional_parameter_base@DV?$stream_output_adapter@D@__crt_stdio_output@@@__crt_stdio_output@@CA?AW4parameter_type@12@_K@Z 0000000180033668 f i libucrt:output.obj
 0001:00032670       ?get_parameter_type@?$positional_parameter_base@DV?$stream_output_adapter@D@__crt_stdio_output@@@__crt_stdio_output@@CA?AW4parameter_type@12@_W@Z 0000000180033670 f i libucrt:output.obj
 0001:00032678       ?get_parameter_type@?$positional_parameter_base@DV?$string_output_adapter@D@__crt_stdio_output@@@__crt_stdio_output@@CA?AW4parameter_type@12@F@Z 0000000180033678 f i libucrt:output.obj
 0001:00032680       ?get_parameter_type@?$positional_parameter_base@DV?$string_output_adapter@D@__crt_stdio_output@@@__crt_stdio_output@@CA?AW4parameter_type@12@G@Z 0000000180033680 f i libucrt:output.obj
 0001:00032688       ?get_parameter_type@?$positional_parameter_base@DV?$string_output_adapter@D@__crt_stdio_output@@@__crt_stdio_output@@CA?AW4parameter_type@12@H@Z 0000000180033688 f i libucrt:output.obj
 0001:00032690       ?get_parameter_type@?$positional_parameter_base@DV?$string_output_adapter@D@__crt_stdio_output@@@__crt_stdio_output@@CA?AW4parameter_type@12@I@Z 0000000180033690 f i libucrt:output.obj
 0001:00032698       ?get_parameter_type@?$positional_parameter_base@DV?$string_output_adapter@D@__crt_stdio_output@@@__crt_stdio_output@@CA?AW4parameter_type@12@U_CRT_DOUBLE@@@Z 0000000180033698 f i libucrt:output.obj
 0001:000326a0       ?get_parameter_type@?$positional_parameter_base@DV?$string_output_adapter@D@__crt_stdio_output@@@__crt_stdio_output@@CA?AW4parameter_type@12@_J@Z 00000001800336a0 f i libucrt:output.obj
 0001:000326a8       ?get_parameter_type@?$positional_parameter_base@DV?$string_output_adapter@D@__crt_stdio_output@@@__crt_stdio_output@@CA?AW4parameter_type@12@_K@Z 00000001800336a8 f i libucrt:output.obj
 0001:000326b0       ?get_parameter_type@?$positional_parameter_base@DV?$string_output_adapter@D@__crt_stdio_output@@@__crt_stdio_output@@CA?AW4parameter_type@12@_W@Z 00000001800336b0 f i libucrt:output.obj
 0001:000326b8       ?get_parameter_type@?$positional_parameter_base@_WV?$stream_output_adapter@_W@__crt_stdio_output@@@__crt_stdio_output@@CA?AW4parameter_type@12@F@Z 00000001800336b8 f i libucrt:output.obj
 0001:000326c0       ?get_parameter_type@?$positional_parameter_base@_WV?$stream_output_adapter@_W@__crt_stdio_output@@@__crt_stdio_output@@CA?AW4parameter_type@12@G@Z 00000001800336c0 f i libucrt:output.obj
 0001:000326c8       ?get_parameter_type@?$positional_parameter_base@_WV?$stream_output_adapter@_W@__crt_stdio_output@@@__crt_stdio_output@@CA?AW4parameter_type@12@H@Z 00000001800336c8 f i libucrt:output.obj
 0001:000326d0       ?get_parameter_type@?$positional_parameter_base@_WV?$stream_output_adapter@_W@__crt_stdio_output@@@__crt_stdio_output@@CA?AW4parameter_type@12@I@Z 00000001800336d0 f i libucrt:output.obj
 0001:000326d8       ?get_parameter_type@?$positional_parameter_base@_WV?$stream_output_adapter@_W@__crt_stdio_output@@@__crt_stdio_output@@CA?AW4parameter_type@12@U_CRT_DOUBLE@@@Z 00000001800336d8 f i libucrt:output.obj
 0001:000326e0       ?get_parameter_type@?$positional_parameter_base@_WV?$stream_output_adapter@_W@__crt_stdio_output@@@__crt_stdio_output@@CA?AW4parameter_type@12@_J@Z 00000001800336e0 f i libucrt:output.obj
 0001:000326e8       ?get_parameter_type@?$positional_parameter_base@_WV?$stream_output_adapter@_W@__crt_stdio_output@@@__crt_stdio_output@@CA?AW4parameter_type@12@_K@Z 00000001800336e8 f i libucrt:output.obj
 0001:000326f0       ?get_parameter_type@?$positional_parameter_base@_WV?$stream_output_adapter@_W@__crt_stdio_output@@@__crt_stdio_output@@CA?AW4parameter_type@12@_W@Z 00000001800336f0 f i libucrt:output.obj
 0001:000326f8       ?get_parameter_type@?$positional_parameter_base@_WV?$string_output_adapter@_W@__crt_stdio_output@@@__crt_stdio_output@@CA?AW4parameter_type@12@F@Z 00000001800336f8 f i libucrt:output.obj
 0001:00032700       ?get_parameter_type@?$positional_parameter_base@_WV?$string_output_adapter@_W@__crt_stdio_output@@@__crt_stdio_output@@CA?AW4parameter_type@12@G@Z 0000000180033700 f i libucrt:output.obj
 0001:00032708       ?get_parameter_type@?$positional_parameter_base@_WV?$string_output_adapter@_W@__crt_stdio_output@@@__crt_stdio_output@@CA?AW4parameter_type@12@H@Z 0000000180033708 f i libucrt:output.obj
 0001:00032710       ?get_parameter_type@?$positional_parameter_base@_WV?$string_output_adapter@_W@__crt_stdio_output@@@__crt_stdio_output@@CA?AW4parameter_type@12@I@Z 0000000180033710 f i libucrt:output.obj
 0001:00032718       ?get_parameter_type@?$positional_parameter_base@_WV?$string_output_adapter@_W@__crt_stdio_output@@@__crt_stdio_output@@CA?AW4parameter_type@12@U_CRT_DOUBLE@@@Z 0000000180033718 f i libucrt:output.obj
 0001:00032720       ?get_parameter_type@?$positional_parameter_base@_WV?$string_output_adapter@_W@__crt_stdio_output@@@__crt_stdio_output@@CA?AW4parameter_type@12@_J@Z 0000000180033720 f i libucrt:output.obj
 0001:00032728       ?get_parameter_type@?$positional_parameter_base@_WV?$string_output_adapter@_W@__crt_stdio_output@@@__crt_stdio_output@@CA?AW4parameter_type@12@_K@Z 0000000180033728 f i libucrt:output.obj
 0001:00032730       ?get_parameter_type@?$positional_parameter_base@_WV?$string_output_adapter@_W@__crt_stdio_output@@@__crt_stdio_output@@CA?AW4parameter_type@12@_W@Z 0000000180033730 f i libucrt:output.obj
 0001:00032738       ?has_flag@?$output_processor@DV?$stream_output_adapter@D@__crt_stdio_output@@V?$format_validation_base@DV?$stream_output_adapter@D@__crt_stdio_output@@@2@@__crt_stdio_output@@AEBA_NI@Z 0000000180033738 f i libucrt:output.obj
 0001:00032740       ?has_flag@?$output_processor@DV?$stream_output_adapter@D@__crt_stdio_output@@V?$positional_parameter_base@DV?$stream_output_adapter@D@__crt_stdio_output@@@2@@__crt_stdio_output@@AEBA_NI@Z 0000000180033740 f i libucrt:output.obj
 0001:00032748       ?has_flag@?$output_processor@DV?$stream_output_adapter@D@__crt_stdio_output@@V?$standard_base@DV?$stream_output_adapter@D@__crt_stdio_output@@@2@@__crt_stdio_output@@AEBA_NI@Z 0000000180033748 f i libucrt:output.obj
 0001:00032750       ?has_flag@?$output_processor@DV?$string_output_adapter@D@__crt_stdio_output@@V?$format_validation_base@DV?$string_output_adapter@D@__crt_stdio_output@@@2@@__crt_stdio_output@@AEBA_NI@Z 0000000180033750 f i libucrt:output.obj
 0001:00032758       ?has_flag@?$output_processor@DV?$string_output_adapter@D@__crt_stdio_output@@V?$positional_parameter_base@DV?$string_output_adapter@D@__crt_stdio_output@@@2@@__crt_stdio_output@@AEBA_NI@Z 0000000180033758 f i libucrt:output.obj
 0001:00032760       ?has_flag@?$output_processor@DV?$string_output_adapter@D@__crt_stdio_output@@V?$standard_base@DV?$string_output_adapter@D@__crt_stdio_output@@@2@@__crt_stdio_output@@AEBA_NI@Z 0000000180033760 f i libucrt:output.obj
 0001:00032768       ?has_flag@?$output_processor@_WV?$stream_output_adapter@_W@__crt_stdio_output@@V?$format_validation_base@_WV?$stream_output_adapter@_W@__crt_stdio_output@@@2@@__crt_stdio_output@@AEBA_NI@Z 0000000180033768 f i libucrt:output.obj
 0001:00032770       ?has_flag@?$output_processor@_WV?$stream_output_adapter@_W@__crt_stdio_output@@V?$positional_parameter_base@_WV?$stream_output_adapter@_W@__crt_stdio_output@@@2@@__crt_stdio_output@@AEBA_NI@Z 0000000180033770 f i libucrt:output.obj
 0001:00032778       ?has_flag@?$output_processor@_WV?$stream_output_adapter@_W@__crt_stdio_output@@V?$standard_base@_WV?$stream_output_adapter@_W@__crt_stdio_output@@@2@@__crt_stdio_output@@AEBA_NI@Z 0000000180033778 f i libucrt:output.obj
 0001:00032780       ?has_flag@?$output_processor@_WV?$string_output_adapter@_W@__crt_stdio_output@@V?$format_validation_base@_WV?$string_output_adapter@_W@__crt_stdio_output@@@2@@__crt_stdio_output@@AEBA_NI@Z 0000000180033780 f i libucrt:output.obj
 0001:00032788       ?has_flag@?$output_processor@_WV?$string_output_adapter@_W@__crt_stdio_output@@V?$positional_parameter_base@_WV?$string_output_adapter@_W@__crt_stdio_output@@@2@@__crt_stdio_output@@AEBA_NI@Z 0000000180033788 f i libucrt:output.obj
 0001:00032790       ?has_flag@?$output_processor@_WV?$string_output_adapter@_W@__crt_stdio_output@@V?$standard_base@_WV?$string_output_adapter@_W@__crt_stdio_output@@@2@@__crt_stdio_output@@AEBA_NI@Z 0000000180033790 f i libucrt:output.obj
 0001:00032798       ?is_positional_parameter_reappearance_consistent@?$positional_parameter_base@DV?$stream_output_adapter@D@__crt_stdio_output@@@__crt_stdio_output@@AEAA_NAEBUparameter_data@12@W4parameter_type@12@DW4length_modifier@2@@Z 0000000180033798 f i libucrt:output.obj
 0001:000329cc       ?is_positional_parameter_reappearance_consistent@?$positional_parameter_base@DV?$string_output_adapter@D@__crt_stdio_output@@@__crt_stdio_output@@AEAA_NAEBUparameter_data@12@W4parameter_type@12@DW4length_modifier@2@@Z 00000001800339cc f i libucrt:output.obj
 0001:00032c00       ?is_positional_parameter_reappearance_consistent@?$positional_parameter_base@_WV?$stream_output_adapter@_W@__crt_stdio_output@@@__crt_stdio_output@@AEAA_NAEBUparameter_data@12@W4parameter_type@12@_WW4length_modifier@2@@Z 0000000180033c00 f i libucrt:output.obj
 0001:00032e04       ?is_positional_parameter_reappearance_consistent@?$positional_parameter_base@_WV?$string_output_adapter@_W@__crt_stdio_output@@@__crt_stdio_output@@AEAA_NAEBUparameter_data@12@W4parameter_type@12@_WW4length_modifier@2@@Z 0000000180033e04 f i libucrt:output.obj
 0001:00033008       ?is_string_backed@__crt_stdio_stream@@QEBA_NXZ 0000000180034008 f i libucrt:output.obj
 0001:00033018       ?maximum_signed_value@__crt_strtox@@YAJK@Z 0000000180034018 f i libucrt:output.obj
 0001:00033020       ?minimum_signed_value@__crt_strtox@@YAJK@Z 0000000180034020 f i libucrt:output.obj
 0001:00033028       ?narrow_null_string@?$output_processor@DV?$stream_output_adapter@D@__crt_stdio_output@@V?$format_validation_base@DV?$stream_output_adapter@D@__crt_stdio_output@@@2@@__crt_stdio_output@@CAPEADXZ 0000000180034028 f i libucrt:output.obj
 0001:00033030       ?narrow_null_string@?$output_processor@DV?$stream_output_adapter@D@__crt_stdio_output@@V?$positional_parameter_base@DV?$stream_output_adapter@D@__crt_stdio_output@@@2@@__crt_stdio_output@@CAPEADXZ 0000000180034030 f i libucrt:output.obj
 0001:00033038       ?narrow_null_string@?$output_processor@DV?$stream_output_adapter@D@__crt_stdio_output@@V?$standard_base@DV?$stream_output_adapter@D@__crt_stdio_output@@@2@@__crt_stdio_output@@CAPEADXZ 0000000180034038 f i libucrt:output.obj
 0001:00033040       ?narrow_null_string@?$output_processor@DV?$string_output_adapter@D@__crt_stdio_output@@V?$format_validation_base@DV?$string_output_adapter@D@__crt_stdio_output@@@2@@__crt_stdio_output@@CAPEADXZ 0000000180034040 f i libucrt:output.obj
 0001:00033048       ?narrow_null_string@?$output_processor@DV?$string_output_adapter@D@__crt_stdio_output@@V?$positional_parameter_base@DV?$string_output_adapter@D@__crt_stdio_output@@@2@@__crt_stdio_output@@CAPEADXZ 0000000180034048 f i libucrt:output.obj
 0001:00033050       ?narrow_null_string@?$output_processor@DV?$string_output_adapter@D@__crt_stdio_output@@V?$standard_base@DV?$string_output_adapter@D@__crt_stdio_output@@@2@@__crt_stdio_output@@CAPEADXZ 0000000180034050 f i libucrt:output.obj
 0001:00033058       ?narrow_null_string@?$output_processor@_WV?$stream_output_adapter@_W@__crt_stdio_output@@V?$format_validation_base@_WV?$stream_output_adapter@_W@__crt_stdio_output@@@2@@__crt_stdio_output@@CAPEADXZ 0000000180034058 f i libucrt:output.obj
 0001:00033060       ?narrow_null_string@?$output_processor@_WV?$stream_output_adapter@_W@__crt_stdio_output@@V?$positional_parameter_base@_WV?$stream_output_adapter@_W@__crt_stdio_output@@@2@@__crt_stdio_output@@CAPEADXZ 0000000180034060 f i libucrt:output.obj
 0001:00033068       ?narrow_null_string@?$output_processor@_WV?$stream_output_adapter@_W@__crt_stdio_output@@V?$standard_base@_WV?$stream_output_adapter@_W@__crt_stdio_output@@@2@@__crt_stdio_output@@CAPEADXZ 0000000180034068 f i libucrt:output.obj
 0001:00033070       ?narrow_null_string@?$output_processor@_WV?$string_output_adapter@_W@__crt_stdio_output@@V?$format_validation_base@_WV?$string_output_adapter@_W@__crt_stdio_output@@@2@@__crt_stdio_output@@CAPEADXZ 0000000180034070 f i libucrt:output.obj
 0001:00033078       ?narrow_null_string@?$output_processor@_WV?$string_output_adapter@_W@__crt_stdio_output@@V?$positional_parameter_base@_WV?$string_output_adapter@_W@__crt_stdio_output@@@2@@__crt_stdio_output@@CAPEADXZ 0000000180034078 f i libucrt:output.obj
 0001:00033080       ?narrow_null_string@?$output_processor@_WV?$string_output_adapter@_W@__crt_stdio_output@@V?$standard_base@_WV?$string_output_adapter@_W@__crt_stdio_output@@@2@@__crt_stdio_output@@CAPEADXZ 0000000180034080 f i libucrt:output.obj
 0001:00033088       ?parse_digit@__crt_strtox@@YAID@Z 0000000180034088 f i libucrt:output.obj
 0001:000330b8       ?parse_digit@__crt_strtox@@YAI_W@Z 00000001800340b8 f i libucrt:output.obj
 0001:00033274       ?parse_int_from_format_string@?$output_processor@DV?$stream_output_adapter@D@__crt_stdio_output@@V?$format_validation_base@DV?$stream_output_adapter@D@__crt_stdio_output@@@2@@__crt_stdio_output@@AEAA_NQEAH@Z 0000000180034274 f i libucrt:output.obj
 0001:00033304       ?parse_int_from_format_string@?$output_processor@DV?$stream_output_adapter@D@__crt_stdio_output@@V?$positional_parameter_base@DV?$stream_output_adapter@D@__crt_stdio_output@@@2@@__crt_stdio_output@@AEAA_NQEAH@Z 0000000180034304 f i libucrt:output.obj
 0001:00033394       ?parse_int_from_format_string@?$output_processor@DV?$stream_output_adapter@D@__crt_stdio_output@@V?$standard_base@DV?$stream_output_adapter@D@__crt_stdio_output@@@2@@__crt_stdio_output@@AEAA_NQEAH@Z 0000000180034394 f i libucrt:output.obj
 0001:00033424       ?parse_int_from_format_string@?$output_processor@DV?$string_output_adapter@D@__crt_stdio_output@@V?$format_validation_base@DV?$string_output_adapter@D@__crt_stdio_output@@@2@@__crt_stdio_output@@AEAA_NQEAH@Z 0000000180034424 f i libucrt:output.obj
 0001:000334b4       ?parse_int_from_format_string@?$output_processor@DV?$string_output_adapter@D@__crt_stdio_output@@V?$positional_parameter_base@DV?$string_output_adapter@D@__crt_stdio_output@@@2@@__crt_stdio_output@@AEAA_NQEAH@Z 00000001800344b4 f i libucrt:output.obj
 0001:00033544       ?parse_int_from_format_string@?$output_processor@DV?$string_output_adapter@D@__crt_stdio_output@@V?$standard_base@DV?$string_output_adapter@D@__crt_stdio_output@@@2@@__crt_stdio_output@@AEAA_NQEAH@Z 0000000180034544 f i libucrt:output.obj
 0001:000335d4       ?parse_int_from_format_string@?$output_processor@_WV?$stream_output_adapter@_W@__crt_stdio_output@@V?$format_validation_base@_WV?$stream_output_adapter@_W@__crt_stdio_output@@@2@@__crt_stdio_output@@AEAA_NQEAH@Z 00000001800345d4 f i libucrt:output.obj
 0001:00033664       ?parse_int_from_format_string@?$output_processor@_WV?$stream_output_adapter@_W@__crt_stdio_output@@V?$positional_parameter_base@_WV?$stream_output_adapter@_W@__crt_stdio_output@@@2@@__crt_stdio_output@@AEAA_NQEAH@Z 0000000180034664 f i libucrt:output.obj
 0001:000336f4       ?parse_int_from_format_string@?$output_processor@_WV?$stream_output_adapter@_W@__crt_stdio_output@@V?$standard_base@_WV?$stream_output_adapter@_W@__crt_stdio_output@@@2@@__crt_stdio_output@@AEAA_NQEAH@Z 00000001800346f4 f i libucrt:output.obj
 0001:00033784       ?parse_int_from_format_string@?$output_processor@_WV?$string_output_adapter@_W@__crt_stdio_output@@V?$format_validation_base@_WV?$string_output_adapter@_W@__crt_stdio_output@@@2@@__crt_stdio_output@@AEAA_NQEAH@Z 0000000180034784 f i libucrt:output.obj
 0001:00033814       ?parse_int_from_format_string@?$output_processor@_WV?$string_output_adapter@_W@__crt_stdio_output@@V?$positional_parameter_base@_WV?$string_output_adapter@_W@__crt_stdio_output@@@2@@__crt_stdio_output@@AEAA_NQEAH@Z 0000000180034814 f i libucrt:output.obj
 0001:000338a4       ?parse_int_from_format_string@?$output_processor@_WV?$string_output_adapter@_W@__crt_stdio_output@@V?$standard_base@_WV?$string_output_adapter@_W@__crt_stdio_output@@@2@@__crt_stdio_output@@AEAA_NQEAH@Z 00000001800348a4 f i libucrt:output.obj
 0001:00033934       ?process@?$output_processor@DV?$stream_output_adapter@D@__crt_stdio_output@@V?$format_validation_base@DV?$stream_output_adapter@D@__crt_stdio_output@@@2@@__crt_stdio_output@@QEAAHXZ 0000000180034934 f i libucrt:output.obj
 0001:00033cd0       ?process@?$output_processor@DV?$stream_output_adapter@D@__crt_stdio_output@@V?$positional_parameter_base@DV?$stream_output_adapter@D@__crt_stdio_output@@@2@@__crt_stdio_output@@QEAAHXZ 0000000180034cd0 f i libucrt:output.obj
 0001:00034104       ?process@?$output_processor@DV?$stream_output_adapter@D@__crt_stdio_output@@V?$standard_base@DV?$stream_output_adapter@D@__crt_stdio_output@@@2@@__crt_stdio_output@@QEAAHXZ 0000000180035104 f i libucrt:output.obj
 0001:0003449c       ?process@?$output_processor@DV?$string_output_adapter@D@__crt_stdio_output@@V?$format_validation_base@DV?$string_output_adapter@D@__crt_stdio_output@@@2@@__crt_stdio_output@@QEAAHXZ 000000018003549c f i libucrt:output.obj
 0001:00034820       ?process@?$output_processor@DV?$string_output_adapter@D@__crt_stdio_output@@V?$positional_parameter_base@DV?$string_output_adapter@D@__crt_stdio_output@@@2@@__crt_stdio_output@@QEAAHXZ 0000000180035820 f i libucrt:output.obj
 0001:00034c38       ?process@?$output_processor@DV?$string_output_adapter@D@__crt_stdio_output@@V?$standard_base@DV?$string_output_adapter@D@__crt_stdio_output@@@2@@__crt_stdio_output@@QEAAHXZ 0000000180035c38 f i libucrt:output.obj
 0001:00034fb8       ?process@?$output_processor@_WV?$stream_output_adapter@_W@__crt_stdio_output@@V?$format_validation_base@_WV?$stream_output_adapter@_W@__crt_stdio_output@@@2@@__crt_stdio_output@@QEAAHXZ 0000000180035fb8 f i libucrt:output.obj
 0001:00035298       ?process@?$output_processor@_WV?$stream_output_adapter@_W@__crt_stdio_output@@V?$positional_parameter_base@_WV?$stream_output_adapter@_W@__crt_stdio_output@@@2@@__crt_stdio_output@@QEAAHXZ 0000000180036298 f i libucrt:output.obj
 0001:00035608       ?process@?$output_processor@_WV?$stream_output_adapter@_W@__crt_stdio_output@@V?$standard_base@_WV?$stream_output_adapter@_W@__crt_stdio_output@@@2@@__crt_stdio_output@@QEAAHXZ 0000000180036608 f i libucrt:output.obj
 0001:000358d8       ?process@?$output_processor@_WV?$string_output_adapter@_W@__crt_stdio_output@@V?$format_validation_base@_WV?$string_output_adapter@_W@__crt_stdio_output@@@2@@__crt_stdio_output@@QEAAHXZ 00000001800368d8 f i libucrt:output.obj
 0001:00035bb0       ?process@?$output_processor@_WV?$string_output_adapter@_W@__crt_stdio_output@@V?$positional_parameter_base@_WV?$string_output_adapter@_W@__crt_stdio_output@@@2@@__crt_stdio_output@@QEAAHXZ 0000000180036bb0 f i libucrt:output.obj
 0001:00035f1c       ?process@?$output_processor@_WV?$string_output_adapter@_W@__crt_stdio_output@@V?$standard_base@_WV?$string_output_adapter@_W@__crt_stdio_output@@@2@@__crt_stdio_output@@QEAAHXZ 0000000180036f1c f i libucrt:output.obj
 0001:000361f4       ?public_stream@__crt_stdio_stream@@QEBAPEAU_iobuf@@XZ 00000001800371f4 f i libucrt:output.obj
 0001:000361f8       ?restore_state@?$c_string_character_source@D@__crt_strtox@@QEAA_NQEBD@Z 00000001800371f8 f i libucrt:output.obj
 0001:00036200       ?restore_state@?$c_string_character_source@_W@__crt_strtox@@QEAA_NQEB_W@Z 0000000180037200 f i libucrt:output.obj
 0001:00036208       ?save_state@?$c_string_character_source@D@__crt_strtox@@QEBAPEBDXZ 0000000180037208 f i libucrt:output.obj
 0001:0003620c       ?save_state@?$c_string_character_source@_W@__crt_strtox@@QEBAPEB_WXZ 000000018003720c f i libucrt:output.obj
 0001:00036210       ?set_flag@?$output_processor@DV?$stream_output_adapter@D@__crt_stdio_output@@V?$format_validation_base@DV?$stream_output_adapter@D@__crt_stdio_output@@@2@@__crt_stdio_output@@AEAAXI@Z 0000000180037210 f i libucrt:output.obj
 0001:00036214       ?set_flag@?$output_processor@DV?$stream_output_adapter@D@__crt_stdio_output@@V?$positional_parameter_base@DV?$stream_output_adapter@D@__crt_stdio_output@@@2@@__crt_stdio_output@@AEAAXI@Z 0000000180037214 f i libucrt:output.obj
 0001:00036218       ?set_flag@?$output_processor@DV?$stream_output_adapter@D@__crt_stdio_output@@V?$standard_base@DV?$stream_output_adapter@D@__crt_stdio_output@@@2@@__crt_stdio_output@@AEAAXI@Z 0000000180037218 f i libucrt:output.obj
 0001:0003621c       ?set_flag@?$output_processor@DV?$string_output_adapter@D@__crt_stdio_output@@V?$format_validation_base@DV?$string_output_adapter@D@__crt_stdio_output@@@2@@__crt_stdio_output@@AEAAXI@Z 000000018003721c f i libucrt:output.obj
 0001:00036220       ?set_flag@?$output_processor@DV?$string_output_adapter@D@__crt_stdio_output@@V?$positional_parameter_base@DV?$string_output_adapter@D@__crt_stdio_output@@@2@@__crt_stdio_output@@AEAAXI@Z 0000000180037220 f i libucrt:output.obj
 0001:00036224       ?set_flag@?$output_processor@DV?$string_output_adapter@D@__crt_stdio_output@@V?$standard_base@DV?$string_output_adapter@D@__crt_stdio_output@@@2@@__crt_stdio_output@@AEAAXI@Z 0000000180037224 f i libucrt:output.obj
 0001:00036228       ?set_flag@?$output_processor@_WV?$stream_output_adapter@_W@__crt_stdio_output@@V?$format_validation_base@_WV?$stream_output_adapter@_W@__crt_stdio_output@@@2@@__crt_stdio_output@@AEAAXI@Z 0000000180037228 f i libucrt:output.obj
 0001:0003622c       ?set_flag@?$output_processor@_WV?$stream_output_adapter@_W@__crt_stdio_output@@V?$positional_parameter_base@_WV?$stream_output_adapter@_W@__crt_stdio_output@@@2@@__crt_stdio_output@@AEAAXI@Z 000000018003722c f i libucrt:output.obj
 0001:00036230       ?set_flag@?$output_processor@_WV?$stream_output_adapter@_W@__crt_stdio_output@@V?$standard_base@_WV?$stream_output_adapter@_W@__crt_stdio_output@@@2@@__crt_stdio_output@@AEAAXI@Z 0000000180037230 f i libucrt:output.obj
 0001:00036234       ?set_flag@?$output_processor@_WV?$string_output_adapter@_W@__crt_stdio_output@@V?$format_validation_base@_WV?$string_output_adapter@_W@__crt_stdio_output@@@2@@__crt_stdio_output@@AEAAXI@Z 0000000180037234 f i libucrt:output.obj
 0001:00036238       ?set_flag@?$output_processor@_WV?$string_output_adapter@_W@__crt_stdio_output@@V?$positional_parameter_base@_WV?$string_output_adapter@_W@__crt_stdio_output@@@2@@__crt_stdio_output@@AEAAXI@Z 0000000180037238 f i libucrt:output.obj
 0001:0003623c       ?set_flag@?$output_processor@_WV?$string_output_adapter@_W@__crt_stdio_output@@V?$standard_base@_WV?$string_output_adapter@_W@__crt_stdio_output@@@2@@__crt_stdio_output@@AEAAXI@Z 000000018003723c f i libucrt:output.obj
 0001:00036240       ?should_format@?$positional_parameter_base@DV?$stream_output_adapter@D@__crt_stdio_output@@@__crt_stdio_output@@IEAA_NXZ 0000000180037240 f i libucrt:output.obj
 0001:00036258       ?should_format@?$positional_parameter_base@DV?$string_output_adapter@D@__crt_stdio_output@@@__crt_stdio_output@@IEAA_NXZ 0000000180037258 f i libucrt:output.obj
 0001:00036270       ?should_format@?$positional_parameter_base@_WV?$stream_output_adapter@_W@__crt_stdio_output@@@__crt_stdio_output@@IEAA_NXZ 0000000180037270 f i libucrt:output.obj
 0001:00036288       ?should_format@?$positional_parameter_base@_WV?$string_output_adapter@_W@__crt_stdio_output@@@__crt_stdio_output@@IEAA_NXZ 0000000180037288 f i libucrt:output.obj
 0001:000362a0       ?should_format@?$standard_base@DV?$stream_output_adapter@D@__crt_stdio_output@@@__crt_stdio_output@@IEAA_NXZ 00000001800372a0 f i libucrt:output.obj
 0001:000362a4       ?should_format@?$standard_base@DV?$string_output_adapter@D@__crt_stdio_output@@@__crt_stdio_output@@IEAA_NXZ 00000001800372a4 f i libucrt:output.obj
 0001:000362a8       ?should_format@?$standard_base@_WV?$stream_output_adapter@_W@__crt_stdio_output@@@__crt_stdio_output@@IEAA_NXZ 00000001800372a8 f i libucrt:output.obj
 0001:000362ac       ?should_format@?$standard_base@_WV?$string_output_adapter@_W@__crt_stdio_output@@@__crt_stdio_output@@IEAA_NXZ 00000001800372ac f i libucrt:output.obj
 0001:000362b0       ?should_skip_normal_state_processing@?$positional_parameter_base@DV?$stream_output_adapter@D@__crt_stdio_output@@@__crt_stdio_output@@IEAA_NXZ 00000001800372b0 f i libucrt:output.obj
 0001:000362dc       ?should_skip_normal_state_processing@?$positional_parameter_base@DV?$string_output_adapter@D@__crt_stdio_output@@@__crt_stdio_output@@IEAA_NXZ 00000001800372dc f i libucrt:output.obj
 0001:00036308       ?should_skip_normal_state_processing@?$positional_parameter_base@_WV?$stream_output_adapter@_W@__crt_stdio_output@@@__crt_stdio_output@@IEAA_NXZ 0000000180037308 f i libucrt:output.obj
 0001:00036334       ?should_skip_normal_state_processing@?$positional_parameter_base@_WV?$string_output_adapter@_W@__crt_stdio_output@@@__crt_stdio_output@@IEAA_NXZ 0000000180037334 f i libucrt:output.obj
 0001:00036360       ?should_skip_normal_state_processing@?$standard_base@DV?$stream_output_adapter@D@__crt_stdio_output@@@__crt_stdio_output@@IEAA_NXZ 0000000180037360 f i libucrt:output.obj
 0001:00036364       ?should_skip_normal_state_processing@?$standard_base@DV?$string_output_adapter@D@__crt_stdio_output@@@__crt_stdio_output@@IEAA_NXZ 0000000180037364 f i libucrt:output.obj
 0001:00036368       ?should_skip_normal_state_processing@?$standard_base@_WV?$stream_output_adapter@_W@__crt_stdio_output@@@__crt_stdio_output@@IEAA_NXZ 0000000180037368 f i libucrt:output.obj
 0001:0003636c       ?should_skip_normal_state_processing@?$standard_base@_WV?$string_output_adapter@_W@__crt_stdio_output@@@__crt_stdio_output@@IEAA_NXZ 000000018003736c f i libucrt:output.obj
 0001:00036370       ?should_skip_type_state_output@?$positional_parameter_base@DV?$stream_output_adapter@D@__crt_stdio_output@@@__crt_stdio_output@@IEBA_NXZ 0000000180037370 f i libucrt:output.obj
 0001:0003638c       ?should_skip_type_state_output@?$positional_parameter_base@DV?$string_output_adapter@D@__crt_stdio_output@@@__crt_stdio_output@@IEBA_NXZ 000000018003738c f i libucrt:output.obj
 0001:000363a8       ?should_skip_type_state_output@?$positional_parameter_base@_WV?$stream_output_adapter@_W@__crt_stdio_output@@@__crt_stdio_output@@IEBA_NXZ 00000001800373a8 f i libucrt:output.obj
 0001:000363c4       ?should_skip_type_state_output@?$positional_parameter_base@_WV?$string_output_adapter@_W@__crt_stdio_output@@@__crt_stdio_output@@IEBA_NXZ 00000001800373c4 f i libucrt:output.obj
 0001:000363e0       ?should_skip_type_state_output@?$standard_base@DV?$stream_output_adapter@D@__crt_stdio_output@@@__crt_stdio_output@@IEBA_NXZ 00000001800373e0 f i libucrt:output.obj
 0001:000363e4       ?should_skip_type_state_output@?$standard_base@DV?$string_output_adapter@D@__crt_stdio_output@@@__crt_stdio_output@@IEBA_NXZ 00000001800373e4 f i libucrt:output.obj
 0001:000363e8       ?should_skip_type_state_output@?$standard_base@_WV?$stream_output_adapter@_W@__crt_stdio_output@@@__crt_stdio_output@@IEBA_NXZ 00000001800373e8 f i libucrt:output.obj
 0001:000363ec       ?should_skip_type_state_output@?$standard_base@_WV?$string_output_adapter@_W@__crt_stdio_output@@@__crt_stdio_output@@IEBA_NXZ 00000001800373ec f i libucrt:output.obj
 0001:000363f0       ?state_case_dot@?$output_processor@DV?$stream_output_adapter@D@__crt_stdio_output@@V?$format_validation_base@DV?$stream_output_adapter@D@__crt_stdio_output@@@2@@__crt_stdio_output@@AEAA_NXZ 00000001800373f0 f i libucrt:output.obj
 0001:000363f8       ?state_case_dot@?$output_processor@DV?$stream_output_adapter@D@__crt_stdio_output@@V?$positional_parameter_base@DV?$stream_output_adapter@D@__crt_stdio_output@@@2@@__crt_stdio_output@@AEAA_NXZ 00000001800373f8 f i libucrt:output.obj
 0001:00036400       ?state_case_dot@?$output_processor@DV?$stream_output_adapter@D@__crt_stdio_output@@V?$standard_base@DV?$stream_output_adapter@D@__crt_stdio_output@@@2@@__crt_stdio_output@@AEAA_NXZ 0000000180037400 f i libucrt:output.obj
 0001:00036408       ?state_case_dot@?$output_processor@DV?$string_output_adapter@D@__crt_stdio_output@@V?$format_validation_base@DV?$string_output_adapter@D@__crt_stdio_output@@@2@@__crt_stdio_output@@AEAA_NXZ 0000000180037408 f i libucrt:output.obj
 0001:00036410       ?state_case_dot@?$output_processor@DV?$string_output_adapter@D@__crt_stdio_output@@V?$positional_parameter_base@DV?$string_output_adapter@D@__crt_stdio_output@@@2@@__crt_stdio_output@@AEAA_NXZ 0000000180037410 f i libucrt:output.obj
 0001:00036418       ?state_case_dot@?$output_processor@DV?$string_output_adapter@D@__crt_stdio_output@@V?$standard_base@DV?$string_output_adapter@D@__crt_stdio_output@@@2@@__crt_stdio_output@@AEAA_NXZ 0000000180037418 f i libucrt:output.obj
 0001:00036420       ?state_case_dot@?$output_processor@_WV?$stream_output_adapter@_W@__crt_stdio_output@@V?$format_validation_base@_WV?$stream_output_adapter@_W@__crt_stdio_output@@@2@@__crt_stdio_output@@AEAA_NXZ 0000000180037420 f i libucrt:output.obj
 0001:00036428       ?state_case_dot@?$output_processor@_WV?$stream_output_adapter@_W@__crt_stdio_output@@V?$positional_parameter_base@_WV?$stream_output_adapter@_W@__crt_stdio_output@@@2@@__crt_stdio_output@@AEAA_NXZ 0000000180037428 f i libucrt:output.obj
 0001:00036430       ?state_case_dot@?$output_processor@_WV?$stream_output_adapter@_W@__crt_stdio_output@@V?$standard_base@_WV?$stream_output_adapter@_W@__crt_stdio_output@@@2@@__crt_stdio_output@@AEAA_NXZ 0000000180037430 f i libucrt:output.obj
 0001:00036438       ?state_case_dot@?$output_processor@_WV?$string_output_adapter@_W@__crt_stdio_output@@V?$format_validation_base@_WV?$string_output_adapter@_W@__crt_stdio_output@@@2@@__crt_stdio_output@@AEAA_NXZ 0000000180037438 f i libucrt:output.obj
 0001:00036440       ?state_case_dot@?$output_processor@_WV?$string_output_adapter@_W@__crt_stdio_output@@V?$positional_parameter_base@_WV?$string_output_adapter@_W@__crt_stdio_output@@@2@@__crt_stdio_output@@AEAA_NXZ 0000000180037440 f i libucrt:output.obj
 0001:00036448       ?state_case_dot@?$output_processor@_WV?$string_output_adapter@_W@__crt_stdio_output@@V?$standard_base@_WV?$string_output_adapter@_W@__crt_stdio_output@@@2@@__crt_stdio_output@@AEAA_NXZ 0000000180037448 f i libucrt:output.obj
 0001:00036450       ?state_case_flag@?$output_processor@DV?$stream_output_adapter@D@__crt_stdio_output@@V?$format_validation_base@DV?$stream_output_adapter@D@__crt_stdio_output@@@2@@__crt_stdio_output@@AEAA_NXZ 0000000180037450 f i libucrt:output.obj
 0001:00036488       ?state_case_flag@?$output_processor@DV?$stream_output_adapter@D@__crt_stdio_output@@V?$positional_parameter_base@DV?$stream_output_adapter@D@__crt_stdio_output@@@2@@__crt_stdio_output@@AEAA_NXZ 0000000180037488 f i libucrt:output.obj
 0001:000364c0       ?state_case_flag@?$output_processor@DV?$stream_output_adapter@D@__crt_stdio_output@@V?$standard_base@DV?$stream_output_adapter@D@__crt_stdio_output@@@2@@__crt_stdio_output@@AEAA_NXZ 00000001800374c0 f i libucrt:output.obj
 0001:000364f8       ?state_case_flag@?$output_processor@DV?$string_output_adapter@D@__crt_stdio_output@@V?$format_validation_base@DV?$string_output_adapter@D@__crt_stdio_output@@@2@@__crt_stdio_output@@AEAA_NXZ 00000001800374f8 f i libucrt:output.obj
 0001:00036530       ?state_case_flag@?$output_processor@DV?$string_output_adapter@D@__crt_stdio_output@@V?$positional_parameter_base@DV?$string_output_adapter@D@__crt_stdio_output@@@2@@__crt_stdio_output@@AEAA_NXZ 0000000180037530 f i libucrt:output.obj
 0001:00036568       ?state_case_flag@?$output_processor@DV?$string_output_adapter@D@__crt_stdio_output@@V?$standard_base@DV?$string_output_adapter@D@__crt_stdio_output@@@2@@__crt_stdio_output@@AEAA_NXZ 0000000180037568 f i libucrt:output.obj
 0001:000365a0       ?state_case_flag@?$output_processor@_WV?$stream_output_adapter@_W@__crt_stdio_output@@V?$format_validation_base@_WV?$stream_output_adapter@_W@__crt_stdio_output@@@2@@__crt_stdio_output@@AEAA_NXZ 00000001800375a0 f i libucrt:output.obj
 0001:000365e4       ?state_case_flag@?$output_processor@_WV?$stream_output_adapter@_W@__crt_stdio_output@@V?$positional_parameter_base@_WV?$stream_output_adapter@_W@__crt_stdio_output@@@2@@__crt_stdio_output@@AEAA_NXZ 00000001800375e4 f i libucrt:output.obj
 0001:00036628       ?state_case_flag@?$output_processor@_WV?$stream_output_adapter@_W@__crt_stdio_output@@V?$standard_base@_WV?$stream_output_adapter@_W@__crt_stdio_output@@@2@@__crt_stdio_output@@AEAA_NXZ 0000000180037628 f i libucrt:output.obj
 0001:0003666c       ?state_case_flag@?$output_processor@_WV?$string_output_adapter@_W@__crt_stdio_output@@V?$format_validation_base@_WV?$string_output_adapter@_W@__crt_stdio_output@@@2@@__crt_stdio_output@@AEAA_NXZ 000000018003766c f i libucrt:output.obj
 0001:000366b0       ?state_case_flag@?$output_processor@_WV?$string_output_adapter@_W@__crt_stdio_output@@V?$positional_parameter_base@_WV?$string_output_adapter@_W@__crt_stdio_output@@@2@@__crt_stdio_output@@AEAA_NXZ 00000001800376b0 f i libucrt:output.obj
 0001:000366f4       ?state_case_flag@?$output_processor@_WV?$string_output_adapter@_W@__crt_stdio_output@@V?$standard_base@_WV?$string_output_adapter@_W@__crt_stdio_output@@@2@@__crt_stdio_output@@AEAA_NXZ 00000001800376f4 f i libucrt:output.obj
 0001:00036738       ?state_case_normal@?$output_processor@DV?$stream_output_adapter@D@__crt_stdio_output@@V?$format_validation_base@DV?$stream_output_adapter@D@__crt_stdio_output@@@2@@__crt_stdio_output@@AEAA_NXZ 0000000180037738 f i libucrt:output.obj
 0001:0003688c       ?state_case_normal@?$output_processor@DV?$stream_output_adapter@D@__crt_stdio_output@@V?$positional_parameter_base@DV?$stream_output_adapter@D@__crt_stdio_output@@@2@@__crt_stdio_output@@AEAA_NXZ 000000018003788c f i libucrt:output.obj
 0001:00036a0c       ?state_case_normal@?$output_processor@DV?$stream_output_adapter@D@__crt_stdio_output@@V?$standard_base@DV?$stream_output_adapter@D@__crt_stdio_output@@@2@@__crt_stdio_output@@AEAA_NXZ 0000000180037a0c f i libucrt:output.obj
 0001:00036b60       ?state_case_normal@?$output_processor@DV?$string_output_adapter@D@__crt_stdio_output@@V?$format_validation_base@DV?$string_output_adapter@D@__crt_stdio_output@@@2@@__crt_stdio_output@@AEAA_NXZ 0000000180037b60 f i libucrt:output.obj
 0001:00036cac       ?state_case_normal@?$output_processor@DV?$string_output_adapter@D@__crt_stdio_output@@V?$positional_parameter_base@DV?$string_output_adapter@D@__crt_stdio_output@@@2@@__crt_stdio_output@@AEAA_NXZ 0000000180037cac f i libucrt:output.obj
 0001:00036e24       ?state_case_normal@?$output_processor@DV?$string_output_adapter@D@__crt_stdio_output@@V?$standard_base@DV?$string_output_adapter@D@__crt_stdio_output@@@2@@__crt_stdio_output@@AEAA_NXZ 0000000180037e24 f i libucrt:output.obj
 0001:00036f70       ?state_case_normal@?$output_processor@_WV?$stream_output_adapter@_W@__crt_stdio_output@@V?$format_validation_base@_WV?$stream_output_adapter@_W@__crt_stdio_output@@@2@@__crt_stdio_output@@AEAA_NXZ 0000000180037f70 f i libucrt:output.obj
 0001:00036fd0       ?state_case_normal@?$output_processor@_WV?$stream_output_adapter@_W@__crt_stdio_output@@V?$positional_parameter_base@_WV?$stream_output_adapter@_W@__crt_stdio_output@@@2@@__crt_stdio_output@@AEAA_NXZ 0000000180037fd0 f i libucrt:output.obj
 0001:00037054       ?state_case_normal@?$output_processor@_WV?$stream_output_adapter@_W@__crt_stdio_output@@V?$standard_base@_WV?$stream_output_adapter@_W@__crt_stdio_output@@@2@@__crt_stdio_output@@AEAA_NXZ 0000000180038054 f i libucrt:output.obj
 0001:000370b4       ?state_case_normal@?$output_processor@_WV?$string_output_adapter@_W@__crt_stdio_output@@V?$format_validation_base@_WV?$string_output_adapter@_W@__crt_stdio_output@@@2@@__crt_stdio_output@@AEAA_NXZ 00000001800380b4 f i libucrt:output.obj
 0001:00037108       ?state_case_normal@?$output_processor@_WV?$string_output_adapter@_W@__crt_stdio_output@@V?$positional_parameter_base@_WV?$string_output_adapter@_W@__crt_stdio_output@@@2@@__crt_stdio_output@@AEAA_NXZ 0000000180038108 f i libucrt:output.obj
 0001:00037180       ?state_case_normal@?$output_processor@_WV?$string_output_adapter@_W@__crt_stdio_output@@V?$standard_base@_WV?$string_output_adapter@_W@__crt_stdio_output@@@2@@__crt_stdio_output@@AEAA_NXZ 0000000180038180 f i libucrt:output.obj
 0001:000371d4       ?state_case_normal_common@?$output_processor@DV?$stream_output_adapter@D@__crt_stdio_output@@V?$format_validation_base@DV?$stream_output_adapter@D@__crt_stdio_output@@@2@@__crt_stdio_output@@AEAA_NXZ 00000001800381d4 f i libucrt:output.obj
 0001:00037300       ?state_case_normal_common@?$output_processor@DV?$stream_output_adapter@D@__crt_stdio_output@@V?$positional_parameter_base@DV?$stream_output_adapter@D@__crt_stdio_output@@@2@@__crt_stdio_output@@AEAA_NXZ 0000000180038300 f i libucrt:output.obj
 0001:0003742c       ?state_case_normal_common@?$output_processor@DV?$stream_output_adapter@D@__crt_stdio_output@@V?$standard_base@DV?$stream_output_adapter@D@__crt_stdio_output@@@2@@__crt_stdio_output@@AEAA_NXZ 000000018003842c f i libucrt:output.obj
 0001:00037558       ?state_case_normal_common@?$output_processor@DV?$string_output_adapter@D@__crt_stdio_output@@V?$format_validation_base@DV?$string_output_adapter@D@__crt_stdio_output@@@2@@__crt_stdio_output@@AEAA_NXZ 0000000180038558 f i libucrt:output.obj
 0001:0003767c       ?state_case_normal_common@?$output_processor@DV?$string_output_adapter@D@__crt_stdio_output@@V?$positional_parameter_base@DV?$string_output_adapter@D@__crt_stdio_output@@@2@@__crt_stdio_output@@AEAA_NXZ 000000018003867c f i libucrt:output.obj
 0001:000377a0       ?state_case_normal_common@?$output_processor@DV?$string_output_adapter@D@__crt_stdio_output@@V?$standard_base@DV?$string_output_adapter@D@__crt_stdio_output@@@2@@__crt_stdio_output@@AEAA_NXZ 00000001800387a0 f i libucrt:output.obj
 0001:000378c4       ?state_case_normal_common@?$output_processor@_WV?$stream_output_adapter@_W@__crt_stdio_output@@V?$format_validation_base@_WV?$stream_output_adapter@_W@__crt_stdio_output@@@2@@__crt_stdio_output@@AEAA_NXZ 00000001800388c4 f i libucrt:output.obj
 0001:00037924       ?state_case_normal_common@?$output_processor@_WV?$stream_output_adapter@_W@__crt_stdio_output@@V?$positional_parameter_base@_WV?$stream_output_adapter@_W@__crt_stdio_output@@@2@@__crt_stdio_output@@AEAA_NXZ 0000000180038924 f i libucrt:output.obj
 0001:00037984       ?state_case_normal_common@?$output_processor@_WV?$stream_output_adapter@_W@__crt_stdio_output@@V?$standard_base@_WV?$stream_output_adapter@_W@__crt_stdio_output@@@2@@__crt_stdio_output@@AEAA_NXZ 0000000180038984 f i libucrt:output.obj
 0001:000379e4       ?state_case_normal_common@?$output_processor@_WV?$string_output_adapter@_W@__crt_stdio_output@@V?$format_validation_base@_WV?$string_output_adapter@_W@__crt_stdio_output@@@2@@__crt_stdio_output@@AEAA_NXZ 00000001800389e4 f i libucrt:output.obj
 0001:00037a38       ?state_case_normal_common@?$output_processor@_WV?$string_output_adapter@_W@__crt_stdio_output@@V?$positional_parameter_base@_WV?$string_output_adapter@_W@__crt_stdio_output@@@2@@__crt_stdio_output@@AEAA_NXZ 0000000180038a38 f i libucrt:output.obj
 0001:00037a8c       ?state_case_normal_common@?$output_processor@_WV?$string_output_adapter@_W@__crt_stdio_output@@V?$standard_base@_WV?$string_output_adapter@_W@__crt_stdio_output@@@2@@__crt_stdio_output@@AEAA_NXZ 0000000180038a8c f i libucrt:output.obj
 0001:00037ae0       ?state_case_normal_tchar@?$output_processor@DV?$stream_output_adapter@D@__crt_stdio_output@@V?$format_validation_base@DV?$stream_output_adapter@D@__crt_stdio_output@@@2@@__crt_stdio_output@@AEAA_ND@Z 0000000180038ae0 f i libucrt:output.obj
 0001:00037bc0       ?state_case_normal_tchar@?$output_processor@DV?$stream_output_adapter@D@__crt_stdio_output@@V?$positional_parameter_base@DV?$stream_output_adapter@D@__crt_stdio_output@@@2@@__crt_stdio_output@@AEAA_ND@Z 0000000180038bc0 f i libucrt:output.obj
 0001:00037ca0       ?state_case_normal_tchar@?$output_processor@DV?$stream_output_adapter@D@__crt_stdio_output@@V?$standard_base@DV?$stream_output_adapter@D@__crt_stdio_output@@@2@@__crt_stdio_output@@AEAA_ND@Z 0000000180038ca0 f i libucrt:output.obj
 0001:00037d80       ?state_case_normal_tchar@?$output_processor@DV?$string_output_adapter@D@__crt_stdio_output@@V?$format_validation_base@DV?$string_output_adapter@D@__crt_stdio_output@@@2@@__crt_stdio_output@@AEAA_ND@Z 0000000180038d80 f i libucrt:output.obj
 0001:00037e5c       ?state_case_normal_tchar@?$output_processor@DV?$string_output_adapter@D@__crt_stdio_output@@V?$positional_parameter_base@DV?$string_output_adapter@D@__crt_stdio_output@@@2@@__crt_stdio_output@@AEAA_ND@Z 0000000180038e5c f i libucrt:output.obj
 0001:00037f38       ?state_case_normal_tchar@?$output_processor@DV?$string_output_adapter@D@__crt_stdio_output@@V?$standard_base@DV?$string_output_adapter@D@__crt_stdio_output@@@2@@__crt_stdio_output@@AEAA_ND@Z 0000000180038f38 f i libucrt:output.obj
 0001:00038014       ?state_case_normal_tchar@?$output_processor@_WV?$stream_output_adapter@_W@__crt_stdio_output@@V?$format_validation_base@_WV?$stream_output_adapter@_W@__crt_stdio_output@@@2@@__crt_stdio_output@@AEAA_N_W@Z 0000000180039014 f i libucrt:output.obj
 0001:0003801c       ?state_case_normal_tchar@?$output_processor@_WV?$stream_output_adapter@_W@__crt_stdio_output@@V?$positional_parameter_base@_WV?$stream_output_adapter@_W@__crt_stdio_output@@@2@@__crt_stdio_output@@AEAA_N_W@Z 000000018003901c f i libucrt:output.obj
 0001:00038024       ?state_case_normal_tchar@?$output_processor@_WV?$stream_output_adapter@_W@__crt_stdio_output@@V?$standard_base@_WV?$stream_output_adapter@_W@__crt_stdio_output@@@2@@__crt_stdio_output@@AEAA_N_W@Z 0000000180039024 f i libucrt:output.obj
 0001:0003802c       ?state_case_normal_tchar@?$output_processor@_WV?$string_output_adapter@_W@__crt_stdio_output@@V?$format_validation_base@_WV?$string_output_adapter@_W@__crt_stdio_output@@@2@@__crt_stdio_output@@AEAA_N_W@Z 000000018003902c f i libucrt:output.obj
 0001:00038034       ?state_case_normal_tchar@?$output_processor@_WV?$string_output_adapter@_W@__crt_stdio_output@@V?$positional_parameter_base@_WV?$string_output_adapter@_W@__crt_stdio_output@@@2@@__crt_stdio_output@@AEAA_N_W@Z 0000000180039034 f i libucrt:output.obj
 0001:0003803c       ?state_case_normal_tchar@?$output_processor@_WV?$string_output_adapter@_W@__crt_stdio_output@@V?$standard_base@_WV?$string_output_adapter@_W@__crt_stdio_output@@@2@@__crt_stdio_output@@AEAA_N_W@Z 000000018003903c f i libucrt:output.obj
 0001:00038044       ?state_case_percent@?$output_processor@DV?$stream_output_adapter@D@__crt_stdio_output@@V?$format_validation_base@DV?$stream_output_adapter@D@__crt_stdio_output@@@2@@__crt_stdio_output@@AEAA_NXZ 0000000180039044 f i libucrt:output.obj
 0001:0003805c       ?state_case_percent@?$output_processor@DV?$stream_output_adapter@D@__crt_stdio_output@@V?$positional_parameter_base@DV?$stream_output_adapter@D@__crt_stdio_output@@@2@@__crt_stdio_output@@AEAA_NXZ 000000018003905c f i libucrt:output.obj
 0001:00038074       ?state_case_percent@?$output_processor@DV?$stream_output_adapter@D@__crt_stdio_output@@V?$standard_base@DV?$stream_output_adapter@D@__crt_stdio_output@@@2@@__crt_stdio_output@@AEAA_NXZ 0000000180039074 f i libucrt:output.obj
 0001:0003808c       ?state_case_percent@?$output_processor@DV?$string_output_adapter@D@__crt_stdio_output@@V?$format_validation_base@DV?$string_output_adapter@D@__crt_stdio_output@@@2@@__crt_stdio_output@@AEAA_NXZ 000000018003908c f i libucrt:output.obj
 0001:000380a4       ?state_case_percent@?$output_processor@DV?$string_output_adapter@D@__crt_stdio_output@@V?$positional_parameter_base@DV?$string_output_adapter@D@__crt_stdio_output@@@2@@__crt_stdio_output@@AEAA_NXZ 00000001800390a4 f i libucrt:output.obj
 0001:000380bc       ?state_case_percent@?$output_processor@DV?$string_output_adapter@D@__crt_stdio_output@@V?$standard_base@DV?$string_output_adapter@D@__crt_stdio_output@@@2@@__crt_stdio_output@@AEAA_NXZ 00000001800390bc f i libucrt:output.obj
 0001:000380d4       ?state_case_percent@?$output_processor@_WV?$stream_output_adapter@_W@__crt_stdio_output@@V?$format_validation_base@_WV?$stream_output_adapter@_W@__crt_stdio_output@@@2@@__crt_stdio_output@@AEAA_NXZ 00000001800390d4 f i libucrt:output.obj
 0001:000380ec       ?state_case_percent@?$output_processor@_WV?$stream_output_adapter@_W@__crt_stdio_output@@V?$positional_parameter_base@_WV?$stream_output_adapter@_W@__crt_stdio_output@@@2@@__crt_stdio_output@@AEAA_NXZ 00000001800390ec f i libucrt:output.obj
 0001:00038104       ?state_case_percent@?$output_processor@_WV?$stream_output_adapter@_W@__crt_stdio_output@@V?$standard_base@_WV?$stream_output_adapter@_W@__crt_stdio_output@@@2@@__crt_stdio_output@@AEAA_NXZ 0000000180039104 f i libucrt:output.obj
 0001:0003811c       ?state_case_percent@?$output_processor@_WV?$string_output_adapter@_W@__crt_stdio_output@@V?$format_validation_base@_WV?$string_output_adapter@_W@__crt_stdio_output@@@2@@__crt_stdio_output@@AEAA_NXZ 000000018003911c f i libucrt:output.obj
 0001:00038134       ?state_case_percent@?$output_processor@_WV?$string_output_adapter@_W@__crt_stdio_output@@V?$positional_parameter_base@_WV?$string_output_adapter@_W@__crt_stdio_output@@@2@@__crt_stdio_output@@AEAA_NXZ 0000000180039134 f i libucrt:output.obj
 0001:0003814c       ?state_case_percent@?$output_processor@_WV?$string_output_adapter@_W@__crt_stdio_output@@V?$standard_base@_WV?$string_output_adapter@_W@__crt_stdio_output@@@2@@__crt_stdio_output@@AEAA_NXZ 000000018003914c f i libucrt:output.obj
 0001:00038164       ?state_case_precision@?$output_processor@DV?$stream_output_adapter@D@__crt_stdio_output@@V?$format_validation_base@DV?$stream_output_adapter@D@__crt_stdio_output@@@2@@__crt_stdio_output@@AEAA_NXZ 0000000180039164 f i libucrt:output.obj
 0001:00038194       ?state_case_precision@?$output_processor@DV?$stream_output_adapter@D@__crt_stdio_output@@V?$positional_parameter_base@DV?$stream_output_adapter@D@__crt_stdio_output@@@2@@__crt_stdio_output@@AEAA_NXZ 0000000180039194 f i libucrt:output.obj
 0001:000381e0       ?state_case_precision@?$output_processor@DV?$stream_output_adapter@D@__crt_stdio_output@@V?$standard_base@DV?$stream_output_adapter@D@__crt_stdio_output@@@2@@__crt_stdio_output@@AEAA_NXZ 00000001800391e0 f i libucrt:output.obj
 0001:00038210       ?state_case_precision@?$output_processor@DV?$string_output_adapter@D@__crt_stdio_output@@V?$format_validation_base@DV?$string_output_adapter@D@__crt_stdio_output@@@2@@__crt_stdio_output@@AEAA_NXZ 0000000180039210 f i libucrt:output.obj
 0001:00038240       ?state_case_precision@?$output_processor@DV?$string_output_adapter@D@__crt_stdio_output@@V?$positional_parameter_base@DV?$string_output_adapter@D@__crt_stdio_output@@@2@@__crt_stdio_output@@AEAA_NXZ 0000000180039240 f i libucrt:output.obj
 0001:0003828c       ?state_case_precision@?$output_processor@DV?$string_output_adapter@D@__crt_stdio_output@@V?$standard_base@DV?$string_output_adapter@D@__crt_stdio_output@@@2@@__crt_stdio_output@@AEAA_NXZ 000000018003928c f i libucrt:output.obj
 0001:000382bc       ?state_case_precision@?$output_processor@_WV?$stream_output_adapter@_W@__crt_stdio_output@@V?$format_validation_base@_WV?$stream_output_adapter@_W@__crt_stdio_output@@@2@@__crt_stdio_output@@AEAA_NXZ 00000001800392bc f i libucrt:output.obj
 0001:000382f0       ?state_case_precision@?$output_processor@_WV?$stream_output_adapter@_W@__crt_stdio_output@@V?$positional_parameter_base@_WV?$stream_output_adapter@_W@__crt_stdio_output@@@2@@__crt_stdio_output@@AEAA_NXZ 00000001800392f0 f i libucrt:output.obj
 0001:0003833c       ?state_case_precision@?$output_processor@_WV?$stream_output_adapter@_W@__crt_stdio_output@@V?$standard_base@_WV?$stream_output_adapter@_W@__crt_stdio_output@@@2@@__crt_stdio_output@@AEAA_NXZ 000000018003933c f i libucrt:output.obj
 0001:00038370       ?state_case_precision@?$output_processor@_WV?$string_output_adapter@_W@__crt_stdio_output@@V?$format_validation_base@_WV?$string_output_adapter@_W@__crt_stdio_output@@@2@@__crt_stdio_output@@AEAA_NXZ 0000000180039370 f i libucrt:output.obj
 0001:000383a4       ?state_case_precision@?$output_processor@_WV?$string_output_adapter@_W@__crt_stdio_output@@V?$positional_parameter_base@_WV?$string_output_adapter@_W@__crt_stdio_output@@@2@@__crt_stdio_output@@AEAA_NXZ 00000001800393a4 f i libucrt:output.obj
 0001:000383f0       ?state_case_precision@?$output_processor@_WV?$string_output_adapter@_W@__crt_stdio_output@@V?$standard_base@_WV?$string_output_adapter@_W@__crt_stdio_output@@@2@@__crt_stdio_output@@AEAA_NXZ 00000001800393f0 f i libucrt:output.obj
 0001:00038424       ?state_case_size@?$output_processor@DV?$stream_output_adapter@D@__crt_stdio_output@@V?$format_validation_base@DV?$stream_output_adapter@D@__crt_stdio_output@@@2@@__crt_stdio_output@@AEAA_NXZ 0000000180039424 f i libucrt:output.obj
 0001:000385ac       ?state_case_size@?$output_processor@DV?$stream_output_adapter@D@__crt_stdio_output@@V?$positional_parameter_base@DV?$stream_output_adapter@D@__crt_stdio_output@@@2@@__crt_stdio_output@@AEAA_NXZ 00000001800395ac f i libucrt:output.obj
 0001:00038734       ?state_case_size@?$output_processor@DV?$stream_output_adapter@D@__crt_stdio_output@@V?$standard_base@DV?$stream_output_adapter@D@__crt_stdio_output@@@2@@__crt_stdio_output@@AEAA_NXZ 0000000180039734 f i libucrt:output.obj
 0001:000388bc       ?state_case_size@?$output_processor@DV?$string_output_adapter@D@__crt_stdio_output@@V?$format_validation_base@DV?$string_output_adapter@D@__crt_stdio_output@@@2@@__crt_stdio_output@@AEAA_NXZ 00000001800398bc f i libucrt:output.obj
 0001:00038a44       ?state_case_size@?$output_processor@DV?$string_output_adapter@D@__crt_stdio_output@@V?$positional_parameter_base@DV?$string_output_adapter@D@__crt_stdio_output@@@2@@__crt_stdio_output@@AEAA_NXZ 0000000180039a44 f i libucrt:output.obj
 0001:00038bcc       ?state_case_size@?$output_processor@DV?$string_output_adapter@D@__crt_stdio_output@@V?$standard_base@DV?$string_output_adapter@D@__crt_stdio_output@@@2@@__crt_stdio_output@@AEAA_NXZ 0000000180039bcc f i libucrt:output.obj
 0001:00038d54       ?state_case_size@?$output_processor@_WV?$stream_output_adapter@_W@__crt_stdio_output@@V?$format_validation_base@_WV?$stream_output_adapter@_W@__crt_stdio_output@@@2@@__crt_stdio_output@@AEAA_NXZ 0000000180039d54 f i libucrt:output.obj
 0001:00038f04       ?state_case_size@?$output_processor@_WV?$stream_output_adapter@_W@__crt_stdio_output@@V?$positional_parameter_base@_WV?$stream_output_adapter@_W@__crt_stdio_output@@@2@@__crt_stdio_output@@AEAA_NXZ 0000000180039f04 f i libucrt:output.obj
 0001:000390b4       ?state_case_size@?$output_processor@_WV?$stream_output_adapter@_W@__crt_stdio_output@@V?$standard_base@_WV?$stream_output_adapter@_W@__crt_stdio_output@@@2@@__crt_stdio_output@@AEAA_NXZ 000000018003a0b4 f i libucrt:output.obj
 0001:00039264       ?state_case_size@?$output_processor@_WV?$string_output_adapter@_W@__crt_stdio_output@@V?$format_validation_base@_WV?$string_output_adapter@_W@__crt_stdio_output@@@2@@__crt_stdio_output@@AEAA_NXZ 000000018003a264 f i libucrt:output.obj
 0001:00039414       ?state_case_size@?$output_processor@_WV?$string_output_adapter@_W@__crt_stdio_output@@V?$positional_parameter_base@_WV?$string_output_adapter@_W@__crt_stdio_output@@@2@@__crt_stdio_output@@AEAA_NXZ 000000018003a414 f i libucrt:output.obj
 0001:000395c4       ?state_case_size@?$output_processor@_WV?$string_output_adapter@_W@__crt_stdio_output@@V?$standard_base@_WV?$string_output_adapter@_W@__crt_stdio_output@@@2@@__crt_stdio_output@@AEAA_NXZ 000000018003a5c4 f i libucrt:output.obj
 0001:00039774       ?state_case_type@?$output_processor@DV?$stream_output_adapter@D@__crt_stdio_output@@V?$format_validation_base@DV?$stream_output_adapter@D@__crt_stdio_output@@@2@@__crt_stdio_output@@AEAA_NXZ 000000018003a774 f i libucrt:output.obj
 0001:00039bac       ?state_case_type@?$output_processor@DV?$stream_output_adapter@D@__crt_stdio_output@@V?$positional_parameter_base@DV?$stream_output_adapter@D@__crt_stdio_output@@@2@@__crt_stdio_output@@AEAA_NXZ 000000018003abac f i libucrt:output.obj
 0001:0003a014       ?state_case_type@?$output_processor@DV?$stream_output_adapter@D@__crt_stdio_output@@V?$standard_base@DV?$stream_output_adapter@D@__crt_stdio_output@@@2@@__crt_stdio_output@@AEAA_NXZ 000000018003b014 f i libucrt:output.obj
 0001:0003a44c       ?state_case_type@?$output_processor@DV?$string_output_adapter@D@__crt_stdio_output@@V?$format_validation_base@DV?$string_output_adapter@D@__crt_stdio_output@@@2@@__crt_stdio_output@@AEAA_NXZ 000000018003b44c f i libucrt:output.obj
 0001:0003a850       ?state_case_type@?$output_processor@DV?$string_output_adapter@D@__crt_stdio_output@@V?$positional_parameter_base@DV?$string_output_adapter@D@__crt_stdio_output@@@2@@__crt_stdio_output@@AEAA_NXZ 000000018003b850 f i libucrt:output.obj
 0001:0003ac68       ?state_case_type@?$output_processor@DV?$string_output_adapter@D@__crt_stdio_output@@V?$standard_base@DV?$string_output_adapter@D@__crt_stdio_output@@@2@@__crt_stdio_output@@AEAA_NXZ 000000018003bc68 f i libucrt:output.obj
 0001:0003b06c       ?state_case_type@?$output_processor@_WV?$stream_output_adapter@_W@__crt_stdio_output@@V?$format_validation_base@_WV?$stream_output_adapter@_W@__crt_stdio_output@@@2@@__crt_stdio_output@@AEAA_NXZ 000000018003c06c f i libucrt:output.obj
 0001:0003b530       ?state_case_type@?$output_processor@_WV?$stream_output_adapter@_W@__crt_stdio_output@@V?$positional_parameter_base@_WV?$stream_output_adapter@_W@__crt_stdio_output@@@2@@__crt_stdio_output@@AEAA_NXZ 000000018003c530 f i libucrt:output.obj
 0001:0003ba0c       ?state_case_type@?$output_processor@_WV?$stream_output_adapter@_W@__crt_stdio_output@@V?$standard_base@_WV?$stream_output_adapter@_W@__crt_stdio_output@@@2@@__crt_stdio_output@@AEAA_NXZ 000000018003ca0c f i libucrt:output.obj
 0001:0003bed0       ?state_case_type@?$output_processor@_WV?$string_output_adapter@_W@__crt_stdio_output@@V?$format_validation_base@_WV?$string_output_adapter@_W@__crt_stdio_output@@@2@@__crt_stdio_output@@AEAA_NXZ 000000018003ced0 f i libucrt:output.obj
 0001:0003c334       ?state_case_type@?$output_processor@_WV?$string_output_adapter@_W@__crt_stdio_output@@V?$positional_parameter_base@_WV?$string_output_adapter@_W@__crt_stdio_output@@@2@@__crt_stdio_output@@AEAA_NXZ 000000018003d334 f i libucrt:output.obj
 0001:0003c7c4       ?state_case_type@?$output_processor@_WV?$string_output_adapter@_W@__crt_stdio_output@@V?$standard_base@_WV?$string_output_adapter@_W@__crt_stdio_output@@@2@@__crt_stdio_output@@AEAA_NXZ 000000018003d7c4 f i libucrt:output.obj
 0001:0003cc28       ?state_case_width@?$output_processor@DV?$stream_output_adapter@D@__crt_stdio_output@@V?$format_validation_base@DV?$stream_output_adapter@D@__crt_stdio_output@@@2@@__crt_stdio_output@@AEAA_NXZ 000000018003dc28 f i libucrt:output.obj
 0001:0003cc5c       ?state_case_width@?$output_processor@DV?$stream_output_adapter@D@__crt_stdio_output@@V?$positional_parameter_base@DV?$stream_output_adapter@D@__crt_stdio_output@@@2@@__crt_stdio_output@@AEAA_NXZ 000000018003dc5c f i libucrt:output.obj
 0001:0003ccac       ?state_case_width@?$output_processor@DV?$stream_output_adapter@D@__crt_stdio_output@@V?$standard_base@DV?$stream_output_adapter@D@__crt_stdio_output@@@2@@__crt_stdio_output@@AEAA_NXZ 000000018003dcac f i libucrt:output.obj
 0001:0003cce0       ?state_case_width@?$output_processor@DV?$string_output_adapter@D@__crt_stdio_output@@V?$format_validation_base@DV?$string_output_adapter@D@__crt_stdio_output@@@2@@__crt_stdio_output@@AEAA_NXZ 000000018003dce0 f i libucrt:output.obj
 0001:0003cd14       ?state_case_width@?$output_processor@DV?$string_output_adapter@D@__crt_stdio_output@@V?$positional_parameter_base@DV?$string_output_adapter@D@__crt_stdio_output@@@2@@__crt_stdio_output@@AEAA_NXZ 000000018003dd14 f i libucrt:output.obj
 0001:0003cd64       ?state_case_width@?$output_processor@DV?$string_output_adapter@D@__crt_stdio_output@@V?$standard_base@DV?$string_output_adapter@D@__crt_stdio_output@@@2@@__crt_stdio_output@@AEAA_NXZ 000000018003dd64 f i libucrt:output.obj
 0001:0003cd98       ?state_case_width@?$output_processor@_WV?$stream_output_adapter@_W@__crt_stdio_output@@V?$format_validation_base@_WV?$stream_output_adapter@_W@__crt_stdio_output@@@2@@__crt_stdio_output@@AEAA_NXZ 000000018003dd98 f i libucrt:output.obj
 0001:0003cdcc       ?state_case_width@?$output_processor@_WV?$stream_output_adapter@_W@__crt_stdio_output@@V?$positional_parameter_base@_WV?$stream_output_adapter@_W@__crt_stdio_output@@@2@@__crt_stdio_output@@AEAA_NXZ 000000018003ddcc f i libucrt:output.obj
 0001:0003ce20       ?state_case_width@?$output_processor@_WV?$stream_output_adapter@_W@__crt_stdio_output@@V?$standard_base@_WV?$stream_output_adapter@_W@__crt_stdio_output@@@2@@__crt_stdio_output@@AEAA_NXZ 000000018003de20 f i libucrt:output.obj
 0001:0003ce54       ?state_case_width@?$output_processor@_WV?$string_output_adapter@_W@__crt_stdio_output@@V?$format_validation_base@_WV?$string_output_adapter@_W@__crt_stdio_output@@@2@@__crt_stdio_output@@AEAA_NXZ 000000018003de54 f i libucrt:output.obj
 0001:0003ce88       ?state_case_width@?$output_processor@_WV?$string_output_adapter@_W@__crt_stdio_output@@V?$positional_parameter_base@_WV?$string_output_adapter@_W@__crt_stdio_output@@@2@@__crt_stdio_output@@AEAA_NXZ 000000018003de88 f i libucrt:output.obj
 0001:0003cedc       ?state_case_width@?$output_processor@_WV?$string_output_adapter@_W@__crt_stdio_output@@V?$standard_base@_WV?$string_output_adapter@_W@__crt_stdio_output@@@2@@__crt_stdio_output@@AEAA_NXZ 000000018003dedc f i libucrt:output.obj
 0001:0003cf10       ?state_count@?$format_validation_base@DV?$stream_output_adapter@D@__crt_stdio_output@@@__crt_stdio_output@@KAIXZ 000000018003df10 f i libucrt:output.obj
 0001:0003cf18       ?state_count@?$format_validation_base@DV?$string_output_adapter@D@__crt_stdio_output@@@__crt_stdio_output@@KAIXZ 000000018003df18 f i libucrt:output.obj
 0001:0003cf20       ?state_count@?$format_validation_base@_WV?$stream_output_adapter@_W@__crt_stdio_output@@@__crt_stdio_output@@KAIXZ 000000018003df20 f i libucrt:output.obj
 0001:0003cf28       ?state_count@?$format_validation_base@_WV?$string_output_adapter@_W@__crt_stdio_output@@@__crt_stdio_output@@KAIXZ 000000018003df28 f i libucrt:output.obj
 0001:0003cf30       ?state_count@?$standard_base@DV?$stream_output_adapter@D@__crt_stdio_output@@@__crt_stdio_output@@KAIXZ 000000018003df30 f i libucrt:output.obj
 0001:0003cf38       ?state_count@?$standard_base@DV?$string_output_adapter@D@__crt_stdio_output@@@__crt_stdio_output@@KAIXZ 000000018003df38 f i libucrt:output.obj
 0001:0003cf40       ?state_count@?$standard_base@_WV?$stream_output_adapter@_W@__crt_stdio_output@@@__crt_stdio_output@@KAIXZ 000000018003df40 f i libucrt:output.obj
 0001:0003cf48       ?state_count@?$standard_base@_WV?$string_output_adapter@_W@__crt_stdio_output@@@__crt_stdio_output@@KAIXZ 000000018003df48 f i libucrt:output.obj
 0001:0003cf50       ?state_transition_table@?$format_validation_base@DV?$stream_output_adapter@D@__crt_stdio_output@@@__crt_stdio_output@@KAAEBV?$spectre_mitigated_lookup_table@Ustate_transition_pair@__crt_stdio_output@@$0IA@@2@XZ 000000018003df50 f i libucrt:output.obj
 0001:0003cf58       ?state_transition_table@?$format_validation_base@DV?$string_output_adapter@D@__crt_stdio_output@@@__crt_stdio_output@@KAAEBV?$spectre_mitigated_lookup_table@Ustate_transition_pair@__crt_stdio_output@@$0IA@@2@XZ 000000018003df58 f i libucrt:output.obj
 0001:0003cf60       ?state_transition_table@?$format_validation_base@_WV?$stream_output_adapter@_W@__crt_stdio_output@@@__crt_stdio_output@@KAAEBV?$spectre_mitigated_lookup_table@Ustate_transition_pair@__crt_stdio_output@@$0IA@@2@XZ 000000018003df60 f i libucrt:output.obj
 0001:0003cf68       ?state_transition_table@?$format_validation_base@_WV?$string_output_adapter@_W@__crt_stdio_output@@@__crt_stdio_output@@KAAEBV?$spectre_mitigated_lookup_table@Ustate_transition_pair@__crt_stdio_output@@$0IA@@2@XZ 000000018003df68 f i libucrt:output.obj
 0001:0003cf70       ?state_transition_table@?$standard_base@DV?$stream_output_adapter@D@__crt_stdio_output@@@__crt_stdio_output@@KAAEBV?$spectre_mitigated_lookup_table@Ustate_transition_pair@__crt_stdio_output@@$0IA@@2@XZ 000000018003df70 f i libucrt:output.obj
 0001:0003cf78       ?state_transition_table@?$standard_base@DV?$string_output_adapter@D@__crt_stdio_output@@@__crt_stdio_output@@KAAEBV?$spectre_mitigated_lookup_table@Ustate_transition_pair@__crt_stdio_output@@$0IA@@2@XZ 000000018003df78 f i libucrt:output.obj
 0001:0003cf80       ?state_transition_table@?$standard_base@_WV?$stream_output_adapter@_W@__crt_stdio_output@@@__crt_stdio_output@@KAAEBV?$spectre_mitigated_lookup_table@Ustate_transition_pair@__crt_stdio_output@@$0IA@@2@XZ 000000018003df80 f i libucrt:output.obj
 0001:0003cf88       ?state_transition_table@?$standard_base@_WV?$string_output_adapter@_W@__crt_stdio_output@@@__crt_stdio_output@@KAAEBV?$spectre_mitigated_lookup_table@Ustate_transition_pair@__crt_stdio_output@@$0IA@@2@XZ 000000018003df88 f i libucrt:output.obj
 0001:0003cf90       ?tchar_string@?$common_data@D@__crt_stdio_output@@IEAAAEAPEADD@Z 000000018003df90 f i libucrt:output.obj
 0001:0003cf98       ?tchar_string@?$common_data@D@__crt_stdio_output@@IEAAAEAPEADXZ 000000018003df98 f i libucrt:output.obj
 0001:0003cfa0       ?tchar_string@?$common_data@_W@__crt_stdio_output@@IEAAAEAPEA_WXZ 000000018003dfa0 f i libucrt:output.obj
 0001:0003cfa8       ?tchar_string@?$common_data@_W@__crt_stdio_output@@IEAAAEAPEA_W_W@Z 000000018003dfa8 f i libucrt:output.obj
 0001:0003cfb0       ?to_integer_size@__crt_stdio_output@@YA_KW4length_modifier@1@@Z 000000018003dfb0 f i libucrt:output.obj
 0001:0003cff8       ?type_case_X@?$output_processor@DV?$stream_output_adapter@D@__crt_stdio_output@@V?$format_validation_base@DV?$stream_output_adapter@D@__crt_stdio_output@@@2@@__crt_stdio_output@@AEAA_NXZ 000000018003dff8 f i libucrt:output.obj
 0001:0003d000       ?type_case_X@?$output_processor@DV?$stream_output_adapter@D@__crt_stdio_output@@V?$positional_parameter_base@DV?$stream_output_adapter@D@__crt_stdio_output@@@2@@__crt_stdio_output@@AEAA_NXZ 000000018003e000 f i libucrt:output.obj
 0001:0003d008       ?type_case_X@?$output_processor@DV?$stream_output_adapter@D@__crt_stdio_output@@V?$standard_base@DV?$stream_output_adapter@D@__crt_stdio_output@@@2@@__crt_stdio_output@@AEAA_NXZ 000000018003e008 f i libucrt:output.obj
 0001:0003d010       ?type_case_X@?$output_processor@DV?$string_output_adapter@D@__crt_stdio_output@@V?$format_validation_base@DV?$string_output_adapter@D@__crt_stdio_output@@@2@@__crt_stdio_output@@AEAA_NXZ 000000018003e010 f i libucrt:output.obj
 0001:0003d018       ?type_case_X@?$output_processor@DV?$string_output_adapter@D@__crt_stdio_output@@V?$positional_parameter_base@DV?$string_output_adapter@D@__crt_stdio_output@@@2@@__crt_stdio_output@@AEAA_NXZ 000000018003e018 f i libucrt:output.obj
 0001:0003d020       ?type_case_X@?$output_processor@DV?$string_output_adapter@D@__crt_stdio_output@@V?$standard_base@DV?$string_output_adapter@D@__crt_stdio_output@@@2@@__crt_stdio_output@@AEAA_NXZ 000000018003e020 f i libucrt:output.obj
 0001:0003d028       ?type_case_X@?$output_processor@_WV?$stream_output_adapter@_W@__crt_stdio_output@@V?$format_validation_base@_WV?$stream_output_adapter@_W@__crt_stdio_output@@@2@@__crt_stdio_output@@AEAA_NXZ 000000018003e028 f i libucrt:output.obj
 0001:0003d030       ?type_case_X@?$output_processor@_WV?$stream_output_adapter@_W@__crt_stdio_output@@V?$positional_parameter_base@_WV?$stream_output_adapter@_W@__crt_stdio_output@@@2@@__crt_stdio_output@@AEAA_NXZ 000000018003e030 f i libucrt:output.obj
 0001:0003d038       ?type_case_X@?$output_processor@_WV?$stream_output_adapter@_W@__crt_stdio_output@@V?$standard_base@_WV?$stream_output_adapter@_W@__crt_stdio_output@@@2@@__crt_stdio_output@@AEAA_NXZ 000000018003e038 f i libucrt:output.obj
 0001:0003d040       ?type_case_X@?$output_processor@_WV?$string_output_adapter@_W@__crt_stdio_output@@V?$format_validation_base@_WV?$string_output_adapter@_W@__crt_stdio_output@@@2@@__crt_stdio_output@@AEAA_NXZ 000000018003e040 f i libucrt:output.obj
 0001:0003d048       ?type_case_X@?$output_processor@_WV?$string_output_adapter@_W@__crt_stdio_output@@V?$positional_parameter_base@_WV?$string_output_adapter@_W@__crt_stdio_output@@@2@@__crt_stdio_output@@AEAA_NXZ 000000018003e048 f i libucrt:output.obj
 0001:0003d050       ?type_case_X@?$output_processor@_WV?$string_output_adapter@_W@__crt_stdio_output@@V?$standard_base@_WV?$string_output_adapter@_W@__crt_stdio_output@@@2@@__crt_stdio_output@@AEAA_NXZ 000000018003e050 f i libucrt:output.obj
 0001:0003d058       ?type_case_Z@?$output_processor@DV?$stream_output_adapter@D@__crt_stdio_output@@V?$format_validation_base@DV?$stream_output_adapter@D@__crt_stdio_output@@@2@@__crt_stdio_output@@AEAA_NXZ 000000018003e058 f i libucrt:output.obj
 0001:0003d0d4       ?type_case_Z@?$output_processor@DV?$stream_output_adapter@D@__crt_stdio_output@@V?$positional_parameter_base@DV?$stream_output_adapter@D@__crt_stdio_output@@@2@@__crt_stdio_output@@AEAA_NXZ 000000018003e0d4 f i libucrt:output.obj
 0001:0003d17c       ?type_case_Z@?$output_processor@DV?$stream_output_adapter@D@__crt_stdio_output@@V?$standard_base@DV?$stream_output_adapter@D@__crt_stdio_output@@@2@@__crt_stdio_output@@AEAA_NXZ 000000018003e17c f i libucrt:output.obj
 0001:0003d1f8       ?type_case_Z@?$output_processor@DV?$string_output_adapter@D@__crt_stdio_output@@V?$format_validation_base@DV?$string_output_adapter@D@__crt_stdio_output@@@2@@__crt_stdio_output@@AEAA_NXZ 000000018003e1f8 f i libucrt:output.obj
 0001:0003d274       ?type_case_Z@?$output_processor@DV?$string_output_adapter@D@__crt_stdio_output@@V?$positional_parameter_base@DV?$string_output_adapter@D@__crt_stdio_output@@@2@@__crt_stdio_output@@AEAA_NXZ 000000018003e274 f i libucrt:output.obj
 0001:0003d31c       ?type_case_Z@?$output_processor@DV?$string_output_adapter@D@__crt_stdio_output@@V?$standard_base@DV?$string_output_adapter@D@__crt_stdio_output@@@2@@__crt_stdio_output@@AEAA_NXZ 000000018003e31c f i libucrt:output.obj
 0001:0003d398       ?type_case_Z@?$output_processor@_WV?$stream_output_adapter@_W@__crt_stdio_output@@V?$format_validation_base@_WV?$stream_output_adapter@_W@__crt_stdio_output@@@2@@__crt_stdio_output@@AEAA_NXZ 000000018003e398 f i libucrt:output.obj
 0001:0003d418       ?type_case_Z@?$output_processor@_WV?$stream_output_adapter@_W@__crt_stdio_output@@V?$positional_parameter_base@_WV?$stream_output_adapter@_W@__crt_stdio_output@@@2@@__crt_stdio_output@@AEAA_NXZ 000000018003e418 f i libucrt:output.obj
 0001:0003d4b0       ?type_case_Z@?$output_processor@_WV?$stream_output_adapter@_W@__crt_stdio_output@@V?$standard_base@_WV?$stream_output_adapter@_W@__crt_stdio_output@@@2@@__crt_stdio_output@@AEAA_NXZ 000000018003e4b0 f i libucrt:output.obj
 0001:0003d530       ?type_case_Z@?$output_processor@_WV?$string_output_adapter@_W@__crt_stdio_output@@V?$format_validation_base@_WV?$string_output_adapter@_W@__crt_stdio_output@@@2@@__crt_stdio_output@@AEAA_NXZ 000000018003e530 f i libucrt:output.obj
 0001:0003d5b0       ?type_case_Z@?$output_processor@_WV?$string_output_adapter@_W@__crt_stdio_output@@V?$positional_parameter_base@_WV?$string_output_adapter@_W@__crt_stdio_output@@@2@@__crt_stdio_output@@AEAA_NXZ 000000018003e5b0 f i libucrt:output.obj
 0001:0003d648       ?type_case_Z@?$output_processor@_WV?$string_output_adapter@_W@__crt_stdio_output@@V?$standard_base@_WV?$string_output_adapter@_W@__crt_stdio_output@@@2@@__crt_stdio_output@@AEAA_NXZ 000000018003e648 f i libucrt:output.obj
 0001:0003d6c8       ?type_case_a@?$output_processor@DV?$stream_output_adapter@D@__crt_stdio_output@@V?$format_validation_base@DV?$stream_output_adapter@D@__crt_stdio_output@@@2@@__crt_stdio_output@@AEAA_NXZ 000000018003e6c8 f i libucrt:output.obj
 0001:0003d91c       ?type_case_a@?$output_processor@DV?$stream_output_adapter@D@__crt_stdio_output@@V?$positional_parameter_base@DV?$stream_output_adapter@D@__crt_stdio_output@@@2@@__crt_stdio_output@@AEAA_NXZ 000000018003e91c f i libucrt:output.obj
 0001:0003db98       ?type_case_a@?$output_processor@DV?$stream_output_adapter@D@__crt_stdio_output@@V?$standard_base@DV?$stream_output_adapter@D@__crt_stdio_output@@@2@@__crt_stdio_output@@AEAA_NXZ 000000018003eb98 f i libucrt:output.obj
 0001:0003ddec       ?type_case_a@?$output_processor@DV?$string_output_adapter@D@__crt_stdio_output@@V?$format_validation_base@DV?$string_output_adapter@D@__crt_stdio_output@@@2@@__crt_stdio_output@@AEAA_NXZ 000000018003edec f i libucrt:output.obj
 0001:0003e040       ?type_case_a@?$output_processor@DV?$string_output_adapter@D@__crt_stdio_output@@V?$positional_parameter_base@DV?$string_output_adapter@D@__crt_stdio_output@@@2@@__crt_stdio_output@@AEAA_NXZ 000000018003f040 f i libucrt:output.obj
 0001:0003e2bc       ?type_case_a@?$output_processor@DV?$string_output_adapter@D@__crt_stdio_output@@V?$standard_base@DV?$string_output_adapter@D@__crt_stdio_output@@@2@@__crt_stdio_output@@AEAA_NXZ 000000018003f2bc f i libucrt:output.obj
 0001:0003e510       ?type_case_a@?$output_processor@_WV?$stream_output_adapter@_W@__crt_stdio_output@@V?$format_validation_base@_WV?$stream_output_adapter@_W@__crt_stdio_output@@@2@@__crt_stdio_output@@AEAA_NXZ 000000018003f510 f i libucrt:output.obj
 0001:0003e778       ?type_case_a@?$output_processor@_WV?$stream_output_adapter@_W@__crt_stdio_output@@V?$positional_parameter_base@_WV?$stream_output_adapter@_W@__crt_stdio_output@@@2@@__crt_stdio_output@@AEAA_NXZ 000000018003f778 f i libucrt:output.obj
 0001:0003ea0c       ?type_case_a@?$output_processor@_WV?$stream_output_adapter@_W@__crt_stdio_output@@V?$standard_base@_WV?$stream_output_adapter@_W@__crt_stdio_output@@@2@@__crt_stdio_output@@AEAA_NXZ 000000018003fa0c f i libucrt:output.obj
 0001:0003ec74       ?type_case_a@?$output_processor@_WV?$string_output_adapter@_W@__crt_stdio_output@@V?$format_validation_base@_WV?$string_output_adapter@_W@__crt_stdio_output@@@2@@__crt_stdio_output@@AEAA_NXZ 000000018003fc74 f i libucrt:output.obj
 0001:0003eedc       ?type_case_a@?$output_processor@_WV?$string_output_adapter@_W@__crt_stdio_output@@V?$positional_parameter_base@_WV?$string_output_adapter@_W@__crt_stdio_output@@@2@@__crt_stdio_output@@AEAA_NXZ 000000018003fedc f i libucrt:output.obj
 0001:0003f170       ?type_case_a@?$output_processor@_WV?$string_output_adapter@_W@__crt_stdio_output@@V?$standard_base@_WV?$string_output_adapter@_W@__crt_stdio_output@@@2@@__crt_stdio_output@@AEAA_NXZ 0000000180040170 f i libucrt:output.obj
 0001:0003f3d8       ?type_case_c@?$output_processor@DV?$stream_output_adapter@D@__crt_stdio_output@@V?$format_validation_base@DV?$stream_output_adapter@D@__crt_stdio_output@@@2@@__crt_stdio_output@@AEAA_NXZ 00000001800403d8 f i libucrt:output.obj
 0001:0003f3e0       ?type_case_c@?$output_processor@DV?$stream_output_adapter@D@__crt_stdio_output@@V?$positional_parameter_base@DV?$stream_output_adapter@D@__crt_stdio_output@@@2@@__crt_stdio_output@@AEAA_NXZ 00000001800403e0 f i libucrt:output.obj
 0001:0003f3e8       ?type_case_c@?$output_processor@DV?$stream_output_adapter@D@__crt_stdio_output@@V?$standard_base@DV?$stream_output_adapter@D@__crt_stdio_output@@@2@@__crt_stdio_output@@AEAA_NXZ 00000001800403e8 f i libucrt:output.obj
 0001:0003f3f0       ?type_case_c@?$output_processor@DV?$string_output_adapter@D@__crt_stdio_output@@V?$format_validation_base@DV?$string_output_adapter@D@__crt_stdio_output@@@2@@__crt_stdio_output@@AEAA_NXZ 00000001800403f0 f i libucrt:output.obj
 0001:0003f3f8       ?type_case_c@?$output_processor@DV?$string_output_adapter@D@__crt_stdio_output@@V?$positional_parameter_base@DV?$string_output_adapter@D@__crt_stdio_output@@@2@@__crt_stdio_output@@AEAA_NXZ 00000001800403f8 f i libucrt:output.obj
 0001:0003f400       ?type_case_c@?$output_processor@DV?$string_output_adapter@D@__crt_stdio_output@@V?$standard_base@DV?$string_output_adapter@D@__crt_stdio_output@@@2@@__crt_stdio_output@@AEAA_NXZ 0000000180040400 f i libucrt:output.obj
 0001:0003f408       ?type_case_c@?$output_processor@_WV?$stream_output_adapter@_W@__crt_stdio_output@@V?$format_validation_base@_WV?$stream_output_adapter@_W@__crt_stdio_output@@@2@@__crt_stdio_output@@AEAA_NXZ 0000000180040408 f i libucrt:output.obj
 0001:0003f410       ?type_case_c@?$output_processor@_WV?$stream_output_adapter@_W@__crt_stdio_output@@V?$positional_parameter_base@_WV?$stream_output_adapter@_W@__crt_stdio_output@@@2@@__crt_stdio_output@@AEAA_NXZ 0000000180040410 f i libucrt:output.obj
 0001:0003f418       ?type_case_c@?$output_processor@_WV?$stream_output_adapter@_W@__crt_stdio_output@@V?$standard_base@_WV?$stream_output_adapter@_W@__crt_stdio_output@@@2@@__crt_stdio_output@@AEAA_NXZ 0000000180040418 f i libucrt:output.obj
 0001:0003f420       ?type_case_c@?$output_processor@_WV?$string_output_adapter@_W@__crt_stdio_output@@V?$format_validation_base@_WV?$string_output_adapter@_W@__crt_stdio_output@@@2@@__crt_stdio_output@@AEAA_NXZ 0000000180040420 f i libucrt:output.obj
 0001:0003f428       ?type_case_c@?$output_processor@_WV?$string_output_adapter@_W@__crt_stdio_output@@V?$positional_parameter_base@_WV?$string_output_adapter@_W@__crt_stdio_output@@@2@@__crt_stdio_output@@AEAA_NXZ 0000000180040428 f i libucrt:output.obj
 0001:0003f430       ?type_case_c@?$output_processor@_WV?$string_output_adapter@_W@__crt_stdio_output@@V?$standard_base@_WV?$string_output_adapter@_W@__crt_stdio_output@@@2@@__crt_stdio_output@@AEAA_NXZ 0000000180040430 f i libucrt:output.obj
 0001:0003f438       ?type_case_c_tchar@?$output_processor@DV?$stream_output_adapter@D@__crt_stdio_output@@V?$format_validation_base@DV?$stream_output_adapter@D@__crt_stdio_output@@@2@@__crt_stdio_output@@AEAA_ND@Z 0000000180040438 f i libucrt:output.obj
 0001:0003f50c       ?type_case_c_tchar@?$output_processor@DV?$stream_output_adapter@D@__crt_stdio_output@@V?$positional_parameter_base@DV?$stream_output_adapter@D@__crt_stdio_output@@@2@@__crt_stdio_output@@AEAA_ND@Z 000000018004050c f i libucrt:output.obj
 0001:0003f628       ?type_case_c_tchar@?$output_processor@DV?$stream_output_adapter@D@__crt_stdio_output@@V?$standard_base@DV?$stream_output_adapter@D@__crt_stdio_output@@@2@@__crt_stdio_output@@AEAA_ND@Z 0000000180040628 f i libucrt:output.obj
 0001:0003f6fc       ?type_case_c_tchar@?$output_processor@DV?$string_output_adapter@D@__crt_stdio_output@@V?$format_validation_base@DV?$string_output_adapter@D@__crt_stdio_output@@@2@@__crt_stdio_output@@AEAA_ND@Z 00000001800406fc f i libucrt:output.obj
 0001:0003f7d0       ?type_case_c_tchar@?$output_processor@DV?$string_output_adapter@D@__crt_stdio_output@@V?$positional_parameter_base@DV?$string_output_adapter@D@__crt_stdio_output@@@2@@__crt_stdio_output@@AEAA_ND@Z 00000001800407d0 f i libucrt:output.obj
 0001:0003f8ec       ?type_case_c_tchar@?$output_processor@DV?$string_output_adapter@D@__crt_stdio_output@@V?$standard_base@DV?$string_output_adapter@D@__crt_stdio_output@@@2@@__crt_stdio_output@@AEAA_ND@Z 00000001800408ec f i libucrt:output.obj
 0001:0003f9c0       ?type_case_c_tchar@?$output_processor@_WV?$stream_output_adapter@_W@__crt_stdio_output@@V?$format_validation_base@_WV?$stream_output_adapter@_W@__crt_stdio_output@@@2@@__crt_stdio_output@@AEAA_N_W@Z 00000001800409c0 f i libucrt:output.obj
 0001:0003fa84       ?type_case_c_tchar@?$output_processor@_WV?$stream_output_adapter@_W@__crt_stdio_output@@V?$positional_parameter_base@_WV?$stream_output_adapter@_W@__crt_stdio_output@@@2@@__crt_stdio_output@@AEAA_N_W@Z 0000000180040a84 f i libucrt:output.obj
 0001:0003fb7c       ?type_case_c_tchar@?$output_processor@_WV?$stream_output_adapter@_W@__crt_stdio_output@@V?$standard_base@_WV?$stream_output_adapter@_W@__crt_stdio_output@@@2@@__crt_stdio_output@@AEAA_N_W@Z 0000000180040b7c f i libucrt:output.obj
 0001:0003fc40       ?type_case_c_tchar@?$output_processor@_WV?$string_output_adapter@_W@__crt_stdio_output@@V?$format_validation_base@_WV?$string_output_adapter@_W@__crt_stdio_output@@@2@@__crt_stdio_output@@AEAA_N_W@Z 0000000180040c40 f i libucrt:output.obj
 0001:0003fd04       ?type_case_c_tchar@?$output_processor@_WV?$string_output_adapter@_W@__crt_stdio_output@@V?$positional_parameter_base@_WV?$string_output_adapter@_W@__crt_stdio_output@@@2@@__crt_stdio_output@@AEAA_N_W@Z 0000000180040d04 f i libucrt:output.obj
 0001:0003fdfc       ?type_case_c_tchar@?$output_processor@_WV?$string_output_adapter@_W@__crt_stdio_output@@V?$standard_base@_WV?$string_output_adapter@_W@__crt_stdio_output@@@2@@__crt_stdio_output@@AEAA_N_W@Z 0000000180040dfc f i libucrt:output.obj
 0001:0003fec0       ?type_case_d@?$output_processor@DV?$stream_output_adapter@D@__crt_stdio_output@@V?$format_validation_base@DV?$stream_output_adapter@D@__crt_stdio_output@@@2@@__crt_stdio_output@@AEAA_NXZ 0000000180040ec0 f i libucrt:output.obj
 0001:0003fecc       ?type_case_d@?$output_processor@DV?$stream_output_adapter@D@__crt_stdio_output@@V?$positional_parameter_base@DV?$stream_output_adapter@D@__crt_stdio_output@@@2@@__crt_stdio_output@@AEAA_NXZ 0000000180040ecc f i libucrt:output.obj
 0001:0003fed8       ?type_case_d@?$output_processor@DV?$stream_output_adapter@D@__crt_stdio_output@@V?$standard_base@DV?$stream_output_adapter@D@__crt_stdio_output@@@2@@__crt_stdio_output@@AEAA_NXZ 0000000180040ed8 f i libucrt:output.obj
 0001:0003fee4       ?type_case_d@?$output_processor@DV?$string_output_adapter@D@__crt_stdio_output@@V?$format_validation_base@DV?$string_output_adapter@D@__crt_stdio_output@@@2@@__crt_stdio_output@@AEAA_NXZ 0000000180040ee4 f i libucrt:output.obj
 0001:0003fef0       ?type_case_d@?$output_processor@DV?$string_output_adapter@D@__crt_stdio_output@@V?$positional_parameter_base@DV?$string_output_adapter@D@__crt_stdio_output@@@2@@__crt_stdio_output@@AEAA_NXZ 0000000180040ef0 f i libucrt:output.obj
 0001:0003fefc       ?type_case_d@?$output_processor@DV?$string_output_adapter@D@__crt_stdio_output@@V?$standard_base@DV?$string_output_adapter@D@__crt_stdio_output@@@2@@__crt_stdio_output@@AEAA_NXZ 0000000180040efc f i libucrt:output.obj
 0001:0003ff08       ?type_case_d@?$output_processor@_WV?$stream_output_adapter@_W@__crt_stdio_output@@V?$format_validation_base@_WV?$stream_output_adapter@_W@__crt_stdio_output@@@2@@__crt_stdio_output@@AEAA_NXZ 0000000180040f08 f i libucrt:output.obj
 0001:0003ff14       ?type_case_d@?$output_processor@_WV?$stream_output_adapter@_W@__crt_stdio_output@@V?$positional_parameter_base@_WV?$stream_output_adapter@_W@__crt_stdio_output@@@2@@__crt_stdio_output@@AEAA_NXZ 0000000180040f14 f i libucrt:output.obj
 0001:0003ff20       ?type_case_d@?$output_processor@_WV?$stream_output_adapter@_W@__crt_stdio_output@@V?$standard_base@_WV?$stream_output_adapter@_W@__crt_stdio_output@@@2@@__crt_stdio_output@@AEAA_NXZ 0000000180040f20 f i libucrt:output.obj
 0001:0003ff2c       ?type_case_d@?$output_processor@_WV?$string_output_adapter@_W@__crt_stdio_output@@V?$format_validation_base@_WV?$string_output_adapter@_W@__crt_stdio_output@@@2@@__crt_stdio_output@@AEAA_NXZ 0000000180040f2c f i libucrt:output.obj
 0001:0003ff38       ?type_case_d@?$output_processor@_WV?$string_output_adapter@_W@__crt_stdio_output@@V?$positional_parameter_base@_WV?$string_output_adapter@_W@__crt_stdio_output@@@2@@__crt_stdio_output@@AEAA_NXZ 0000000180040f38 f i libucrt:output.obj
 0001:0003ff44       ?type_case_d@?$output_processor@_WV?$string_output_adapter@_W@__crt_stdio_output@@V?$standard_base@_WV?$string_output_adapter@_W@__crt_stdio_output@@@2@@__crt_stdio_output@@AEAA_NXZ 0000000180040f44 f i libucrt:output.obj
 0001:0003ff50       ?type_case_n@?$output_processor@DV?$stream_output_adapter@D@__crt_stdio_output@@V?$format_validation_base@DV?$stream_output_adapter@D@__crt_stdio_output@@@2@@__crt_stdio_output@@AEAA_NXZ 0000000180040f50 f i libucrt:output.obj
 0001:00040008       ?type_case_n@?$output_processor@DV?$stream_output_adapter@D@__crt_stdio_output@@V?$positional_parameter_base@DV?$stream_output_adapter@D@__crt_stdio_output@@@2@@__crt_stdio_output@@AEAA_NXZ 0000000180041008 f i libucrt:output.obj
 0001:000400ec       ?type_case_n@?$output_processor@DV?$stream_output_adapter@D@__crt_stdio_output@@V?$standard_base@DV?$stream_output_adapter@D@__crt_stdio_output@@@2@@__crt_stdio_output@@AEAA_NXZ 00000001800410ec f i libucrt:output.obj
 0001:000401a4       ?type_case_n@?$output_processor@DV?$string_output_adapter@D@__crt_stdio_output@@V?$format_validation_base@DV?$string_output_adapter@D@__crt_stdio_output@@@2@@__crt_stdio_output@@AEAA_NXZ 00000001800411a4 f i libucrt:output.obj
 0001:0004025c       ?type_case_n@?$output_processor@DV?$string_output_adapter@D@__crt_stdio_output@@V?$positional_parameter_base@DV?$string_output_adapter@D@__crt_stdio_output@@@2@@__crt_stdio_output@@AEAA_NXZ 000000018004125c f i libucrt:output.obj
 0001:00040340       ?type_case_n@?$output_processor@DV?$string_output_adapter@D@__crt_stdio_output@@V?$standard_base@DV?$string_output_adapter@D@__crt_stdio_output@@@2@@__crt_stdio_output@@AEAA_NXZ 0000000180041340 f i libucrt:output.obj
 0001:000403f8       ?type_case_n@?$output_processor@_WV?$stream_output_adapter@_W@__crt_stdio_output@@V?$format_validation_base@_WV?$stream_output_adapter@_W@__crt_stdio_output@@@2@@__crt_stdio_output@@AEAA_NXZ 00000001800413f8 f i libucrt:output.obj
 0001:000404b0       ?type_case_n@?$output_processor@_WV?$stream_output_adapter@_W@__crt_stdio_output@@V?$positional_parameter_base@_WV?$stream_output_adapter@_W@__crt_stdio_output@@@2@@__crt_stdio_output@@AEAA_NXZ 00000001800414b0 f i libucrt:output.obj
 0001:00040594       ?type_case_n@?$output_processor@_WV?$stream_output_adapter@_W@__crt_stdio_output@@V?$standard_base@_WV?$stream_output_adapter@_W@__crt_stdio_output@@@2@@__crt_stdio_output@@AEAA_NXZ 0000000180041594 f i libucrt:output.obj
 0001:0004064c       ?type_case_n@?$output_processor@_WV?$string_output_adapter@_W@__crt_stdio_output@@V?$format_validation_base@_WV?$string_output_adapter@_W@__crt_stdio_output@@@2@@__crt_stdio_output@@AEAA_NXZ 000000018004164c f i libucrt:output.obj
 0001:00040704       ?type_case_n@?$output_processor@_WV?$string_output_adapter@_W@__crt_stdio_output@@V?$positional_parameter_base@_WV?$string_output_adapter@_W@__crt_stdio_output@@@2@@__crt_stdio_output@@AEAA_NXZ 0000000180041704 f i libucrt:output.obj
 0001:000407e8       ?type_case_n@?$output_processor@_WV?$string_output_adapter@_W@__crt_stdio_output@@V?$standard_base@_WV?$string_output_adapter@_W@__crt_stdio_output@@@2@@__crt_stdio_output@@AEAA_NXZ 00000001800417e8 f i libucrt:output.obj
 0001:000408a0       ?type_case_o@?$output_processor@DV?$stream_output_adapter@D@__crt_stdio_output@@V?$format_validation_base@DV?$stream_output_adapter@D@__crt_stdio_output@@@2@@__crt_stdio_output@@AEAA_NXZ 00000001800418a0 f i libucrt:output.obj
 0001:000408bc       ?type_case_o@?$output_processor@DV?$stream_output_adapter@D@__crt_stdio_output@@V?$positional_parameter_base@DV?$stream_output_adapter@D@__crt_stdio_output@@@2@@__crt_stdio_output@@AEAA_NXZ 00000001800418bc f i libucrt:output.obj
 0001:000408d8       ?type_case_o@?$output_processor@DV?$stream_output_adapter@D@__crt_stdio_output@@V?$standard_base@DV?$stream_output_adapter@D@__crt_stdio_output@@@2@@__crt_stdio_output@@AEAA_NXZ 00000001800418d8 f i libucrt:output.obj
 0001:000408f4       ?type_case_o@?$output_processor@DV?$string_output_adapter@D@__crt_stdio_output@@V?$format_validation_base@DV?$string_output_adapter@D@__crt_stdio_output@@@2@@__crt_stdio_output@@AEAA_NXZ 00000001800418f4 f i libucrt:output.obj
 0001:00040910       ?type_case_o@?$output_processor@DV?$string_output_adapter@D@__crt_stdio_output@@V?$positional_parameter_base@DV?$string_output_adapter@D@__crt_stdio_output@@@2@@__crt_stdio_output@@AEAA_NXZ 0000000180041910 f i libucrt:output.obj
 0001:0004092c       ?type_case_o@?$output_processor@DV?$string_output_adapter@D@__crt_stdio_output@@V?$standard_base@DV?$string_output_adapter@D@__crt_stdio_output@@@2@@__crt_stdio_output@@AEAA_NXZ 000000018004192c f i libucrt:output.obj
 0001:00040948       ?type_case_o@?$output_processor@_WV?$stream_output_adapter@_W@__crt_stdio_output@@V?$format_validation_base@_WV?$stream_output_adapter@_W@__crt_stdio_output@@@2@@__crt_stdio_output@@AEAA_NXZ 0000000180041948 f i libucrt:output.obj
 0001:00040964       ?type_case_o@?$output_processor@_WV?$stream_output_adapter@_W@__crt_stdio_output@@V?$positional_parameter_base@_WV?$stream_output_adapter@_W@__crt_stdio_output@@@2@@__crt_stdio_output@@AEAA_NXZ 0000000180041964 f i libucrt:output.obj
 0001:00040980       ?type_case_o@?$output_processor@_WV?$stream_output_adapter@_W@__crt_stdio_output@@V?$standard_base@_WV?$stream_output_adapter@_W@__crt_stdio_output@@@2@@__crt_stdio_output@@AEAA_NXZ 0000000180041980 f i libucrt:output.obj
 0001:0004099c       ?type_case_o@?$output_processor@_WV?$string_output_adapter@_W@__crt_stdio_output@@V?$format_validation_base@_WV?$string_output_adapter@_W@__crt_stdio_output@@@2@@__crt_stdio_output@@AEAA_NXZ 000000018004199c f i libucrt:output.obj
 0001:000409b8       ?type_case_o@?$output_processor@_WV?$string_output_adapter@_W@__crt_stdio_output@@V?$positional_parameter_base@_WV?$string_output_adapter@_W@__crt_stdio_output@@@2@@__crt_stdio_output@@AEAA_NXZ 00000001800419b8 f i libucrt:output.obj
 0001:000409d4       ?type_case_o@?$output_processor@_WV?$string_output_adapter@_W@__crt_stdio_output@@V?$standard_base@_WV?$string_output_adapter@_W@__crt_stdio_output@@@2@@__crt_stdio_output@@AEAA_NXZ 00000001800419d4 f i libucrt:output.obj
 0001:000409f0       ?type_case_p@?$output_processor@DV?$stream_output_adapter@D@__crt_stdio_output@@V?$format_validation_base@DV?$stream_output_adapter@D@__crt_stdio_output@@@2@@__crt_stdio_output@@AEAA_NXZ 00000001800419f0 f i libucrt:output.obj
 0001:00040a08       ?type_case_p@?$output_processor@DV?$stream_output_adapter@D@__crt_stdio_output@@V?$positional_parameter_base@DV?$stream_output_adapter@D@__crt_stdio_output@@@2@@__crt_stdio_output@@AEAA_NXZ 0000000180041a08 f i libucrt:output.obj
 0001:00040a20       ?type_case_p@?$output_processor@DV?$stream_output_adapter@D@__crt_stdio_output@@V?$standard_base@DV?$stream_output_adapter@D@__crt_stdio_output@@@2@@__crt_stdio_output@@AEAA_NXZ 0000000180041a20 f i libucrt:output.obj
 0001:00040a38       ?type_case_p@?$output_processor@DV?$string_output_adapter@D@__crt_stdio_output@@V?$format_validation_base@DV?$string_output_adapter@D@__crt_stdio_output@@@2@@__crt_stdio_output@@AEAA_NXZ 0000000180041a38 f i libucrt:output.obj
 0001:00040a50       ?type_case_p@?$output_processor@DV?$string_output_adapter@D@__crt_stdio_output@@V?$positional_parameter_base@DV?$string_output_adapter@D@__crt_stdio_output@@@2@@__crt_stdio_output@@AEAA_NXZ 0000000180041a50 f i libucrt:output.obj
 0001:00040a68       ?type_case_p@?$output_processor@DV?$string_output_adapter@D@__crt_stdio_output@@V?$standard_base@DV?$string_output_adapter@D@__crt_stdio_output@@@2@@__crt_stdio_output@@AEAA_NXZ 0000000180041a68 f i libucrt:output.obj
 0001:00040a80       ?type_case_p@?$output_processor@_WV?$stream_output_adapter@_W@__crt_stdio_output@@V?$format_validation_base@_WV?$stream_output_adapter@_W@__crt_stdio_output@@@2@@__crt_stdio_output@@AEAA_NXZ 0000000180041a80 f i libucrt:output.obj
 0001:00040a98       ?type_case_p@?$output_processor@_WV?$stream_output_adapter@_W@__crt_stdio_output@@V?$positional_parameter_base@_WV?$stream_output_adapter@_W@__crt_stdio_output@@@2@@__crt_stdio_output@@AEAA_NXZ 0000000180041a98 f i libucrt:output.obj
 0001:00040ab0       ?type_case_p@?$output_processor@_WV?$stream_output_adapter@_W@__crt_stdio_output@@V?$standard_base@_WV?$stream_output_adapter@_W@__crt_stdio_output@@@2@@__crt_stdio_output@@AEAA_NXZ 0000000180041ab0 f i libucrt:output.obj
 0001:00040ac8       ?type_case_p@?$output_processor@_WV?$string_output_adapter@_W@__crt_stdio_output@@V?$format_validation_base@_WV?$string_output_adapter@_W@__crt_stdio_output@@@2@@__crt_stdio_output@@AEAA_NXZ 0000000180041ac8 f i libucrt:output.obj
 0001:00040ae0       ?type_case_p@?$output_processor@_WV?$string_output_adapter@_W@__crt_stdio_output@@V?$positional_parameter_base@_WV?$string_output_adapter@_W@__crt_stdio_output@@@2@@__crt_stdio_output@@AEAA_NXZ 0000000180041ae0 f i libucrt:output.obj
 0001:00040af8       ?type_case_p@?$output_processor@_WV?$string_output_adapter@_W@__crt_stdio_output@@V?$standard_base@_WV?$string_output_adapter@_W@__crt_stdio_output@@@2@@__crt_stdio_output@@AEAA_NXZ 0000000180041af8 f i libucrt:output.obj
 0001:00040b10       ?type_case_s@?$output_processor@DV?$stream_output_adapter@D@__crt_stdio_output@@V?$format_validation_base@DV?$stream_output_adapter@D@__crt_stdio_output@@@2@@__crt_stdio_output@@AEAA_NXZ 0000000180041b10 f i libucrt:output.obj
 0001:00040bac       ?type_case_s@?$output_processor@DV?$stream_output_adapter@D@__crt_stdio_output@@V?$positional_parameter_base@DV?$stream_output_adapter@D@__crt_stdio_output@@@2@@__crt_stdio_output@@AEAA_NXZ 0000000180041bac f i libucrt:output.obj
 0001:00040c68       ?type_case_s@?$output_processor@DV?$stream_output_adapter@D@__crt_stdio_output@@V?$standard_base@DV?$stream_output_adapter@D@__crt_stdio_output@@@2@@__crt_stdio_output@@AEAA_NXZ 0000000180041c68 f i libucrt:output.obj
 0001:00040d04       ?type_case_s@?$output_processor@DV?$string_output_adapter@D@__crt_stdio_output@@V?$format_validation_base@DV?$string_output_adapter@D@__crt_stdio_output@@@2@@__crt_stdio_output@@AEAA_NXZ 0000000180041d04 f i libucrt:output.obj
 0001:00040da0       ?type_case_s@?$output_processor@DV?$string_output_adapter@D@__crt_stdio_output@@V?$positional_parameter_base@DV?$string_output_adapter@D@__crt_stdio_output@@@2@@__crt_stdio_output@@AEAA_NXZ 0000000180041da0 f i libucrt:output.obj
 0001:00040e5c       ?type_case_s@?$output_processor@DV?$string_output_adapter@D@__crt_stdio_output@@V?$standard_base@DV?$string_output_adapter@D@__crt_stdio_output@@@2@@__crt_stdio_output@@AEAA_NXZ 0000000180041e5c f i libucrt:output.obj
 0001:00040ef8       ?type_case_s@?$output_processor@_WV?$stream_output_adapter@_W@__crt_stdio_output@@V?$format_validation_base@_WV?$stream_output_adapter@_W@__crt_stdio_output@@@2@@__crt_stdio_output@@AEAA_NXZ 0000000180041ef8 f i libucrt:output.obj
 0001:00040f94       ?type_case_s@?$output_processor@_WV?$stream_output_adapter@_W@__crt_stdio_output@@V?$positional_parameter_base@_WV?$stream_output_adapter@_W@__crt_stdio_output@@@2@@__crt_stdio_output@@AEAA_NXZ 0000000180041f94 f i libucrt:output.obj
 0001:00041048       ?type_case_s@?$output_processor@_WV?$stream_output_adapter@_W@__crt_stdio_output@@V?$standard_base@_WV?$stream_output_adapter@_W@__crt_stdio_output@@@2@@__crt_stdio_output@@AEAA_NXZ 0000000180042048 f i libucrt:output.obj
 0001:000410e4       ?type_case_s@?$output_processor@_WV?$string_output_adapter@_W@__crt_stdio_output@@V?$format_validation_base@_WV?$string_output_adapter@_W@__crt_stdio_output@@@2@@__crt_stdio_output@@AEAA_NXZ 00000001800420e4 f i libucrt:output.obj
 0001:00041180       ?type_case_s@?$output_processor@_WV?$string_output_adapter@_W@__crt_stdio_output@@V?$positional_parameter_base@_WV?$string_output_adapter@_W@__crt_stdio_output@@@2@@__crt_stdio_output@@AEAA_NXZ 0000000180042180 f i libucrt:output.obj
 0001:00041234       ?type_case_s@?$output_processor@_WV?$string_output_adapter@_W@__crt_stdio_output@@V?$standard_base@_WV?$string_output_adapter@_W@__crt_stdio_output@@@2@@__crt_stdio_output@@AEAA_NXZ 0000000180042234 f i libucrt:output.obj
 0001:000412d0       ?type_case_s_compute_narrow_string_length@?$output_processor@DV?$stream_output_adapter@D@__crt_stdio_output@@V?$format_validation_base@DV?$stream_output_adapter@D@__crt_stdio_output@@@2@@__crt_stdio_output@@AEAAHHD@Z 00000001800422d0 f i libucrt:output.obj
 0001:000412dc       ?type_case_s_compute_narrow_string_length@?$output_processor@DV?$stream_output_adapter@D@__crt_stdio_output@@V?$positional_parameter_base@DV?$stream_output_adapter@D@__crt_stdio_output@@@2@@__crt_stdio_output@@AEAAHHD@Z 00000001800422dc f i libucrt:output.obj
 0001:000412e8       ?type_case_s_compute_narrow_string_length@?$output_processor@DV?$stream_output_adapter@D@__crt_stdio_output@@V?$standard_base@DV?$stream_output_adapter@D@__crt_stdio_output@@@2@@__crt_stdio_output@@AEAAHHD@Z 00000001800422e8 f i libucrt:output.obj
 0001:000412f4       ?type_case_s_compute_narrow_string_length@?$output_processor@DV?$string_output_adapter@D@__crt_stdio_output@@V?$format_validation_base@DV?$string_output_adapter@D@__crt_stdio_output@@@2@@__crt_stdio_output@@AEAAHHD@Z 00000001800422f4 f i libucrt:output.obj
 0001:00041300       ?type_case_s_compute_narrow_string_length@?$output_processor@DV?$string_output_adapter@D@__crt_stdio_output@@V?$positional_parameter_base@DV?$string_output_adapter@D@__crt_stdio_output@@@2@@__crt_stdio_output@@AEAAHHD@Z 0000000180042300 f i libucrt:output.obj
 0001:0004130c       ?type_case_s_compute_narrow_string_length@?$output_processor@DV?$string_output_adapter@D@__crt_stdio_output@@V?$standard_base@DV?$string_output_adapter@D@__crt_stdio_output@@@2@@__crt_stdio_output@@AEAAHHD@Z 000000018004230c f i libucrt:output.obj
 0001:00041318       ?type_case_s_compute_narrow_string_length@?$output_processor@_WV?$stream_output_adapter@_W@__crt_stdio_output@@V?$format_validation_base@_WV?$stream_output_adapter@_W@__crt_stdio_output@@@2@@__crt_stdio_output@@AEAAHH_W@Z 0000000180042318 f i libucrt:output.obj
 0001:0004138c       ?type_case_s_compute_narrow_string_length@?$output_processor@_WV?$stream_output_adapter@_W@__crt_stdio_output@@V?$positional_parameter_base@_WV?$stream_output_adapter@_W@__crt_stdio_output@@@2@@__crt_stdio_output@@AEAAHH_W@Z 000000018004238c f i libucrt:output.obj
 0001:00041400       ?type_case_s_compute_narrow_string_length@?$output_processor@_WV?$stream_output_adapter@_W@__crt_stdio_output@@V?$standard_base@_WV?$stream_output_adapter@_W@__crt_stdio_output@@@2@@__crt_stdio_output@@AEAAHH_W@Z 0000000180042400 f i libucrt:output.obj
 0001:00041474       ?type_case_s_compute_narrow_string_length@?$output_processor@_WV?$string_output_adapter@_W@__crt_stdio_output@@V?$format_validation_base@_WV?$string_output_adapter@_W@__crt_stdio_output@@@2@@__crt_stdio_output@@AEAAHH_W@Z 0000000180042474 f i libucrt:output.obj
 0001:000414e8       ?type_case_s_compute_narrow_string_length@?$output_processor@_WV?$string_output_adapter@_W@__crt_stdio_output@@V?$positional_parameter_base@_WV?$string_output_adapter@_W@__crt_stdio_output@@@2@@__crt_stdio_output@@AEAAHH_W@Z 00000001800424e8 f i libucrt:output.obj
 0001:0004155c       ?type_case_s_compute_narrow_string_length@?$output_processor@_WV?$string_output_adapter@_W@__crt_stdio_output@@V?$standard_base@_WV?$string_output_adapter@_W@__crt_stdio_output@@@2@@__crt_stdio_output@@AEAAHH_W@Z 000000018004255c f i libucrt:output.obj
 0001:000415d0       ?type_case_u@?$output_processor@DV?$stream_output_adapter@D@__crt_stdio_output@@V?$format_validation_base@DV?$stream_output_adapter@D@__crt_stdio_output@@@2@@__crt_stdio_output@@AEAA_NXZ 00000001800425d0 f i libucrt:output.obj
 0001:000415d8       ?type_case_u@?$output_processor@DV?$stream_output_adapter@D@__crt_stdio_output@@V?$positional_parameter_base@DV?$stream_output_adapter@D@__crt_stdio_output@@@2@@__crt_stdio_output@@AEAA_NXZ 00000001800425d8 f i libucrt:output.obj
 0001:000415e0       ?type_case_u@?$output_processor@DV?$stream_output_adapter@D@__crt_stdio_output@@V?$standard_base@DV?$stream_output_adapter@D@__crt_stdio_output@@@2@@__crt_stdio_output@@AEAA_NXZ 00000001800425e0 f i libucrt:output.obj
 0001:000415e8       ?type_case_u@?$output_processor@DV?$string_output_adapter@D@__crt_stdio_output@@V?$format_validation_base@DV?$string_output_adapter@D@__crt_stdio_output@@@2@@__crt_stdio_output@@AEAA_NXZ 00000001800425e8 f i libucrt:output.obj
 0001:000415f0       ?type_case_u@?$output_processor@DV?$string_output_adapter@D@__crt_stdio_output@@V?$positional_parameter_base@DV?$string_output_adapter@D@__crt_stdio_output@@@2@@__crt_stdio_output@@AEAA_NXZ 00000001800425f0 f i libucrt:output.obj
 0001:000415f8       ?type_case_u@?$output_processor@DV?$string_output_adapter@D@__crt_stdio_output@@V?$standard_base@DV?$string_output_adapter@D@__crt_stdio_output@@@2@@__crt_stdio_output@@AEAA_NXZ 00000001800425f8 f i libucrt:output.obj
 0001:00041600       ?type_case_u@?$output_processor@_WV?$stream_output_adapter@_W@__crt_stdio_output@@V?$format_validation_base@_WV?$stream_output_adapter@_W@__crt_stdio_output@@@2@@__crt_stdio_output@@AEAA_NXZ 0000000180042600 f i libucrt:output.obj
 0001:00041608       ?type_case_u@?$output_processor@_WV?$stream_output_adapter@_W@__crt_stdio_output@@V?$positional_parameter_base@_WV?$stream_output_adapter@_W@__crt_stdio_output@@@2@@__crt_stdio_output@@AEAA_NXZ 0000000180042608 f i libucrt:output.obj
 0001:00041610       ?type_case_u@?$output_processor@_WV?$stream_output_adapter@_W@__crt_stdio_output@@V?$standard_base@_WV?$stream_output_adapter@_W@__crt_stdio_output@@@2@@__crt_stdio_output@@AEAA_NXZ 0000000180042610 f i libucrt:output.obj
 0001:00041618       ?type_case_u@?$output_processor@_WV?$string_output_adapter@_W@__crt_stdio_output@@V?$format_validation_base@_WV?$string_output_adapter@_W@__crt_stdio_output@@@2@@__crt_stdio_output@@AEAA_NXZ 0000000180042618 f i libucrt:output.obj
 0001:00041620       ?type_case_u@?$output_processor@_WV?$string_output_adapter@_W@__crt_stdio_output@@V?$positional_parameter_base@_WV?$string_output_adapter@_W@__crt_stdio_output@@@2@@__crt_stdio_output@@AEAA_NXZ 0000000180042620 f i libucrt:output.obj
 0001:00041628       ?type_case_u@?$output_processor@_WV?$string_output_adapter@_W@__crt_stdio_output@@V?$standard_base@_WV?$string_output_adapter@_W@__crt_stdio_output@@@2@@__crt_stdio_output@@AEAA_NXZ 0000000180042628 f i libucrt:output.obj
 0001:00041630       ?type_case_x@?$output_processor@DV?$stream_output_adapter@D@__crt_stdio_output@@V?$format_validation_base@DV?$stream_output_adapter@D@__crt_stdio_output@@@2@@__crt_stdio_output@@AEAA_NXZ 0000000180042630 f i libucrt:output.obj
 0001:00041638       ?type_case_x@?$output_processor@DV?$stream_output_adapter@D@__crt_stdio_output@@V?$positional_parameter_base@DV?$stream_output_adapter@D@__crt_stdio_output@@@2@@__crt_stdio_output@@AEAA_NXZ 0000000180042638 f i libucrt:output.obj
 0001:00041640       ?type_case_x@?$output_processor@DV?$stream_output_adapter@D@__crt_stdio_output@@V?$standard_base@DV?$stream_output_adapter@D@__crt_stdio_output@@@2@@__crt_stdio_output@@AEAA_NXZ 0000000180042640 f i libucrt:output.obj
 0001:00041648       ?type_case_x@?$output_processor@DV?$string_output_adapter@D@__crt_stdio_output@@V?$format_validation_base@DV?$string_output_adapter@D@__crt_stdio_output@@@2@@__crt_stdio_output@@AEAA_NXZ 0000000180042648 f i libucrt:output.obj
 0001:00041650       ?type_case_x@?$output_processor@DV?$string_output_adapter@D@__crt_stdio_output@@V?$positional_parameter_base@DV?$string_output_adapter@D@__crt_stdio_output@@@2@@__crt_stdio_output@@AEAA_NXZ 0000000180042650 f i libucrt:output.obj
 0001:00041658       ?type_case_x@?$output_processor@DV?$string_output_adapter@D@__crt_stdio_output@@V?$standard_base@DV?$string_output_adapter@D@__crt_stdio_output@@@2@@__crt_stdio_output@@AEAA_NXZ 0000000180042658 f i libucrt:output.obj
 0001:00041660       ?type_case_x@?$output_processor@_WV?$stream_output_adapter@_W@__crt_stdio_output@@V?$format_validation_base@_WV?$stream_output_adapter@_W@__crt_stdio_output@@@2@@__crt_stdio_output@@AEAA_NXZ 0000000180042660 f i libucrt:output.obj
 0001:00041668       ?type_case_x@?$output_processor@_WV?$stream_output_adapter@_W@__crt_stdio_output@@V?$positional_parameter_base@_WV?$stream_output_adapter@_W@__crt_stdio_output@@@2@@__crt_stdio_output@@AEAA_NXZ 0000000180042668 f i libucrt:output.obj
 0001:00041670       ?type_case_x@?$output_processor@_WV?$stream_output_adapter@_W@__crt_stdio_output@@V?$standard_base@_WV?$stream_output_adapter@_W@__crt_stdio_output@@@2@@__crt_stdio_output@@AEAA_NXZ 0000000180042670 f i libucrt:output.obj
 0001:00041678       ?type_case_x@?$output_processor@_WV?$string_output_adapter@_W@__crt_stdio_output@@V?$format_validation_base@_WV?$string_output_adapter@_W@__crt_stdio_output@@@2@@__crt_stdio_output@@AEAA_NXZ 0000000180042678 f i libucrt:output.obj
 0001:00041680       ?type_case_x@?$output_processor@_WV?$string_output_adapter@_W@__crt_stdio_output@@V?$positional_parameter_base@_WV?$string_output_adapter@_W@__crt_stdio_output@@@2@@__crt_stdio_output@@AEAA_NXZ 0000000180042680 f i libucrt:output.obj
 0001:00041688       ?type_case_x@?$output_processor@_WV?$string_output_adapter@_W@__crt_stdio_output@@V?$standard_base@_WV?$string_output_adapter@_W@__crt_stdio_output@@@2@@__crt_stdio_output@@AEAA_NXZ 0000000180042688 f i libucrt:output.obj
 0001:00041690       ?unget@?$c_string_character_source@D@__crt_strtox@@QEAAXD@Z 0000000180042690 f i libucrt:output.obj
 0001:000416bc       ?unget@?$c_string_character_source@_W@__crt_strtox@@QEAAX_W@Z 00000001800426bc f i libucrt:output.obj
 0001:000416ec       ?unset_flag@?$output_processor@DV?$stream_output_adapter@D@__crt_stdio_output@@V?$format_validation_base@DV?$stream_output_adapter@D@__crt_stdio_output@@@2@@__crt_stdio_output@@AEAAXI@Z 00000001800426ec f i libucrt:output.obj
 0001:000416f4       ?unset_flag@?$output_processor@DV?$stream_output_adapter@D@__crt_stdio_output@@V?$positional_parameter_base@DV?$stream_output_adapter@D@__crt_stdio_output@@@2@@__crt_stdio_output@@AEAAXI@Z 00000001800426f4 f i libucrt:output.obj
 0001:000416fc       ?unset_flag@?$output_processor@DV?$stream_output_adapter@D@__crt_stdio_output@@V?$standard_base@DV?$stream_output_adapter@D@__crt_stdio_output@@@2@@__crt_stdio_output@@AEAAXI@Z 00000001800426fc f i libucrt:output.obj
 0001:00041704       ?unset_flag@?$output_processor@DV?$string_output_adapter@D@__crt_stdio_output@@V?$format_validation_base@DV?$string_output_adapter@D@__crt_stdio_output@@@2@@__crt_stdio_output@@AEAAXI@Z 0000000180042704 f i libucrt:output.obj
 0001:0004170c       ?unset_flag@?$output_processor@DV?$string_output_adapter@D@__crt_stdio_output@@V?$positional_parameter_base@DV?$string_output_adapter@D@__crt_stdio_output@@@2@@__crt_stdio_output@@AEAAXI@Z 000000018004270c f i libucrt:output.obj
 0001:00041714       ?unset_flag@?$output_processor@DV?$string_output_adapter@D@__crt_stdio_output@@V?$standard_base@DV?$string_output_adapter@D@__crt_stdio_output@@@2@@__crt_stdio_output@@AEAAXI@Z 0000000180042714 f i libucrt:output.obj
 0001:0004171c       ?unset_flag@?$output_processor@_WV?$stream_output_adapter@_W@__crt_stdio_output@@V?$format_validation_base@_WV?$stream_output_adapter@_W@__crt_stdio_output@@@2@@__crt_stdio_output@@AEAAXI@Z 000000018004271c f i libucrt:output.obj
 0001:00041724       ?unset_flag@?$output_processor@_WV?$stream_output_adapter@_W@__crt_stdio_output@@V?$positional_parameter_base@_WV?$stream_output_adapter@_W@__crt_stdio_output@@@2@@__crt_stdio_output@@AEAAXI@Z 0000000180042724 f i libucrt:output.obj
 0001:0004172c       ?unset_flag@?$output_processor@_WV?$stream_output_adapter@_W@__crt_stdio_output@@V?$standard_base@_WV?$stream_output_adapter@_W@__crt_stdio_output@@@2@@__crt_stdio_output@@AEAAXI@Z 000000018004272c f i libucrt:output.obj
 0001:00041734       ?unset_flag@?$output_processor@_WV?$string_output_adapter@_W@__crt_stdio_output@@V?$format_validation_base@_WV?$string_output_adapter@_W@__crt_stdio_output@@@2@@__crt_stdio_output@@AEAAXI@Z 0000000180042734 f i libucrt:output.obj
 0001:0004173c       ?unset_flag@?$output_processor@_WV?$string_output_adapter@_W@__crt_stdio_output@@V?$positional_parameter_base@_WV?$string_output_adapter@_W@__crt_stdio_output@@@2@@__crt_stdio_output@@AEAAXI@Z 000000018004273c f i libucrt:output.obj
 0001:00041744       ?unset_flag@?$output_processor@_WV?$string_output_adapter@_W@__crt_stdio_output@@V?$standard_base@_WV?$string_output_adapter@_W@__crt_stdio_output@@@2@@__crt_stdio_output@@AEAAXI@Z 0000000180042744 f i libucrt:output.obj
 0001:0004174c       ?update_field_width@?$positional_parameter_base@DV?$stream_output_adapter@D@__crt_stdio_output@@@__crt_stdio_output@@IEAA_NXZ 000000018004274c f i libucrt:output.obj
 0001:000418bc       ?update_field_width@?$positional_parameter_base@DV?$string_output_adapter@D@__crt_stdio_output@@@__crt_stdio_output@@IEAA_NXZ 00000001800428bc f i libucrt:output.obj
 0001:00041a2c       ?update_field_width@?$positional_parameter_base@_WV?$stream_output_adapter@_W@__crt_stdio_output@@@__crt_stdio_output@@IEAA_NXZ 0000000180042a2c f i libucrt:output.obj
 0001:00041ba0       ?update_field_width@?$positional_parameter_base@_WV?$string_output_adapter@_W@__crt_stdio_output@@@__crt_stdio_output@@IEAA_NXZ 0000000180042ba0 f i libucrt:output.obj
 0001:00041d14       ?update_field_width@?$standard_base@DV?$stream_output_adapter@D@__crt_stdio_output@@@__crt_stdio_output@@IEAA_NXZ 0000000180042d14 f i libucrt:output.obj
 0001:00041d28       ?update_field_width@?$standard_base@DV?$string_output_adapter@D@__crt_stdio_output@@@__crt_stdio_output@@IEAA_NXZ 0000000180042d28 f i libucrt:output.obj
 0001:00041d3c       ?update_field_width@?$standard_base@_WV?$stream_output_adapter@_W@__crt_stdio_output@@@__crt_stdio_output@@IEAA_NXZ 0000000180042d3c f i libucrt:output.obj
 0001:00041d50       ?update_field_width@?$standard_base@_WV?$string_output_adapter@_W@__crt_stdio_output@@@__crt_stdio_output@@IEAA_NXZ 0000000180042d50 f i libucrt:output.obj
 0001:00041d70       ?update_locale@__crt_cached_ptd_host@@AEAAXXZ 0000000180042d70 f i libucrt:output.obj
 0001:00041d80       ?update_locale_slow@__crt_cached_ptd_host@@AEAAXXZ 0000000180042d80 f i libucrt:output.obj
 0001:00041df8       ?update_precision@?$positional_parameter_base@DV?$stream_output_adapter@D@__crt_stdio_output@@@__crt_stdio_output@@IEAA_NXZ 0000000180042df8 f i libucrt:output.obj
 0001:00041f68       ?update_precision@?$positional_parameter_base@DV?$string_output_adapter@D@__crt_stdio_output@@@__crt_stdio_output@@IEAA_NXZ 0000000180042f68 f i libucrt:output.obj
 0001:000420d8       ?update_precision@?$positional_parameter_base@_WV?$stream_output_adapter@_W@__crt_stdio_output@@@__crt_stdio_output@@IEAA_NXZ 00000001800430d8 f i libucrt:output.obj
 0001:0004224c       ?update_precision@?$positional_parameter_base@_WV?$string_output_adapter@_W@__crt_stdio_output@@@__crt_stdio_output@@IEAA_NXZ 000000018004324c f i libucrt:output.obj
 0001:000423c0       ?update_precision@?$standard_base@DV?$stream_output_adapter@D@__crt_stdio_output@@@__crt_stdio_output@@IEAA_NXZ 00000001800433c0 f i libucrt:output.obj
 0001:000423d4       ?update_precision@?$standard_base@DV?$string_output_adapter@D@__crt_stdio_output@@@__crt_stdio_output@@IEAA_NXZ 00000001800433d4 f i libucrt:output.obj
 0001:000423e8       ?update_precision@?$standard_base@_WV?$stream_output_adapter@_W@__crt_stdio_output@@@__crt_stdio_output@@IEAA_NXZ 00000001800433e8 f i libucrt:output.obj
 0001:000423fc       ?update_precision@?$standard_base@_WV?$string_output_adapter@_W@__crt_stdio_output@@@__crt_stdio_output@@IEAA_NXZ 00000001800433fc f i libucrt:output.obj
 0001:00042410       ?valid@__crt_stdio_stream@@QEBA_NXZ 0000000180043410 f i libucrt:output.obj
 0001:00042418       ?validate@?$c_string_character_source@D@__crt_strtox@@QEBA_NXZ 0000000180043418 f i libucrt:output.obj
 0001:00042440       ?validate@?$c_string_character_source@_W@__crt_strtox@@QEBA_NXZ 0000000180043440 f i libucrt:output.obj
 0001:00042468       ?validate@?$stream_output_adapter@D@__crt_stdio_output@@QEBA_NAEAV__crt_cached_ptd_host@@@Z 0000000180043468 f i libucrt:output.obj
 0001:000424a8       ?validate@?$stream_output_adapter@_W@__crt_stdio_output@@QEBA_NAEAV__crt_cached_ptd_host@@@Z 00000001800434a8 f i libucrt:output.obj
 0001:000424e4       ?validate@?$string_output_adapter@D@__crt_stdio_output@@QEBA_NAEAV__crt_cached_ptd_host@@@Z 00000001800434e4 f i libucrt:output.obj
 0001:00042520       ?validate@?$string_output_adapter@_W@__crt_stdio_output@@QEBA_NAEAV__crt_cached_ptd_host@@@Z 0000000180043520 f i libucrt:output.obj
 0001:0004255c       ?validate_and_store_parameter_data@?$positional_parameter_base@DV?$stream_output_adapter@D@__crt_stdio_output@@@__crt_stdio_output@@AEAA_NAEAUparameter_data@12@W4parameter_type@12@DW4length_modifier@2@@Z 000000018004355c f i libucrt:output.obj
 0001:000425c0       ?validate_and_store_parameter_data@?$positional_parameter_base@DV?$string_output_adapter@D@__crt_stdio_output@@@__crt_stdio_output@@AEAA_NAEAUparameter_data@12@W4parameter_type@12@DW4length_modifier@2@@Z 00000001800435c0 f i libucrt:output.obj
 0001:00042624       ?validate_and_store_parameter_data@?$positional_parameter_base@_WV?$stream_output_adapter@_W@__crt_stdio_output@@@__crt_stdio_output@@AEAA_NAEAUparameter_data@12@W4parameter_type@12@_WW4length_modifier@2@@Z 0000000180043624 f i libucrt:output.obj
 0001:00042688       ?validate_and_store_parameter_data@?$positional_parameter_base@_WV?$string_output_adapter@_W@__crt_stdio_output@@@__crt_stdio_output@@AEAA_NAEAUparameter_data@12@W4parameter_type@12@_WW4length_modifier@2@@Z 0000000180043688 f i libucrt:output.obj
 0001:000426ec       ?validate_and_update_state_at_beginning_of_format_character@?$positional_parameter_base@DV?$stream_output_adapter@D@__crt_stdio_output@@@__crt_stdio_output@@IEAA_NXZ 00000001800436ec f i libucrt:output.obj
 0001:00042830       ?validate_and_update_state_at_beginning_of_format_character@?$positional_parameter_base@DV?$string_output_adapter@D@__crt_stdio_output@@@__crt_stdio_output@@IEAA_NXZ 0000000180043830 f i libucrt:output.obj
 0001:00042974       ?validate_and_update_state_at_beginning_of_format_character@?$positional_parameter_base@_WV?$stream_output_adapter@_W@__crt_stdio_output@@@__crt_stdio_output@@IEAA_NXZ 0000000180043974 f i libucrt:output.obj
 0001:00042ac4       ?validate_and_update_state_at_beginning_of_format_character@?$positional_parameter_base@_WV?$string_output_adapter@_W@__crt_stdio_output@@@__crt_stdio_output@@IEAA_NXZ 0000000180043ac4 f i libucrt:output.obj
 0001:00042c14       ?validate_and_update_state_at_beginning_of_format_character@?$standard_base@DV?$stream_output_adapter@D@__crt_stdio_output@@@__crt_stdio_output@@IEAA_NXZ 0000000180043c14 f i libucrt:output.obj
 0001:00042c18       ?validate_and_update_state_at_beginning_of_format_character@?$standard_base@DV?$string_output_adapter@D@__crt_stdio_output@@@__crt_stdio_output@@IEAA_NXZ 0000000180043c18 f i libucrt:output.obj
 0001:00042c1c       ?validate_and_update_state_at_beginning_of_format_character@?$standard_base@_WV?$stream_output_adapter@_W@__crt_stdio_output@@@__crt_stdio_output@@IEAA_NXZ 0000000180043c1c f i libucrt:output.obj
 0001:00042c20       ?validate_and_update_state_at_beginning_of_format_character@?$standard_base@_WV?$string_output_adapter@_W@__crt_stdio_output@@@__crt_stdio_output@@IEAA_NXZ 0000000180043c20 f i libucrt:output.obj
 0001:00042c24       ?validate_and_update_state_at_end_of_format_string@?$format_validation_base@DV?$stream_output_adapter@D@__crt_stdio_output@@@__crt_stdio_output@@IEAA_NXZ 0000000180043c24 f i libucrt:output.obj
 0001:00042c6c       ?validate_and_update_state_at_end_of_format_string@?$format_validation_base@DV?$string_output_adapter@D@__crt_stdio_output@@@__crt_stdio_output@@IEAA_NXZ 0000000180043c6c f i libucrt:output.obj
 0001:00042cb4       ?validate_and_update_state_at_end_of_format_string@?$format_validation_base@_WV?$stream_output_adapter@_W@__crt_stdio_output@@@__crt_stdio_output@@IEAA_NXZ 0000000180043cb4 f i libucrt:output.obj
 0001:00042cfc       ?validate_and_update_state_at_end_of_format_string@?$format_validation_base@_WV?$string_output_adapter@_W@__crt_stdio_output@@@__crt_stdio_output@@IEAA_NXZ 0000000180043cfc f i libucrt:output.obj
 0001:00042d44       ?validate_and_update_state_at_end_of_format_string@?$positional_parameter_base@DV?$stream_output_adapter@D@__crt_stdio_output@@@__crt_stdio_output@@IEAA_NXZ 0000000180043d44 f i libucrt:output.obj
 0001:00042dfc       ?validate_and_update_state_at_end_of_format_string@?$positional_parameter_base@DV?$string_output_adapter@D@__crt_stdio_output@@@__crt_stdio_output@@IEAA_NXZ 0000000180043dfc f i libucrt:output.obj
 0001:00042eb4       ?validate_and_update_state_at_end_of_format_string@?$positional_parameter_base@_WV?$stream_output_adapter@_W@__crt_stdio_output@@@__crt_stdio_output@@IEAA_NXZ 0000000180043eb4 f i libucrt:output.obj
 0001:00042f6c       ?validate_and_update_state_at_end_of_format_string@?$positional_parameter_base@_WV?$string_output_adapter@_W@__crt_stdio_output@@@__crt_stdio_output@@IEAA_NXZ 0000000180043f6c f i libucrt:output.obj
 0001:00043024       ?validate_and_update_state_at_end_of_format_string@?$standard_base@DV?$stream_output_adapter@D@__crt_stdio_output@@@__crt_stdio_output@@IEBA_NXZ 0000000180044024 f i libucrt:output.obj
 0001:00043028       ?validate_and_update_state_at_end_of_format_string@?$standard_base@DV?$string_output_adapter@D@__crt_stdio_output@@@__crt_stdio_output@@IEBA_NXZ 0000000180044028 f i libucrt:output.obj
 0001:0004302c       ?validate_and_update_state_at_end_of_format_string@?$standard_base@_WV?$stream_output_adapter@_W@__crt_stdio_output@@@__crt_stdio_output@@IEBA_NXZ 000000018004402c f i libucrt:output.obj
 0001:00043030       ?validate_and_update_state_at_end_of_format_string@?$standard_base@_WV?$string_output_adapter@_W@__crt_stdio_output@@@__crt_stdio_output@@IEBA_NXZ 0000000180044030 f i libucrt:output.obj
 0001:00043034       ?validate_state_for_type_case_a@?$positional_parameter_base@DV?$stream_output_adapter@D@__crt_stdio_output@@@__crt_stdio_output@@IEAA_NXZ 0000000180044034 f i libucrt:output.obj
 0001:00043118       ?validate_state_for_type_case_a@?$positional_parameter_base@DV?$string_output_adapter@D@__crt_stdio_output@@@__crt_stdio_output@@IEAA_NXZ 0000000180044118 f i libucrt:output.obj
 0001:000431fc       ?validate_state_for_type_case_a@?$positional_parameter_base@_WV?$stream_output_adapter@_W@__crt_stdio_output@@@__crt_stdio_output@@IEAA_NXZ 00000001800441fc f i libucrt:output.obj
 0001:000432e0       ?validate_state_for_type_case_a@?$positional_parameter_base@_WV?$string_output_adapter@_W@__crt_stdio_output@@@__crt_stdio_output@@IEAA_NXZ 00000001800442e0 f i libucrt:output.obj
 0001:000433c4       ?validate_state_for_type_case_a@?$standard_base@DV?$stream_output_adapter@D@__crt_stdio_output@@@__crt_stdio_output@@IEBA_NXZ 00000001800443c4 f i libucrt:output.obj
 0001:000433c8       ?validate_state_for_type_case_a@?$standard_base@DV?$string_output_adapter@D@__crt_stdio_output@@@__crt_stdio_output@@IEBA_NXZ 00000001800443c8 f i libucrt:output.obj
 0001:000433cc       ?validate_state_for_type_case_a@?$standard_base@_WV?$stream_output_adapter@_W@__crt_stdio_output@@@__crt_stdio_output@@IEBA_NXZ 00000001800443cc f i libucrt:output.obj
 0001:000433d0       ?validate_state_for_type_case_a@?$standard_base@_WV?$string_output_adapter@_W@__crt_stdio_output@@@__crt_stdio_output@@IEBA_NXZ 00000001800443d0 f i libucrt:output.obj
 0001:000433d4       ?validate_stream_is_ansi_if_required@?$__acrt_stdio_char_traits@D@@SA_NQEAU_iobuf@@@Z 00000001800443d4 f i libucrt:output.obj
 0001:00043470       ?validate_stream_is_ansi_if_required@?$__acrt_stdio_char_traits@_W@@SA_NQEAU_iobuf@@@Z 0000000180044470 f i libucrt:output.obj
 0001:00043474       ?wide_character_to_digit@__crt_strtox@@YAH_W@Z 0000000180044474 f i libucrt:output.obj
 0001:00043614       ?wide_null_string@?$output_processor@DV?$stream_output_adapter@D@__crt_stdio_output@@V?$format_validation_base@DV?$stream_output_adapter@D@__crt_stdio_output@@@2@@__crt_stdio_output@@CAPEA_WXZ 0000000180044614 f i libucrt:output.obj
 0001:0004361c       ?wide_null_string@?$output_processor@DV?$stream_output_adapter@D@__crt_stdio_output@@V?$positional_parameter_base@DV?$stream_output_adapter@D@__crt_stdio_output@@@2@@__crt_stdio_output@@CAPEA_WXZ 000000018004461c f i libucrt:output.obj
 0001:00043624       ?wide_null_string@?$output_processor@DV?$stream_output_adapter@D@__crt_stdio_output@@V?$standard_base@DV?$stream_output_adapter@D@__crt_stdio_output@@@2@@__crt_stdio_output@@CAPEA_WXZ 0000000180044624 f i libucrt:output.obj
 0001:0004362c       ?wide_null_string@?$output_processor@DV?$string_output_adapter@D@__crt_stdio_output@@V?$format_validation_base@DV?$string_output_adapter@D@__crt_stdio_output@@@2@@__crt_stdio_output@@CAPEA_WXZ 000000018004462c f i libucrt:output.obj
 0001:00043634       ?wide_null_string@?$output_processor@DV?$string_output_adapter@D@__crt_stdio_output@@V?$positional_parameter_base@DV?$string_output_adapter@D@__crt_stdio_output@@@2@@__crt_stdio_output@@CAPEA_WXZ 0000000180044634 f i libucrt:output.obj
 0001:0004363c       ?wide_null_string@?$output_processor@DV?$string_output_adapter@D@__crt_stdio_output@@V?$standard_base@DV?$string_output_adapter@D@__crt_stdio_output@@@2@@__crt_stdio_output@@CAPEA_WXZ 000000018004463c f i libucrt:output.obj
 0001:00043644       ?wide_null_string@?$output_processor@_WV?$stream_output_adapter@_W@__crt_stdio_output@@V?$format_validation_base@_WV?$stream_output_adapter@_W@__crt_stdio_output@@@2@@__crt_stdio_output@@CAPEA_WXZ 0000000180044644 f i libucrt:output.obj
 0001:0004364c       ?wide_null_string@?$output_processor@_WV?$stream_output_adapter@_W@__crt_stdio_output@@V?$positional_parameter_base@_WV?$stream_output_adapter@_W@__crt_stdio_output@@@2@@__crt_stdio_output@@CAPEA_WXZ 000000018004464c f i libucrt:output.obj
 0001:00043654       ?wide_null_string@?$output_processor@_WV?$stream_output_adapter@_W@__crt_stdio_output@@V?$standard_base@_WV?$stream_output_adapter@_W@__crt_stdio_output@@@2@@__crt_stdio_output@@CAPEA_WXZ 0000000180044654 f i libucrt:output.obj
 0001:0004365c       ?wide_null_string@?$output_processor@_WV?$string_output_adapter@_W@__crt_stdio_output@@V?$format_validation_base@_WV?$string_output_adapter@_W@__crt_stdio_output@@@2@@__crt_stdio_output@@CAPEA_WXZ 000000018004465c f i libucrt:output.obj
 0001:00043664       ?wide_null_string@?$output_processor@_WV?$string_output_adapter@_W@__crt_stdio_output@@V?$positional_parameter_base@_WV?$string_output_adapter@_W@__crt_stdio_output@@@2@@__crt_stdio_output@@CAPEA_WXZ 0000000180044664 f i libucrt:output.obj
 0001:0004366c       ?wide_null_string@?$output_processor@_WV?$string_output_adapter@_W@__crt_stdio_output@@V?$standard_base@_WV?$string_output_adapter@_W@__crt_stdio_output@@@2@@__crt_stdio_output@@CAPEA_WXZ 000000018004466c f i libucrt:output.obj
 0001:00043674       ?write_character@?$output_adapter_common@DV?$stream_output_adapter@D@__crt_stdio_output@@@__crt_stdio_output@@QEBAXDQEAHAEAV__crt_cached_ptd_host@@@Z 0000000180044674 f i libucrt:output.obj
 0001:000436c0       ?write_character@?$output_adapter_common@_WV?$stream_output_adapter@_W@__crt_stdio_output@@@__crt_stdio_output@@QEBAX_WQEAHAEAV__crt_cached_ptd_host@@@Z 00000001800446c0 f i libucrt:output.obj
 0001:00043710       ?write_character@?$string_output_adapter@D@__crt_stdio_output@@QEBA_NDQEAHAEAV__crt_cached_ptd_host@@@Z 0000000180044710 f i libucrt:output.obj
 0001:00043758       ?write_character@?$string_output_adapter@_W@__crt_stdio_output@@QEBA_N_WQEAHAEAV__crt_cached_ptd_host@@@Z 0000000180044758 f i libucrt:output.obj
 0001:000437a0       ?write_character_without_count_update@?$stream_output_adapter@D@__crt_stdio_output@@QEBA_NDAEAV__crt_cached_ptd_host@@@Z 00000001800447a0 f i libucrt:output.obj
 0001:000437e0       ?write_character_without_count_update@?$stream_output_adapter@_W@__crt_stdio_output@@QEBA_N_WAEAV__crt_cached_ptd_host@@@Z 00000001800447e0 f i libucrt:output.obj
 0001:00043824       ?write_stored_string_tchar@?$output_processor@DV?$stream_output_adapter@D@__crt_stdio_output@@V?$format_validation_base@DV?$stream_output_adapter@D@__crt_stdio_output@@@2@@__crt_stdio_output@@AEAA_ND@Z 0000000180044824 f i libucrt:output.obj
 0001:00043958       ?write_stored_string_tchar@?$output_processor@DV?$stream_output_adapter@D@__crt_stdio_output@@V?$positional_parameter_base@DV?$stream_output_adapter@D@__crt_stdio_output@@@2@@__crt_stdio_output@@AEAA_ND@Z 0000000180044958 f i libucrt:output.obj
 0001:00043a8c       ?write_stored_string_tchar@?$output_processor@DV?$stream_output_adapter@D@__crt_stdio_output@@V?$standard_base@DV?$stream_output_adapter@D@__crt_stdio_output@@@2@@__crt_stdio_output@@AEAA_ND@Z 0000000180044a8c f i libucrt:output.obj
 0001:00043bc0       ?write_stored_string_tchar@?$output_processor@DV?$string_output_adapter@D@__crt_stdio_output@@V?$format_validation_base@DV?$string_output_adapter@D@__crt_stdio_output@@@2@@__crt_stdio_output@@AEAA_ND@Z 0000000180044bc0 f i libucrt:output.obj
 0001:00043ca8       ?write_stored_string_tchar@?$output_processor@DV?$string_output_adapter@D@__crt_stdio_output@@V?$positional_parameter_base@DV?$string_output_adapter@D@__crt_stdio_output@@@2@@__crt_stdio_output@@AEAA_ND@Z 0000000180044ca8 f i libucrt:output.obj
 0001:00043d90       ?write_stored_string_tchar@?$output_processor@DV?$string_output_adapter@D@__crt_stdio_output@@V?$standard_base@DV?$string_output_adapter@D@__crt_stdio_output@@@2@@__crt_stdio_output@@AEAA_ND@Z 0000000180044d90 f i libucrt:output.obj
 0001:00043e78       ?write_stored_string_tchar@?$output_processor@_WV?$stream_output_adapter@_W@__crt_stdio_output@@V?$format_validation_base@_WV?$stream_output_adapter@_W@__crt_stdio_output@@@2@@__crt_stdio_output@@AEAA_N_W@Z 0000000180044e78 f i libucrt:output.obj
 0001:00043fac       ?write_stored_string_tchar@?$output_processor@_WV?$stream_output_adapter@_W@__crt_stdio_output@@V?$positional_parameter_base@_WV?$stream_output_adapter@_W@__crt_stdio_output@@@2@@__crt_stdio_output@@AEAA_N_W@Z 0000000180044fac f i libucrt:output.obj
 0001:000440e0       ?write_stored_string_tchar@?$output_processor@_WV?$stream_output_adapter@_W@__crt_stdio_output@@V?$standard_base@_WV?$stream_output_adapter@_W@__crt_stdio_output@@@2@@__crt_stdio_output@@AEAA_N_W@Z 00000001800450e0 f i libucrt:output.obj
 0001:00044214       ?write_stored_string_tchar@?$output_processor@_WV?$string_output_adapter@_W@__crt_stdio_output@@V?$format_validation_base@_WV?$string_output_adapter@_W@__crt_stdio_output@@@2@@__crt_stdio_output@@AEAA_N_W@Z 0000000180045214 f i libucrt:output.obj
 0001:00044328       ?write_stored_string_tchar@?$output_processor@_WV?$string_output_adapter@_W@__crt_stdio_output@@V?$positional_parameter_base@_WV?$string_output_adapter@_W@__crt_stdio_output@@@2@@__crt_stdio_output@@AEAA_N_W@Z 0000000180045328 f i libucrt:output.obj
 0001:0004443c       ?write_stored_string_tchar@?$output_processor@_WV?$string_output_adapter@_W@__crt_stdio_output@@V?$standard_base@_WV?$string_output_adapter@_W@__crt_stdio_output@@@2@@__crt_stdio_output@@AEAA_N_W@Z 000000018004543c f i libucrt:output.obj
 0001:00044550       ?write_string@?$stream_output_adapter@D@__crt_stdio_output@@QEBAXQEBDHQEAHAEAV__crt_cached_ptd_host@@@Z 0000000180045550 f i libucrt:output.obj
 0001:00044578       ?write_string@?$stream_output_adapter@_W@__crt_stdio_output@@QEBAXQEB_WHQEAHAEAV__crt_cached_ptd_host@@@Z 0000000180045578 f i libucrt:output.obj
 0001:000445a0       ?write_string@?$string_output_adapter@D@__crt_stdio_output@@QEBAXQEBDHQEAHAEAV__crt_cached_ptd_host@@@Z 00000001800455a0 f i libucrt:output.obj
 0001:00044644       ?write_string@?$string_output_adapter@_W@__crt_stdio_output@@QEBAXQEB_WHQEAHAEAV__crt_cached_ptd_host@@@Z 0000000180045644 f i libucrt:output.obj
 0001:000446ec       ?write_string_impl@?$output_adapter_common@DV?$stream_output_adapter@D@__crt_stdio_output@@@__crt_stdio_output@@IEBAXQEBDHQEAHAEAV__crt_cached_ptd_host@@@Z 00000001800456ec f i libucrt:output.obj
 0001:000447b8       ?write_string_impl@?$output_adapter_common@_WV?$stream_output_adapter@_W@__crt_stdio_output@@@__crt_stdio_output@@IEBAXQEB_WHQEAHAEAV__crt_cached_ptd_host@@@Z 00000001800457b8 f i libucrt:output.obj
 0001:00044898       __acrt_disable_global_locale_sync 0000000180045898 f i libucrt:output.obj
 0001:000448a0       __acrt_isleadbyte_l_noupdate 00000001800458a0 f i libucrt:output.obj
 0001:000448c4       __acrt_locale_get_ctype_array_value 00000001800458c4 f i libucrt:output.obj
 0001:000448dc       __ascii_iswalpha           00000001800458dc f i libucrt:output.obj
 0001:000448f8       __ascii_toupper            00000001800458f8 f i libucrt:output.obj
 0001:00044908       __ascii_towupper           0000000180045908 f i libucrt:output.obj
 0001:00044918       __stdio_common_vfprintf    0000000180045918 f   libucrt:output.obj
 0001:00044a3c       __stdio_common_vfprintf_p  0000000180045a3c f   libucrt:output.obj
 0001:00044b60       __stdio_common_vfprintf_s  0000000180045b60 f   libucrt:output.obj
 0001:00044c84       __stdio_common_vfwprintf   0000000180045c84 f   libucrt:output.obj
 0001:00044da8       __stdio_common_vfwprintf_p 0000000180045da8 f   libucrt:output.obj
 0001:00044ecc       __stdio_common_vfwprintf_s 0000000180045ecc f   libucrt:output.obj
 0001:00044ff0       __stdio_common_vsnprintf_s 0000000180045ff0 f   libucrt:output.obj
 0001:000451c8       __stdio_common_vsnwprintf_s 00000001800461c8 f   libucrt:output.obj
 0001:000453a4       __stdio_common_vsprintf    00000001800463a4 f   libucrt:output.obj
 0001:000455f8       __stdio_common_vsprintf_p  00000001800465f8 f   libucrt:output.obj
 0001:000456b0       __stdio_common_vsprintf_s  00000001800466b0 f   libucrt:output.obj
 0001:000457c4       __stdio_common_vswprintf   00000001800467c4 f   libucrt:output.obj
 0001:00045a20       __stdio_common_vswprintf_p 0000000180046a20 f   libucrt:output.obj
 0001:00045ad8       __stdio_common_vswprintf_s 0000000180046ad8 f   libucrt:output.obj
 0001:00045bec       _ctype_fast_check_internal 0000000180046bec f i libucrt:output.obj
 0001:00045c00       _isdigit_fast_internal     0000000180046c00 f i libucrt:output.obj
 0001:00045c14       _tolower_fast_internal     0000000180046c14 f i libucrt:output.obj
 0001:00045c28       wmemcpy                    0000000180046c28 f i libucrt:wmemcpy_s.obj
 0001:00045c30       wmemcpy_s                  0000000180046c30 f   libucrt:wmemcpy_s.obj
 0001:00045cac       wmemset                    0000000180046cac f i libucrt:wmemcpy_s.obj
 0001:00045cd0       free                       0000000180046cd0 f   libucrt:free.obj
 0001:00045ce4       ??0?$__crt_scoped_stack_ptr@_W@@QEAA@U?$__crt_scoped_stack_ptr_tag@_W@@@Z 0000000180046ce4 f i libucrt:wcsupr.obj
 0001:00045cec       ??0?$__crt_scoped_stack_ptr_tag@_W@@QEAA@QEA_W@Z 0000000180046cec f i libucrt:wcsupr.obj
 0001:00045cf4       ??0_LocaleUpdate@@QEAA@QEAU__crt_locale_pointers@@@Z 0000000180046cf4 f i libucrt:wcsupr.obj
 0001:00045d90       ??1?$__crt_scoped_stack_ptr@_W@@QEAA@XZ 0000000180046d90 f i libucrt:wcsupr.obj
 0001:00045db4       ??1_LocaleUpdate@@QEAA@XZ  0000000180046db4 f i libucrt:wcsupr.obj
 0001:00045dc8       ?GetLocaleT@_LocaleUpdate@@QEAAPEAU__crt_locale_pointers@@XZ 0000000180046dc8 f i libucrt:wcsupr.obj
 0001:00045fc8       ?get@?$__crt_scoped_stack_ptr@_W@@QEBAPEA_WXZ 0000000180046fc8 f i libucrt:wcsupr.obj
 0001:00045fcc       _MallocaComputeSize        0000000180046fcc f i libucrt:wcsupr.obj
 0001:00045fdc       _MarkAllocaS               0000000180046fdc f i libucrt:wcsupr.obj
 0001:00045fec       _freea_crt                 0000000180046fec f i libucrt:wcsupr.obj
 0001:0004600c       _wcsupr                    000000018004700c f   libucrt:wcsupr.obj
 0001:00046074       _wcsupr_l                  0000000180047074 f   libucrt:wcsupr.obj
 0001:00046094       _wcsupr_s                  0000000180047094 f   libucrt:wcsupr.obj
 0001:0004609c       _wcsupr_s_l                000000018004709c f   libucrt:wcsupr.obj
 0001:000460e8       malloc                     00000001800470e8 f   libucrt:malloc.obj
 0001:000460f0       realloc                    00000001800470f0 f   libucrt:realloc.obj
 0001:000460f8       ??$?B$$A6AXPEAXK0@Z@__crt_fast_encoded_nullptr_t@@QEBAP6AXPEAXK0@ZXZ 00000001800470f8 f i libucrt:exit.obj
 0001:00046168       ??$__crt_fast_decode_pointer@P6AXPEAXK0@Z@@YAP6AXPEAXK0@ZQ6AX0K0@Z@Z 0000000180047168 f i libucrt:exit.obj
 0001:00046180       ??$__crt_fast_encode_pointer@P6AXPEAXK0@Z@@YAP6AXPEAXK0@ZQ6AX0K0@Z@Z 0000000180047180 f i libucrt:exit.obj
 0001:000461a0       ??$__crt_get_proc_address@P6AXI@Z@@YAP6AXI@ZQEAUHINSTANCE__@@QEBD@Z 00000001800471a0 f i libucrt:exit.obj
 0001:000461c8       ??0?$__crt_unique_handle_t@U__crt_hmodule_traits@@@@QEAA@QEAUHINSTANCE__@@@Z 00000001800471c8 f i libucrt:exit.obj
 0001:000461d0       ??1?$__crt_unique_handle_t@U__crt_hmodule_traits@@@@QEAA@XZ 00000001800471d0 f i libucrt:exit.obj
 0001:000462d0       ?__acrt_select_exit_lock@@YA?AW4__acrt_lock_id@@XZ 00000001800472d0 f i libucrt:exit.obj
 0001:000462d8       ?__crt_fast_encode_pointer@@YA?AU__crt_fast_encoded_nullptr_t@@$$T@Z 00000001800472d8 f i libucrt:exit.obj
 0001:000462ec       ?close@?$__crt_unique_handle_t@U__crt_hmodule_traits@@@@QEAAXXZ 00000001800472ec f i libucrt:exit.obj
 0001:00046310       ?close@__crt_hmodule_traits@@SA_NPEAUHINSTANCE__@@@Z 0000000180047310 f i libucrt:exit.obj
 0001:00046420       ?get@?$__crt_unique_handle_t@U__crt_hmodule_traits@@@@QEBAPEAUHINSTANCE__@@XZ 0000000180047420 f i libucrt:exit.obj
 0001:00046424       ?get_address_of@?$__crt_unique_handle_t@U__crt_hmodule_traits@@@@QEAAPEAPEAUHINSTANCE__@@XZ 0000000180047424 f i libucrt:exit.obj
 0001:00046428       ?get_invalid_value@__crt_hmodule_traits@@SAPEAUHINSTANCE__@@XZ 0000000180047428 f i libucrt:exit.obj
 0001:00046514       _Exit                      0000000180047514 f   libucrt:exit.obj
 0001:00046520       __acrt_initialize_thread_local_exit_callback 0000000180047520 f   libucrt:exit.obj
 0001:00046528       _c_exit                    0000000180047528 f   libucrt:exit.obj
 0001:00046538       _cexit                     0000000180047538 f   libucrt:exit.obj
 0001:00046548       _exit                      0000000180047548 f   libucrt:exit.obj
 0001:00046554       _is_c_termination_complete 0000000180047554 f   libucrt:exit.obj
 0001:0004655c       _register_thread_local_exe_atexit_callback 000000018004755c f   libucrt:exit.obj
 0001:0004659c       exit                       000000018004759c f   libucrt:exit.obj
 0001:000465a8       quick_exit                 00000001800475a8 f   libucrt:exit.obj
 0001:000465b4       _set_abort_behavior        00000001800475b4 f   libucrt:abort.obj
 0001:000465d0       abort                      00000001800475d0 f   libucrt:abort.obj
 0001:00046628       __iswcsym                  0000000180047628 f i libucrt:_wctype.obj
 0001:00046654       __iswcsymf                 0000000180047654 f i libucrt:_wctype.obj
 0001:00046680       _isleadbyte_l              0000000180047680 f i libucrt:_wctype.obj
 0001:000466cc       _iswalnum_l                00000001800476cc f i libucrt:_wctype.obj
 0001:000466d8       _iswalpha_l                00000001800476d8 f i libucrt:_wctype.obj
 0001:000466e4       _iswblank_l                00000001800476e4 f i libucrt:_wctype.obj
 0001:000466fc       _iswcntrl_l                00000001800476fc f i libucrt:_wctype.obj
 0001:00046708       _iswcsym_l                 0000000180047708 f i libucrt:_wctype.obj
 0001:00046734       _iswcsymf_l                0000000180047734 f i libucrt:_wctype.obj
 0001:00046760       _iswdigit_l                0000000180047760 f i libucrt:_wctype.obj
 0001:0004676c       _iswgraph_l                000000018004776c f i libucrt:_wctype.obj
 0001:00046778       _iswlower_l                0000000180047778 f i libucrt:_wctype.obj
 0001:00046784       _iswprint_l                0000000180047784 f i libucrt:_wctype.obj
 0001:00046790       _iswpunct_l                0000000180047790 f i libucrt:_wctype.obj
 0001:0004679c       _iswspace_l                000000018004779c f i libucrt:_wctype.obj
 0001:000467a8       _iswupper_l                00000001800477a8 f i libucrt:_wctype.obj
 0001:000467b4       _iswxdigit_l               00000001800477b4 f i libucrt:_wctype.obj
 0001:000467c0       isleadbyte                 00000001800477c0 f i libucrt:_wctype.obj
 0001:00046810       iswalnum                   0000000180047810 f i libucrt:_wctype.obj
 0001:0004681c       iswalpha                   000000018004781c f i libucrt:_wctype.obj
 0001:00046828       iswascii                   0000000180047828 f i libucrt:_wctype.obj
 0001:00046838       iswblank                   0000000180047838 f i libucrt:_wctype.obj
 0001:00046850       iswcntrl                   0000000180047850 f i libucrt:_wctype.obj
 0001:0004685c       iswdigit                   000000018004785c f i libucrt:_wctype.obj
 0001:00046868       iswgraph                   0000000180047868 f i libucrt:_wctype.obj
 0001:00046874       iswlower                   0000000180047874 f i libucrt:_wctype.obj
 0001:00046880       iswprint                   0000000180047880 f i libucrt:_wctype.obj
 0001:0004688c       iswpunct                   000000018004788c f i libucrt:_wctype.obj
 0001:00046898       iswspace                   0000000180047898 f i libucrt:_wctype.obj
 0001:000468a4       iswupper                   00000001800478a4 f i libucrt:_wctype.obj
 0001:000468b0       iswxdigit                  00000001800478b0 f i libucrt:_wctype.obj
 0001:000468bc       wcscmp                     00000001800478bc f   libucrt:wcscmp.obj
 0001:000468f4       __ascii_tolower            00000001800478f4 f i libucrt:wcsicmp.obj
 0001:00046904       __ascii_towlower           0000000180047904 f i libucrt:wcsicmp.obj
 0001:00046914       __ascii_wcsicmp            0000000180047914 f   libucrt:wcsicmp.obj
 0001:00046954       _towlower_fast_internal    0000000180047954 f i libucrt:wcsicmp.obj
 0001:0004697c       _towlower_internal         000000018004797c f i libucrt:wcsicmp.obj
 0001:000469b0       _wcsicmp                   00000001800479b0 f   libucrt:wcsicmp.obj
 0001:000469f8       _wcsicmp_l                 00000001800479f8 f   libucrt:wcsicmp.obj
 0001:00046b2c       ??B?$__crt_scoped_stack_ptr@_W@@QEBA_NXZ 0000000180047b2c f i libucrt:wcslwr.obj
 0001:00046d2c       _wcslwr                    0000000180047d2c f   libucrt:wcslwr.obj
 0001:00046d94       _wcslwr_l                  0000000180047d94 f   libucrt:wcslwr.obj
 0001:00046db4       _wcslwr_s                  0000000180047db4 f   libucrt:wcslwr.obj
 0001:00046dbc       _wcslwr_s_l                0000000180047dbc f   libucrt:wcslwr.obj
 0001:00046e08       ??$?RPEAU__crt_stdio_stream_data@@@__crt_internal_free_policy@@QEBAXQEBQEAU__crt_stdio_stream_data@@@Z 0000000180047e08 f i libucrt:_file.obj
 0001:00046e10       ??0?$__crt_unique_heap_ptr@PEAU__crt_stdio_stream_data@@U__crt_internal_free_policy@@@@QEAA@QEAPEAU__crt_stdio_stream_data@@@Z 0000000180047e10 f i libucrt:_file.obj
 0001:00046e18       ??1?$__crt_unique_heap_ptr@PEAU__crt_stdio_stream_data@@U__crt_internal_free_policy@@@@QEAA@XZ 0000000180047e18 f i libucrt:_file.obj
 0001:00046e34       ?detach@?$__crt_unique_heap_ptr@PEAU__crt_stdio_stream_data@@U__crt_internal_free_policy@@@@QEAAPEAPEAU__crt_stdio_stream_data@@XZ 0000000180047e34 f i libucrt:_file.obj
 0001:00046e3c       ?release@?$__crt_unique_heap_ptr@PEAU__crt_stdio_stream_data@@U__crt_internal_free_policy@@@@QEAAXXZ 0000000180047e3c f i libucrt:_file.obj
 0001:00046e58       __acrt_initialize_stdio    0000000180047e58 f   libucrt:_file.obj
 0001:00046f78       __acrt_iob_func            0000000180047f78 f   libucrt:_file.obj
 0001:00046f8c       __acrt_uninitialize_stdio  0000000180047f8c f   libucrt:_file.obj
 0001:00046fe8       _get_stream_buffer_pointers 0000000180047fe8 f   libucrt:_file.obj
 0001:00047030       _lock_file                 0000000180048030 f   libucrt:_file.obj
 0001:0004703c       _unlock_file               000000018004803c f   libucrt:_file.obj
 0001:000471f8       fputws                     00000001800481f8 f   libucrt:fputws.obj
 0001:00047528       ??$open_file@AEBQEBDAEBQEBDAEBHPEAU_iobuf@@@?$__crt_char_traits@D@@SAPEAU_iobuf@@AEBQEBD0AEBH$$QEAPEAU1@@Z 0000000180048528 f i libucrt:fopen.obj
 0001:0004753c       ??$open_file@AEBQEB_WAEBQEB_WAEBHPEAU_iobuf@@@?$__crt_char_traits@_W@@SAPEAU_iobuf@@AEBQEB_W0AEBH$$QEAPEAU1@@Z 000000018004853c f i libucrt:fopen.obj
 0001:00047550       ?unlock@__crt_stdio_stream@@QEBAXXZ 0000000180048550 f i libucrt:fopen.obj
 0001:00047558       _fsopen                    0000000180048558 f   libucrt:fopen.obj
 0001:00047560       _wfopen                    0000000180048560 f   libucrt:fopen.obj
 0001:0004756c       _wfopen_s                  000000018004856c f   libucrt:fopen.obj
 0001:000475c4       _wfsopen                   00000001800485c4 f   libucrt:fopen.obj
 0001:000475cc       fopen                      00000001800485cc f   libucrt:fopen.obj
 0001:000475d8       fopen_s                    00000001800485d8 f   libucrt:fopen.obj
 0001:00047630       ??$?R_W@__crt_internal_free_policy@@QEBAXQEB_W@Z 0000000180048630 f i libucrt:wcsftime.obj
 0001:00047638       ??$__crt_time_is_leap_year@H@@YA_NH@Z 0000000180048638 f i libucrt:wcsftime.obj
 0001:00047694       ??0?$__crt_unique_heap_ptr@_WU__crt_internal_free_policy@@@@QEAA@QEA_W@Z 0000000180048694 f i libucrt:wcsftime.obj
 0001:0004769c       ??1?$__crt_unique_heap_ptr@_WU__crt_internal_free_policy@@@@QEAA@XZ 000000018004869c f i libucrt:wcsftime.obj
 0001:000476b8       ?__crt_get_2digit_year@@YAHH@Z 00000001800486b8 f i libucrt:wcsftime.obj
 0001:000476dc       ?__crt_get_century@@YAHH@Z 00000001800486dc f i libucrt:wcsftime.obj
 0001:000478b0       ?detach@?$__crt_unique_heap_ptr@_WU__crt_internal_free_policy@@@@QEAAPEA_WXZ 00000001800488b0 f i libucrt:wcsftime.obj
 0001:000487a4       ?get@?$__crt_unique_heap_ptr@_WU__crt_internal_free_policy@@@@QEBAPEA_WXZ 00000001800497a4 f i libucrt:wcsftime.obj
 0001:000487a8       ?release@?$__crt_unique_heap_ptr@_WU__crt_internal_free_policy@@@@QEAAXXZ 00000001800497a8 f i libucrt:wcsftime.obj
 0001:00048ef8       _W_Getdays                 0000000180049ef8 f   libucrt:wcsftime.obj
 0001:00049084       _W_Getmonths               000000018004a084 f   libucrt:wcsftime.obj
 0001:00049210       _W_Gettnames               000000018004a210 f   libucrt:wcsftime.obj
 0001:000498bc       _Wcsftime                  000000018004a8bc f   libucrt:wcsftime.obj
 0001:000498dc       _Wcsftime_l                000000018004a8dc f   libucrt:wcsftime.obj
 0001:00049a68       _invoke_watson_if_error    000000018004aa68 f i libucrt:wcsftime.obj
 0001:00049a9c       _wcsftime_l                000000018004aa9c f   libucrt:wcsftime.obj
 0001:00049abc       wcsftime                   000000018004aabc f   libucrt:wcsftime.obj
 0001:00049bfc       ?is_in_use@__crt_stdio_stream@@QEBA_NXZ 000000018004abfc f i libucrt:fclose.obj
 0001:00049c0c       _fclose_nolock             000000018004ac0c f   libucrt:fclose.obj
 0001:00049ca4       fclose                     000000018004aca4 f   libucrt:fclose.obj
 0001:00049fac       fputs                      000000018004afac f   libucrt:fputs.obj
 0001:0004a154       ??$?RU__acrt_thread_parameter@@@__crt_internal_free_policy@@QEBAXQEBU__acrt_thread_parameter@@@Z 000000018004b154 f i libucrt:thread.obj
 0001:0004a23c       ??0?$__crt_unique_heap_ptr@U__acrt_thread_parameter@@U__crt_internal_free_policy@@@@QEAA@QEAU__acrt_thread_parameter@@@Z 000000018004b23c f i libucrt:thread.obj
 0001:0004a24c       ??1?$__crt_unique_heap_ptr@U__acrt_thread_parameter@@U__crt_internal_free_policy@@@@QEAA@XZ 000000018004b24c f i libucrt:thread.obj
 0001:0004a3c0       ?detach@?$__crt_unique_heap_ptr@U__acrt_thread_parameter@@U__crt_internal_free_policy@@@@QEAAPEAU__acrt_thread_parameter@@XZ 000000018004b3c0 f i libucrt:thread.obj
 0001:0004a3dc       ?release@?$__crt_unique_heap_ptr@U__acrt_thread_parameter@@U__crt_internal_free_policy@@@@QEAAXXZ 000000018004b3dc f i libucrt:thread.obj
 0001:0004a444       _beginthread               000000018004b444 f   libucrt:thread.obj
 0001:0004a50c       _beginthreadex             000000018004b50c f   libucrt:thread.obj
 0001:0004a5e8       _endthread                 000000018004b5e8 f   libucrt:thread.obj
 0001:0004a5f4       _endthreadex               000000018004b5f4 f   libucrt:thread.obj
 0001:0004a600       ??$?B$$A6AXH@Z@__crt_fast_encoded_nullptr_t@@QEBAP6AXH@ZXZ 000000018004b600 f i libucrt:signal.obj
 0001:0004a678       ??$__crt_fast_decode_pointer@P6AXH@Z@@YAP6AXH@ZQ6AXH@Z@Z 000000018004b678 f i libucrt:signal.obj
 0001:0004a690       ??$__crt_fast_encode_pointer@P6AXH@Z@@YAP6AXH@ZQ6AXH@Z@Z 000000018004b690 f i libucrt:signal.obj
 0001:0004a7c4       ?initialize@?$dual_state_global@P6AXH@Z@__crt_state_management@@QEAAXQ6AXH@Z@Z 000000018004b7c4 f i libucrt:signal.obj
 0001:0004a854       ?value@?$dual_state_global@P6AXH@Z@__crt_state_management@@QEAAAEAP6AXH@ZXZ 000000018004b854 f i libucrt:signal.obj
 0001:0004a858       __acrt_get_sigabrt_handler 000000018004b858 f   libucrt:signal.obj
 0001:0004a888       __acrt_initialize_signal_handlers 000000018004b888 f   libucrt:signal.obj
 0001:0004a8a8       __fpecode                  000000018004b8a8 f   libucrt:signal.obj
 0001:0004a8bc       __pxcptinfoptrs            000000018004b8bc f   libucrt:signal.obj
 0001:0004a8d0       raise                      000000018004b8d0 f   libucrt:signal.obj
 0001:0004ab4c       signal                     000000018004bb4c f   libucrt:signal.obj
 0001:0004b360       ??$gmtime_s@AEBQEAUtm@@AEBQEBJ@?$__crt_integer_traits@J@@SAHAEBQEAUtm@@AEBQEBJ@Z 000000018004c360 f i libucrt:localtime.obj
 0001:0004b36c       ??$gmtime_s@AEBQEAUtm@@AEBQEB_J@?$__crt_integer_traits@_J@@SAHAEBQEAUtm@@AEBQEB_J@Z 000000018004c36c f i libucrt:localtime.obj
 0001:0004b378       ??$gmtime_s@AEBQEAUtm@@PEAJ@?$__crt_integer_traits@J@@SAHAEBQEAUtm@@$$QEAPEAJ@Z 000000018004c378 f i libucrt:localtime.obj
 0001:0004b384       ??$gmtime_s@AEBQEAUtm@@PEA_J@?$__crt_integer_traits@_J@@SAHAEBQEAUtm@@$$QEAPEA_J@Z 000000018004c384 f i libucrt:localtime.obj
 0001:0004b390       ??$localtime_s@AEBQEAUtm@@AEBQEBJ@?$__crt_integer_traits@J@@SAHAEBQEAUtm@@AEBQEBJ@Z 000000018004c390 f i libucrt:localtime.obj
 0001:0004b39c       ??$localtime_s@AEBQEAUtm@@AEBQEB_J@?$__crt_integer_traits@_J@@SAHAEBQEAUtm@@AEBQEB_J@Z 000000018004c39c f i libucrt:localtime.obj
 0001:0004b3a8       _localtime32               000000018004c3a8 f   libucrt:localtime.obj
 0001:0004b3f0       _localtime32_s             000000018004c3f0 f   libucrt:localtime.obj
 0001:0004b3f8       _localtime64               000000018004c3f8 f   libucrt:localtime.obj
 0001:0004b440       _localtime64_s             000000018004c440 f   libucrt:localtime.obj
 0001:0004b788       _time32                    000000018004c788 f   libucrt:time.obj
 0001:0004b800       _time64                    000000018004c800 f   libucrt:time.obj
 0001:0004b874       _timespec32_get            000000018004c874 f   libucrt:time.obj
 0001:0004b90c       _timespec64_get            000000018004c90c f   libucrt:time.obj
 0001:0004b9bc       _get_terminate             000000018004c9bc f   libucrt:terminate.obj
 0001:0004b9e0       set_terminate              000000018004c9e0 f   libucrt:terminate.obj
 0001:0004ba0c       terminate                  000000018004ca0c f   libucrt:terminate.obj
 0001:0004ba38       _recalloc                  000000018004ca38 f   libucrt:recalloc.obj
 0001:0004ba40       _recalloc_base             000000018004ca40 f   libucrt:recalloc.obj
 0001:0004baf0       strlen                     000000018004caf0 f   libucrt:strlen.obj
 0001:0004bb98       ??$?B$$A6AH_K@Z@__crt_fast_encoded_nullptr_t@@QEBAP6AH_K@ZXZ 000000018004cb98 f i libucrt:new_handler.obj
 0001:0004bba0       ??$__crt_fast_decode_pointer@P6AH_K@Z@@YAP6AH_K@ZQ6AH0@Z@Z 000000018004cba0 f i libucrt:new_handler.obj
 0001:0004bbb8       ??$__crt_fast_encode_pointer@P6AH_K@Z@@YAP6AH_K@ZQ6AH0@Z@Z 000000018004cbb8 f i libucrt:new_handler.obj
 0001:0004bbd8       ?_set_new_handler@@YAP6AH_K@ZH@Z 000000018004cbd8 f   libucrt:new_handler.obj
 0001:0004bbe4       ?initialize@?$dual_state_global@P6AH_K@Z@__crt_state_management@@QEAAXQ6AH_K@Z@Z 000000018004cbe4 f i libucrt:new_handler.obj
 0001:0004bbf4       ?value@?$dual_state_global@P6AH_K@Z@__crt_state_management@@QEAAAEAP6AH_K@ZXZ 000000018004cbf4 f i libucrt:new_handler.obj
 0001:0004bbf8       __acrt_initialize_new_handler 000000018004cbf8 f   libucrt:new_handler.obj
 0001:0004bc00       _callnewh                  000000018004cc00 f   libucrt:new_handler.obj
 0001:0004bc40       _query_new_handler         000000018004cc40 f   libucrt:new_handler.obj
 0001:0004bc78       _set_new_handler           000000018004cc78 f   libucrt:new_handler.obj
 0001:0004bcf4       _seh_filter_dll            000000018004ccf4 f   libucrt:exception_filter.obj
 0001:0004bd08       _seh_filter_exe            000000018004cd08 f   libucrt:exception_filter.obj
 0001:0004be8c       ??$?RE@__crt_internal_free_policy@@QEBAXQEBE@Z 000000018004ce8c f i libucrt:argv_parsing.obj
 0001:0004be94       ??$?RPEAD@__crt_internal_free_policy@@QEBAXQEBQEAD@Z 000000018004ce94 f i libucrt:argv_parsing.obj
 0001:0004be9c       ??$?RPEA_W@__crt_internal_free_policy@@QEBAXQEBQEA_W@Z 000000018004ce9c f i libucrt:argv_parsing.obj
 0001:0004c198       ??$get_module_file_name@$$TAEAY0BAF@DH@?$__crt_char_traits@D@@SAK$$QEA$$TAEAY0BAF@D$$QEAH@Z 000000018004d198 f i libucrt:argv_parsing.obj
 0001:0004c1a4       ??$get_module_file_name@$$TAEAY0BAF@_WH@?$__crt_char_traits@_W@@SAK$$QEA$$TAEAY0BAF@_W$$QEAH@Z 000000018004d1a4 f i libucrt:argv_parsing.obj
 0001:0004c520       ??$set_program_name@PEAD@?$__crt_char_traits@D@@SAX$$QEAPEAD@Z 000000018004d520 f i libucrt:argv_parsing.obj
 0001:0004c52c       ??$set_program_name@PEA_W@?$__crt_char_traits@_W@@SAX$$QEAPEA_W@Z 000000018004d52c f i libucrt:argv_parsing.obj
 0001:0004c548       ??0?$__crt_unique_heap_ptr@EU__crt_internal_free_policy@@@@QEAA@QEAE@Z 000000018004d548 f i libucrt:argv_parsing.obj
 0001:0004c550       ??0?$__crt_unique_heap_ptr@PEADU__crt_internal_free_policy@@@@QEAA@QEAPEAD@Z 000000018004d550 f i libucrt:argv_parsing.obj
 0001:0004c558       ??0?$__crt_unique_heap_ptr@PEA_WU__crt_internal_free_policy@@@@QEAA@QEAPEA_W@Z 000000018004d558 f i libucrt:argv_parsing.obj
 0001:0004c560       ??1?$__crt_unique_heap_ptr@EU__crt_internal_free_policy@@@@QEAA@XZ 000000018004d560 f i libucrt:argv_parsing.obj
 0001:0004c57c       ??1?$__crt_unique_heap_ptr@PEADU__crt_internal_free_policy@@@@QEAA@XZ 000000018004d57c f i libucrt:argv_parsing.obj
 0001:0004c598       ??1?$__crt_unique_heap_ptr@PEA_WU__crt_internal_free_policy@@@@QEAA@XZ 000000018004d598 f i libucrt:argv_parsing.obj
 0001:0004c5b4       ??B?$__crt_unique_heap_ptr@EU__crt_internal_free_policy@@@@QEBA_NXZ 000000018004d5b4 f i libucrt:argv_parsing.obj
 0001:0004c5f4       ?detach@?$__crt_unique_heap_ptr@EU__crt_internal_free_policy@@@@QEAAPEAEXZ 000000018004d5f4 f i libucrt:argv_parsing.obj
 0001:0004c5fc       ?detach@?$__crt_unique_heap_ptr@PEADU__crt_internal_free_policy@@@@QEAAPEAPEADXZ 000000018004d5fc f i libucrt:argv_parsing.obj
 0001:0004c604       ?detach@?$__crt_unique_heap_ptr@PEA_WU__crt_internal_free_policy@@@@QEAAPEAPEA_WXZ 000000018004d604 f i libucrt:argv_parsing.obj
 0001:0004c628       ?get@?$__crt_unique_heap_ptr@EU__crt_internal_free_policy@@@@QEBAPEAEXZ 000000018004d628 f i libucrt:argv_parsing.obj
 0001:0004c62c       ?get@?$__crt_unique_heap_ptr@PEADU__crt_internal_free_policy@@@@QEBAPEAPEADXZ 000000018004d62c f i libucrt:argv_parsing.obj
 0001:0004c630       ?get@?$__crt_unique_heap_ptr@PEA_WU__crt_internal_free_policy@@@@QEBAPEAPEA_WXZ 000000018004d630 f i libucrt:argv_parsing.obj
 0001:0004c634       ?get_address_of@?$__crt_unique_heap_ptr@PEADU__crt_internal_free_policy@@@@QEAAPEAPEAPEADXZ 000000018004d634 f i libucrt:argv_parsing.obj
 0001:0004c638       ?get_address_of@?$__crt_unique_heap_ptr@PEA_WU__crt_internal_free_policy@@@@QEAAPEAPEAPEA_WXZ 000000018004d638 f i libucrt:argv_parsing.obj
 0001:0004c65c       ?is_valid@?$__crt_unique_heap_ptr@EU__crt_internal_free_policy@@@@QEBA_NXZ 000000018004d65c f i libucrt:argv_parsing.obj
 0001:0004c664       ?release@?$__crt_unique_heap_ptr@EU__crt_internal_free_policy@@@@QEAAXXZ 000000018004d664 f i libucrt:argv_parsing.obj
 0001:0004c680       ?release@?$__crt_unique_heap_ptr@PEADU__crt_internal_free_policy@@@@QEAAXXZ 000000018004d680 f i libucrt:argv_parsing.obj
 0001:0004c69c       ?release@?$__crt_unique_heap_ptr@PEA_WU__crt_internal_free_policy@@@@QEAAXXZ 000000018004d69c f i libucrt:argv_parsing.obj
 0001:0004c6d4       __acrt_allocate_buffer_for_argv 000000018004d6d4 f   libucrt:argv_parsing.obj
 0001:0004c734       _configure_narrow_argv     000000018004d734 f   libucrt:argv_parsing.obj
 0001:0004c8bc       _configure_wide_argv       000000018004d8bc f   libucrt:argv_parsing.obj
 0001:0004ca40       _set_pgmptr                000000018004da40 f i libucrt:argv_parsing.obj
 0001:0004ca48       _set_wpgmptr               000000018004da48 f i libucrt:argv_parsing.obj
 0001:0004cf70       ??$get_environment_from_os@$$V@?$__crt_char_traits@D@@SAPEADXZ 000000018004df70 f i libucrt:environment_initialization.obj
 0001:0004cf78       ??$get_environment_from_os@$$V@?$__crt_char_traits@_W@@SAPEA_WXZ 000000018004df78 f i libucrt:environment_initialization.obj
 0001:0004d11c       ??$set_variable_in_environment_nolock@PEADH@?$__crt_char_traits@D@@SAH$$QEAPEAD$$QEAH@Z 000000018004e11c f i libucrt:environment_initialization.obj
 0001:0004d128       ??$set_variable_in_environment_nolock@PEA_WH@?$__crt_char_traits@_W@@SAH$$QEAPEA_W$$QEAH@Z 000000018004e128 f i libucrt:environment_initialization.obj
 0001:0004d134       ??$tcscpy_s@PEADAEB_KAEAPEAD@?$__crt_char_traits@D@@SAH$$QEAPEADAEB_KAEAPEAD@Z 000000018004e134 f i libucrt:environment_initialization.obj
 0001:0004d144       ??$tcscpy_s@PEA_WAEB_KAEAPEA_W@?$__crt_char_traits@_W@@SAH$$QEAPEA_WAEB_KAEAPEA_W@Z 000000018004e144 f i libucrt:environment_initialization.obj
 0001:0004d154       ??$tcslen@AEAPEAD@?$__crt_char_traits@D@@SA_KAEAPEAD@Z 000000018004e154 f i libucrt:environment_initialization.obj
 0001:0004d168       ??$tcslen@AEAPEA_W@?$__crt_char_traits@_W@@SA_KAEAPEA_W@Z 000000018004e168 f i libucrt:environment_initialization.obj
 0001:0004d17c       ??$uninitialize@A6AXAEAPEAPEAD@_E@?$dual_state_global@PEAPEAD@__crt_state_management@@QEAAXA6AXAEAPEAPEAD@_E@Z 000000018004e17c f i libucrt:environment_initialization.obj
 0001:0004d1d4       ??$uninitialize@A6AXAEAPEAPEA_W@_E@?$dual_state_global@PEAPEA_W@__crt_state_management@@QEAAXA6AXAEAPEAPEA_W@_E@Z 000000018004e1d4 f i libucrt:environment_initialization.obj
 0001:0004d264       ??B?$__crt_unique_heap_ptr@PEADU__crt_internal_free_policy@@@@QEBA_NXZ 000000018004e264 f i libucrt:environment_initialization.obj
 0001:0004d26c       ??B?$__crt_unique_heap_ptr@PEA_WU__crt_internal_free_policy@@@@QEBA_NXZ 000000018004e26c f i libucrt:environment_initialization.obj
 0001:0004d274       ??B?$__crt_unique_heap_ptr@_WU__crt_internal_free_policy@@@@QEBA_NXZ 000000018004e274 f i libucrt:environment_initialization.obj
 0001:0004d27c       ?__crt_compute_required_transform_buffer_count@@YA_KIQEBD@Z 000000018004e27c f i libucrt:environment_initialization.obj
 0001:0004d2a0       ?__crt_compute_required_transform_buffer_count@@YA_KIQEB_W@Z 000000018004e2a0 f i libucrt:environment_initialization.obj
 0001:0004d2d0       ?__crt_transform_string@@YA_KIQEBDQEA_W_K@Z 000000018004e2d0 f i libucrt:environment_initialization.obj
 0001:0004d2f4       ?__crt_transform_string@@YA_KIQEB_WQEAD_K@Z 000000018004e2f4 f i libucrt:environment_initialization.obj
 0001:0004d324       ?detach@?$__crt_unique_heap_ptr@DU__crt_internal_free_policy@@@@QEAAPEADXZ 000000018004e324 f i libucrt:environment_initialization.obj
 0001:0004d35c       ?initialize@?$dual_state_global@PEAPEAD@__crt_state_management@@QEAAXQEAPEAD@Z 000000018004e35c f i libucrt:environment_initialization.obj
 0001:0004d36c       ?initialize@?$dual_state_global@PEAPEA_W@__crt_state_management@@QEAAXQEAPEA_W@Z 000000018004e36c f i libucrt:environment_initialization.obj
 0001:0004d37c       ?is_valid@?$__crt_unique_heap_ptr@PEADU__crt_internal_free_policy@@@@QEBA_NXZ 000000018004e37c f i libucrt:environment_initialization.obj
 0001:0004d384       ?is_valid@?$__crt_unique_heap_ptr@PEA_WU__crt_internal_free_policy@@@@QEBA_NXZ 000000018004e384 f i libucrt:environment_initialization.obj
 0001:0004d38c       ?is_valid@?$__crt_unique_heap_ptr@_WU__crt_internal_free_policy@@@@QEBA_NXZ 000000018004e38c f i libucrt:environment_initialization.obj
 0001:0004d3a0       ?value@?$dual_state_global@PEAPEAD@__crt_state_management@@QEAAAEAPEAPEADXZ 000000018004e3a0 f i libucrt:environment_initialization.obj
 0001:0004d3a4       ?value@?$dual_state_global@PEAPEA_W@__crt_state_management@@QEAAAEAPEAPEA_WXZ 000000018004e3a4 f i libucrt:environment_initialization.obj
 0001:0004d3a8       __dcrt_get_or_create_narrow_environment_nolock 000000018004e3a8 f   libucrt:environment_initialization.obj
 0001:0004d3e4       __dcrt_get_or_create_wide_environment_nolock 000000018004e3e4 f   libucrt:environment_initialization.obj
 0001:0004d420       __dcrt_uninitialize_environments_nolock 000000018004e420 f   libucrt:environment_initialization.obj
 0001:0004d464       __p__environ               000000018004e464 f   libucrt:environment_initialization.obj
 0001:0004d46c       __p__wenviron              000000018004e46c f   libucrt:environment_initialization.obj
 0001:0004d474       _get_initial_narrow_environment 000000018004e474 f   libucrt:environment_initialization.obj
 0001:0004d4c4       _get_initial_wide_environment 000000018004e4c4 f   libucrt:environment_initialization.obj
 0001:0004d514       _initialize_narrow_environment 000000018004e514 f   libucrt:environment_initialization.obj
 0001:0004d51c       _initialize_wide_environment 000000018004e51c f   libucrt:environment_initialization.obj
 0001:0004d524       ??$?B$$A6AXXZ@__crt_fast_encoded_nullptr_t@@QEBAP6AXXZXZ 000000018004e524 f i libucrt:onexit.obj
 0001:0004d52c       ??$?BP6AXXZ@__crt_fast_encoded_nullptr_t@@QEBAPEAP6AXXZXZ 000000018004e52c f i libucrt:onexit.obj
 0001:0004d534       ??$?RP6AXXZ@__crt_internal_free_policy@@QEBAXQEBQ6AXXZ@Z 000000018004e534 f i libucrt:onexit.obj
 0001:0004d60c       ??$__crt_fast_decode_pointer@P6AXXZ@@YAP6AXXZQ6AXXZ@Z 000000018004e60c f i libucrt:onexit.obj
 0001:0004d624       ??$__crt_fast_decode_pointer@PEAP6AXXZ@@YAPEAP6AXXZQEAP6AXXZ@Z 000000018004e624 f i libucrt:onexit.obj
 0001:0004d63c       ??$__crt_fast_encode_pointer@P6AHXZ@@YAP6AHXZQ6AHXZ@Z 000000018004e63c f i libucrt:onexit.obj
 0001:0004d65c       ??$__crt_fast_encode_pointer@P6AXXZ@@YAP6AXXZQ6AXXZ@Z 000000018004e65c f i libucrt:onexit.obj
 0001:0004d67c       ??$__crt_fast_encode_pointer@PEAP6AXXZ@@YAPEAP6AXXZQEAP6AXXZ@Z 000000018004e67c f i libucrt:onexit.obj
 0001:0004d6d0       ??0?$__crt_unique_heap_ptr@P6AXXZU__crt_internal_free_policy@@@@QEAA@QEAP6AXXZ@Z 000000018004e6d0 f i libucrt:onexit.obj
 0001:0004d6d8       ??1?$__crt_unique_heap_ptr@P6AXXZU__crt_internal_free_policy@@@@QEAA@XZ 000000018004e6d8 f i libucrt:onexit.obj
 0001:0004d6f4       ??1scoped_global_state_reset@__crt_state_management@@QEAA@XZ 000000018004e6f4 f i libucrt:onexit.obj
 0001:0004d9e8       ?detach@?$__crt_unique_heap_ptr@P6AXXZU__crt_internal_free_policy@@@@QEAAPEAP6AXXZXZ 000000018004e9e8 f i libucrt:onexit.obj
 0001:0004d9f0       ?release@?$__crt_unique_heap_ptr@P6AXXZU__crt_internal_free_policy@@@@QEAAXXZ 000000018004e9f0 f i libucrt:onexit.obj
 0001:0004da0c       _crt_at_quick_exit         000000018004ea0c f   libucrt:onexit.obj
 0001:0004da1c       _crt_atexit                000000018004ea1c f   libucrt:onexit.obj
 0001:0004da2c       _execute_onexit_table      000000018004ea2c f   libucrt:onexit.obj
 0001:0004da70       _initialize_onexit_table   000000018004ea70 f   libucrt:onexit.obj
 0001:0004da98       _register_onexit_function  000000018004ea98 f   libucrt:onexit.obj
 0001:0004dc20       ??$?BX@__crt_fast_encoded_nullptr_t@@QEBAPEAXXZ 000000018004ec20 f i libucrt:initialization.obj
 0001:0004dc28       ??$__crt_fast_encode_pointer@PEAX@@YAPEAXQEAX@Z 000000018004ec28 f i libucrt:initialization.obj
 0001:0004dce4       ?__acrt_stdio_is_initialized@@YA_NXZ 000000018004ece4 f i libucrt:initialization.obj
 0001:0004dcf0       ?initialize@?$dual_state_global@PEAU__crt_locale_data@@@__crt_state_management@@QEAAXQEAU__crt_locale_data@@@Z 000000018004ecf0 f i libucrt:initialization.obj
 0001:0004dd00       __acrt_initialize          000000018004ed00 f   libucrt:initialization.obj
 0001:0004dd14       __acrt_thread_attach       000000018004ed14 f   libucrt:initialization.obj
 0001:0004dd28       __acrt_thread_detach       000000018004ed28 f   libucrt:initialization.obj
 0001:0004dd38       __acrt_uninitialize        000000018004ed38 f   libucrt:initialization.obj
 0001:0004dd70       __acrt_uninitialize_critical 000000018004ed70 f   libucrt:initialization.obj
 0001:0004dd80       _initterm                  000000018004ed80 f   libucrt:initterm.obj
 0001:0004ddc4       _initterm_e                000000018004edc4 f   libucrt:initterm.obj
 0001:0004de70       strcpy_s                   000000018004ee70 f   libucrt:strcpy_s.obj
 0001:0004ded0       calloc                     000000018004eed0 f   libucrt:calloc.obj
 0001:0004ded8       ??$is_overflow_condition@_K@__crt_strtox@@YA_NI_K@Z 000000018004eed8 f i libucrt:atox.obj
 0001:0004df10       ??$make_c_string_character_source@D$$T@__crt_strtox@@YA?AV?$c_string_character_source@D@0@QEBD$$T@Z 000000018004ef10 f i libucrt:atox.obj
 0001:0004df24       ??$make_c_string_character_source@_W$$T@__crt_strtox@@YA?AV?$c_string_character_source@_W@0@QEB_W$$T@Z 000000018004ef24 f i libucrt:atox.obj
 0001:0004df38       ??$parse_integer@KV?$c_string_character_source@D@__crt_strtox@@$00@__crt_strtox@@YAKAEAV__crt_cached_ptd_host@@V?$c_string_character_source@D@0@H_N@Z 000000018004ef38 f i libucrt:atox.obj
 0001:0004e228       ??$parse_integer@KV?$c_string_character_source@_W@__crt_strtox@@$00@__crt_strtox@@YAKAEAV__crt_cached_ptd_host@@V?$c_string_character_source@_W@0@H_N@Z 000000018004f228 f i libucrt:atox.obj
 0001:0004e9c4       ??$parse_integer@_KV?$c_string_character_source@D@__crt_strtox@@$00@__crt_strtox@@YA_KAEAV__crt_cached_ptd_host@@V?$c_string_character_source@D@0@H_N@Z 000000018004f9c4 f i libucrt:atox.obj
 0001:0004eca0       ??$parse_integer@_KV?$c_string_character_source@_W@__crt_strtox@@$00@__crt_strtox@@YA_KAEAV__crt_cached_ptd_host@@V?$c_string_character_source@_W@0@H_N@Z 000000018004fca0 f i libucrt:atox.obj
 0001:0004f424       ??$parse_integer_from_string@JD$$T@__crt_strtox@@YAJQEBD$$THQEAU__crt_locale_pointers@@@Z 0000000180050424 f i libucrt:atox.obj
 0001:0004f4e0       ??$parse_integer_from_string@J_W$$T@__crt_strtox@@YAJQEB_W$$THQEAU__crt_locale_pointers@@@Z 00000001800504e0 f i libucrt:atox.obj
 0001:0004f59c       ??$parse_integer_from_string@_JD$$T@__crt_strtox@@YA_JQEBD$$THQEAU__crt_locale_pointers@@@Z 000000018005059c f i libucrt:atox.obj
 0001:0004f65c       ??$parse_integer_from_string@_J_W$$T@__crt_strtox@@YA_JQEB_W$$THQEAU__crt_locale_pointers@@@Z 000000018005065c f i libucrt:atox.obj
 0001:0004f71c       ?is_space@__crt_strtox@@YA_NDQEAU__crt_locale_pointers@@@Z 000000018005071c f i libucrt:atox.obj
 0001:0004f73c       ?is_space@__crt_strtox@@YA_N_WPEAU__crt_locale_pointers@@@Z 000000018005073c f i libucrt:atox.obj
 0001:0004f754       ?maximum_signed_value@__crt_strtox@@YA_J_K@Z 0000000180050754 f i libucrt:atox.obj
 0001:0004f760       ?minimum_signed_value@__crt_strtox@@YA_J_K@Z 0000000180050760 f i libucrt:atox.obj
 0001:0004f76c       __acrt_get_locale_data_prefix 000000018005076c f i libucrt:atox.obj
 0001:0004f770       _atoi64                    0000000180050770 f   libucrt:atox.obj
 0001:0004f824       _atoi64_l                  0000000180050824 f   libucrt:atox.obj
 0001:0004f8e0       _atoi_l                    00000001800508e0 f   libucrt:atox.obj
 0001:0004f99c       _atol_l                    000000018005099c f   libucrt:atox.obj
 0001:0004fa58       _atoll_l                   0000000180050a58 f   libucrt:atox.obj
 0001:0004fb14       _chvalidchk_l              0000000180050b14 f i libucrt:atox.obj
 0001:0004fb78       _ischartype_l              0000000180050b78 f i libucrt:atox.obj
 0001:0004fbf0       _wtoi                      0000000180050bf0 f   libucrt:atox.obj
 0001:0004fca0       _wtoi64                    0000000180050ca0 f   libucrt:atox.obj
 0001:0004fd54       _wtoi64_l                  0000000180050d54 f   libucrt:atox.obj
 0001:0004fe10       _wtoi_l                    0000000180050e10 f   libucrt:atox.obj
 0001:0004fecc       _wtol                      0000000180050ecc f   libucrt:atox.obj
 0001:0004ff7c       _wtol_l                    0000000180050f7c f   libucrt:atox.obj
 0001:00050038       _wtoll                     0000000180051038 f   libucrt:atox.obj
 0001:000500ec       _wtoll_l                   00000001800510ec f   libucrt:atox.obj
 0001:000501a8       atoi                       00000001800511a8 f   libucrt:atox.obj
 0001:00050258       atol                       0000000180051258 f   libucrt:atox.obj
 0001:00050308       atoll                      0000000180051308 f   libucrt:atox.obj
 0001:000503d0       strncmp                    00000001800513d0 f   libucrt:strncmp.obj
 0001:00050450       ??$?RU__acrt_ptd@@@__crt_internal_free_policy@@QEBAXQEBU__acrt_ptd@@@Z 0000000180051450 f i libucrt:per_thread_data.obj
 0001:00050684       ??0?$__crt_unique_heap_ptr@U__acrt_ptd@@U__crt_internal_free_policy@@@@QEAA@QEAU__acrt_ptd@@@Z 0000000180051684 f i libucrt:per_thread_data.obj
 0001:0005068c       ??1?$__crt_unique_heap_ptr@U__acrt_ptd@@U__crt_internal_free_policy@@@@QEAA@XZ 000000018005168c f i libucrt:per_thread_data.obj
 0001:000506a8       ??B?$__crt_unique_heap_ptr@U__acrt_ptd@@U__crt_internal_free_policy@@@@QEBA_NXZ 00000001800516a8 f i libucrt:per_thread_data.obj
 0001:000508fc       ?dangerous_get_state_array@?$dual_state_global@PEAU__crt_locale_data@@@__crt_state_management@@QEAAPEAPEAU__crt_locale_data@@XZ 00000001800518fc f i libucrt:per_thread_data.obj
 0001:00050b10       ?detach@?$__crt_unique_heap_ptr@U__acrt_ptd@@U__crt_internal_free_policy@@@@QEAAPEAU__acrt_ptd@@XZ 0000000180051b10 f i libucrt:per_thread_data.obj
 0001:00050b18       ?get@?$__crt_unique_heap_ptr@U__acrt_ptd@@U__crt_internal_free_policy@@@@QEBAPEAU__acrt_ptd@@XZ 0000000180051b18 f i libucrt:per_thread_data.obj
 0001:00050d38       ?is_valid@?$__crt_unique_heap_ptr@U__acrt_ptd@@U__crt_internal_free_policy@@@@QEBA_NXZ 0000000180051d38 f i libucrt:per_thread_data.obj
 0001:00050d40       ?release@?$__crt_unique_heap_ptr@U__acrt_ptd@@U__crt_internal_free_policy@@@@QEAAXXZ 0000000180051d40 f i libucrt:per_thread_data.obj
 0001:00050dd8       ?value@?$dual_state_global@PEAU__crt_locale_data@@@__crt_state_management@@QEAAAEAPEAU__crt_locale_data@@XZ 0000000180051dd8 f i libucrt:per_thread_data.obj
 0001:00050ddc       __acrt_freeptd             0000000180051ddc f   libucrt:per_thread_data.obj
 0001:00050e20       __acrt_getptd              0000000180051e20 f   libucrt:per_thread_data.obj
 0001:00050ef4       __acrt_getptd_head         0000000180051ef4 f   libucrt:per_thread_data.obj
 0001:00050f98       __acrt_getptd_noexit       0000000180051f98 f   libucrt:per_thread_data.obj
 0001:00051060       __acrt_getptd_noexit_explicit 0000000180052060 f   libucrt:per_thread_data.obj
 0001:00051120       __acrt_initialize_ptd      0000000180052120 f   libucrt:per_thread_data.obj
 0001:0005115c       __acrt_uninitialize_ptd    000000018005215c f   libucrt:per_thread_data.obj
 0001:00051180       __threadhandle             0000000180052180 f   libucrt:per_thread_data.obj
 0001:00051188       __threadid                 0000000180052188 f   libucrt:per_thread_data.obj
 0001:00051194       ??$?RU__crt_locale_data@@@__crt_internal_free_policy@@QEBAXQEBU__crt_locale_data@@@Z 0000000180052194 f i libucrt:wsetlocale.obj
 0001:0005119c       ??$?RU__crt_locale_pointers@@@__crt_internal_free_policy@@QEBAXQEBU__crt_locale_pointers@@@Z 000000018005219c f i libucrt:wsetlocale.obj
 0001:000511a4       ??$?RU__crt_multibyte_data@@@__crt_internal_free_policy@@QEBAXQEBU__crt_multibyte_data@@@Z 00000001800521a4 f i libucrt:wsetlocale.obj
 0001:000515a8       ??0?$__crt_unique_heap_ptr@U__crt_locale_data@@U__crt_internal_free_policy@@@@QEAA@QEAU__crt_locale_data@@@Z 00000001800525a8 f i libucrt:wsetlocale.obj
 0001:000515b0       ??0?$__crt_unique_heap_ptr@U__crt_locale_pointers@@U__crt_internal_free_policy@@@@QEAA@QEAU__crt_locale_pointers@@@Z 00000001800525b0 f i libucrt:wsetlocale.obj
 0001:000515b8       ??0?$__crt_unique_heap_ptr@U__crt_multibyte_data@@U__crt_internal_free_policy@@@@QEAA@QEAU__crt_multibyte_data@@@Z 00000001800525b8 f i libucrt:wsetlocale.obj
 0001:000515c0       ??0_expandlocale_locale_name_cache@@QEAA@QEA_W_KQEAU__crt_qualified_locale_data@@@Z 00000001800525c0 f i libucrt:wsetlocale.obj
 0001:0005161c       ??1?$__crt_unique_heap_ptr@U__crt_locale_data@@U__crt_internal_free_policy@@@@QEAA@XZ 000000018005261c f i libucrt:wsetlocale.obj
 0001:00051638       ??1?$__crt_unique_heap_ptr@U__crt_locale_pointers@@U__crt_internal_free_policy@@@@QEAA@XZ 0000000180052638 f i libucrt:wsetlocale.obj
 0001:00051654       ??1?$__crt_unique_heap_ptr@U__crt_multibyte_data@@U__crt_internal_free_policy@@@@QEAA@XZ 0000000180052654 f i libucrt:wsetlocale.obj
 0001:00051670       ??1_expandlocale_locale_name_cache@@QEAA@XZ 0000000180052670 f i libucrt:wsetlocale.obj
 0001:000516b8       ??B?$__crt_unique_heap_ptr@U__crt_locale_data@@U__crt_internal_free_policy@@@@QEBA_NXZ 00000001800526b8 f i libucrt:wsetlocale.obj
 0001:000516c0       ??B?$__crt_unique_heap_ptr@U__crt_locale_pointers@@U__crt_internal_free_policy@@@@QEBA_NXZ 00000001800526c0 f i libucrt:wsetlocale.obj
 0001:000516c8       ??B?$__crt_unique_heap_ptr@U__crt_multibyte_data@@U__crt_internal_free_policy@@@@QEBA_NXZ 00000001800526c8 f i libucrt:wsetlocale.obj
 0001:00051948       ?commit_locale_name@_expandlocale_locale_name_cache@@QEAAXQEB_W_K@Z 0000000180052948 f i libucrt:wsetlocale.obj
 0001:000519c0       ?commit_locale_name_cache_already_updated@_expandlocale_locale_name_cache@@QEAAXQEB_W_K@Z 00000001800529c0 f i libucrt:wsetlocale.obj
 0001:00051a00       ?detach@?$__crt_unique_heap_ptr@U__crt_locale_data@@U__crt_internal_free_policy@@@@QEAAPEAU__crt_locale_data@@XZ 0000000180052a00 f i libucrt:wsetlocale.obj
 0001:00051a08       ?detach@?$__crt_unique_heap_ptr@U__crt_locale_pointers@@U__crt_internal_free_policy@@@@QEAAPEAU__crt_locale_pointers@@XZ 0000000180052a08 f i libucrt:wsetlocale.obj
 0001:00051a10       ?detach@?$__crt_unique_heap_ptr@U__crt_multibyte_data@@U__crt_internal_free_policy@@@@QEAAPEAU__crt_multibyte_data@@XZ 0000000180052a10 f i libucrt:wsetlocale.obj
 0001:00051a18       ?get@?$__crt_unique_heap_ptr@U__crt_locale_data@@U__crt_internal_free_policy@@@@QEBAPEAU__crt_locale_data@@XZ 0000000180052a18 f i libucrt:wsetlocale.obj
 0001:00051a1c       ?get@?$__crt_unique_heap_ptr@U__crt_locale_pointers@@U__crt_internal_free_policy@@@@QEBAPEAU__crt_locale_pointers@@XZ 0000000180052a1c f i libucrt:wsetlocale.obj
 0001:00051a20       ?get@?$__crt_unique_heap_ptr@U__crt_multibyte_data@@U__crt_internal_free_policy@@@@QEBAPEAU__crt_multibyte_data@@XZ 0000000180052a20 f i libucrt:wsetlocale.obj
 0001:00051a24       ?is_valid@?$__crt_unique_heap_ptr@U__crt_locale_data@@U__crt_internal_free_policy@@@@QEBA_NXZ 0000000180052a24 f i libucrt:wsetlocale.obj
 0001:00051a2c       ?is_valid@?$__crt_unique_heap_ptr@U__crt_locale_pointers@@U__crt_internal_free_policy@@@@QEBA_NXZ 0000000180052a2c f i libucrt:wsetlocale.obj
 0001:00051a34       ?is_valid@?$__crt_unique_heap_ptr@U__crt_multibyte_data@@U__crt_internal_free_policy@@@@QEBA_NXZ 0000000180052a34 f i libucrt:wsetlocale.obj
 0001:00051a3c       ?release@?$__crt_unique_heap_ptr@U__crt_locale_data@@U__crt_internal_free_policy@@@@QEAAXXZ 0000000180052a3c f i libucrt:wsetlocale.obj
 0001:00051a58       ?release@?$__crt_unique_heap_ptr@U__crt_locale_pointers@@U__crt_internal_free_policy@@@@QEAAXXZ 0000000180052a58 f i libucrt:wsetlocale.obj
 0001:00051a74       ?release@?$__crt_unique_heap_ptr@U__crt_multibyte_data@@U__crt_internal_free_policy@@@@QEAAXXZ 0000000180052a74 f i libucrt:wsetlocale.obj
 0001:00051a90       __acrt_copy_locale_name    0000000180052a90 f   libucrt:wsetlocale.obj
 0001:00051b14       __acrt_set_locale_changed  0000000180052b14 f   libucrt:wsetlocale.obj
 0001:00051b20       __acrt_uninitialize_locale 0000000180052b20 f   libucrt:wsetlocale.obj
 0001:00051b50       __lc_lctowcs               0000000180052b50 f   libucrt:wsetlocale.obj
 0001:00051bf4       __lc_wcstolc               0000000180052bf4 f   libucrt:wsetlocale.obj
 0001:00051d5c       _configthreadlocale        0000000180052d5c f   libucrt:wsetlocale.obj
 0001:00051e88       _create_locale             0000000180052e88 f   libucrt:wsetlocale.obj
 0001:00052380       _free_locale               0000000180053380 f   libucrt:wsetlocale.obj
 0001:00052424       _get_current_locale        0000000180053424 f   libucrt:wsetlocale.obj
 0001:000524e0       _wcreate_locale            00000001800534e0 f   libucrt:wsetlocale.obj
 0001:00052628       _wcscats                   0000000180053628 f   libucrt:wsetlocale.obj
 0001:00052690       _wsetlocale                0000000180053690 f   libucrt:wsetlocale.obj
 0001:000534ac       __p___mb_cur_max           00000001800544ac f   libucrt:nlsdata.obj
 0001:000534e4       _free_base                 00000001800544e4 f   libucrt:free_base.obj
 0001:00053520       _malloc_base               0000000180054520 f   libucrt:malloc_base.obj
 0001:00053580       ?value@?$dual_state_global@PEAU__crt_multibyte_data@@@__crt_state_management@@QEAAAEAPEAU__crt_multibyte_data@@XZ 0000000180054580 f i libucrt:locale_update.obj
 0001:00053584       ?value_explicit@?$dual_state_global@PEAU__crt_locale_data@@@__crt_state_management@@QEAAAEAPEAU__crt_locale_data@@_K@Z 0000000180054584 f i libucrt:locale_update.obj
 0001:0005358c       ?value_explicit@?$dual_state_global@PEAU__crt_multibyte_data@@@__crt_state_management@@QEAAAEAPEAU__crt_multibyte_data@@_K@Z 000000018005458c f i libucrt:locale_update.obj
 0001:00053594       __acrt_should_sync_with_global_locale 0000000180054594 f i libucrt:locale_update.obj
 0001:000535a4       __acrt_update_locale_info  00000001800545a4 f   libucrt:locale_update.obj
 0001:000535d8       __acrt_update_locale_info_explicit 00000001800545d8 f   libucrt:locale_update.obj
 0001:00053610       __acrt_update_multibyte_info 0000000180054610 f   libucrt:locale_update.obj
 0001:00053644       __acrt_update_multibyte_info_explicit 0000000180054644 f   libucrt:locale_update.obj
 0001:0005367c       ?__acrt_fp_classify@@YA?AW4__acrt_fp_class@@AEBN@Z 000000018005467c f i libucrt:cvt.obj
 0001:000536d8       ?__acrt_fp_is_negative@@YA_NAEBN@Z 00000001800546d8 f i libucrt:cvt.obj
 0001:00054344       ?strrchr@@YAPEADQEADH@Z    0000000180055344 f i libucrt:cvt.obj
 0001:0005434c       __acrt_fp_format           000000018005534c f   libucrt:cvt.obj
 0001:00054634       ?value_or@?$cached@H@__crt_cached_ptd_host@@QEBAHH@Z 0000000180055634 f i libucrt:wctomb.obj
 0001:00054640       _wctomb_internal           0000000180055640 f   libucrt:wctomb.obj
 0001:000547f0       _wctomb_l                  00000001800557f0 f   libucrt:wctomb.obj
 0001:000548dc       _wctomb_s_l                00000001800558dc f   libucrt:wctomb.obj
 0001:0005498c       wctomb                     000000018005598c f   libucrt:wctomb.obj
 0001:00054a54       wctomb_s                   0000000180055a54 f   libucrt:wctomb.obj
 0001:00054af4       _isleadbyte_fast_internal  0000000180055af4 f i libucrt:mbtowc.obj
 0001:00054b0c       _mbtowc_internal           0000000180055b0c f   libucrt:mbtowc.obj
 0001:00054c84       _mbtowc_l                  0000000180055c84 f   libucrt:mbtowc.obj
 0001:00054d28       mbtowc                     0000000180055d28 f   libucrt:mbtowc.obj
 0001:00054dc0       ?lowio_handle@__crt_stdio_stream@@QEBAHXZ 0000000180055dc0 f i libucrt:fileno.obj
 0001:00054dc8       _fileno                    0000000180055dc8 f   libucrt:fileno.obj
 0001:00054df0       _get_printf_count_output   0000000180055df0 f   libucrt:printf_count_output.obj
 0001:00054e08       _set_printf_count_output   0000000180055e08 f   libucrt:printf_count_output.obj
 0001:00054ecc       _fputwc_nolock             0000000180055ecc f   libucrt:fputwc.obj
 0001:00054f68       _fputwc_nolock_internal    0000000180055f68 f   libucrt:fputwc.obj
 0001:000550f4       _fputwchar                 00000001800560f4 f   libucrt:fputwc.obj
 0001:00055118       _putwc_nolock              0000000180056118 f   libucrt:fputwc.obj
 0001:00055120       fputwc                     0000000180056120 f   libucrt:fputwc.obj
 0001:000551bc       putwc                      00000001800561bc f   libucrt:fputwc.obj
 0001:000551c4       putwchar                   00000001800561c4 f   libucrt:fputwc.obj
 0001:00055334       _fputc_nolock              0000000180056334 f   libucrt:fputc.obj
 0001:000553e0       _fputc_nolock_internal     00000001800563e0 f   libucrt:fputc.obj
 0001:000553f8       _fputchar                  00000001800563f8 f   libucrt:fputc.obj
 0001:0005541c       _putc_nolock               000000018005641c f   libucrt:fputc.obj
 0001:00055424       fputc                      0000000180056424 f   libucrt:fputc.obj
 0001:000554bc       putc                       00000001800564bc f   libucrt:fputc.obj
 0001:000554c4       putchar                    00000001800564c4 f   libucrt:fputc.obj
 0001:000554cc       ?has_any_buffer@__crt_stdio_stream@@QEBA_NXZ 00000001800564cc f i libucrt:_sftbuf.obj
 0001:000554e0       ?has_any_of@__crt_stdio_stream@@QEBA_NJ@Z 00000001800564e0 f i libucrt:_sftbuf.obj
 0001:000554f0       ?has_temporary_buffer@__crt_stdio_stream@@QEBA_NXZ 00000001800564f0 f i libucrt:_sftbuf.obj
 0001:00055500       ?set_flags@__crt_stdio_stream@@QEBA_NJ@Z 0000000180056500 f i libucrt:_sftbuf.obj
 0001:00055520       ?unset_flags@__crt_stdio_stream@@QEBA_NJ@Z 0000000180056520 f i libucrt:_sftbuf.obj
 0001:00055548       __acrt_should_use_temporary_buffer 0000000180056548 f   libucrt:_sftbuf.obj
 0001:00055594       __acrt_stdio_begin_temporary_buffering_nolock 0000000180056594 f   libucrt:_sftbuf.obj
 0001:0005565c       __acrt_stdio_end_temporary_buffering_nolock 000000018005665c f   libucrt:_sftbuf.obj
 0001:000558b0       __acrt_initialize_lowio    00000001800568b0 f   libucrt:ioinit.obj
 0001:000558ec       __acrt_uninitialize_lowio  00000001800568ec f   libucrt:ioinit.obj
 0001:0005592c       __acrt_LCMapStringW        000000018005692c f   libucrt:lcmapstringw.obj
 0001:000559b4       _realloc_base              00000001800569b4 f   libucrt:realloc_base.obj
 0001:00055a30       __acrt_initialize_locks    0000000180056a30 f   libucrt:locks.obj
 0001:00055a78       __acrt_lock                0000000180056a78 f   libucrt:locks.obj
 0001:00055a94       __acrt_uninitialize_locks  0000000180056a94 f   libucrt:locks.obj
 0001:00055acc       __acrt_unlock              0000000180056acc f   libucrt:locks.obj
 0001:00055ae8       _lock_locales              0000000180056ae8 f   libucrt:locks.obj
 0001:00055b04       _unlock_locales            0000000180056b04 f   libucrt:locks.obj
 0001:00055b14       __acrt_app_verifier_enabled 0000000180056b14 f   libucrt:peb_access.obj
 0001:00055b30       __acrt_is_secure_process   0000000180056b30 f   libucrt:peb_access.obj
 0001:00055cd4       __acrt_get_begin_thread_init_policy 0000000180056cd4 f   libucrt:win_policies.obj
 0001:00055d14       __acrt_get_developer_information_policy 0000000180056d14 f   libucrt:win_policies.obj
 0001:00055d58       __acrt_get_process_end_policy 0000000180056d58 f   libucrt:win_policies.obj
 0001:00055d88       __acrt_get_windowing_model_policy 0000000180056d88 f   libucrt:win_policies.obj
 0001:00055df0       _iswctype_l                0000000180056df0 f   libucrt:iswctype.obj
 0001:00055df8       iswctype                   0000000180056df8 f   libucrt:iswctype.obj
 0001:00055e64       _towlower_l                0000000180056e64 f   libucrt:towlower.obj
 0001:00055f58       towlower                   0000000180056f58 f   libucrt:towlower.obj
 0001:00055f60       __pctype_func              0000000180056f60 f   libucrt:ctype.obj
 0001:00055f90       __pwctype_func             0000000180056f90 f   libucrt:ctype.obj
 0001:00055f98       _calloc_base               0000000180056f98 f   libucrt:calloc_base.obj
 0001:00056048       ??$?B$$A6AHPEA_WK_J@Z@__crt_fast_encoded_nullptr_t@@QEBAP6AHPEA_WK_J@ZXZ 0000000180057048 f i libucrt:winapi_thunks.obj
 0001:000560f4       ??$__crt_fast_decode_pointer@P6AHPEA_WK_J@Z@@YAP6AHPEA_WK_J@ZQ6AH0K1@Z@Z 00000001800570f4 f i libucrt:winapi_thunks.obj
 0001:0005610c       ??$__crt_fast_decode_pointer@PEAX@@YAPEAXQEAX@Z 000000018005710c f i libucrt:winapi_thunks.obj
 0001:00056124       ??$__crt_fast_encode_pointer@P6AHPEA_WK_J@Z@@YAP6AHPEA_WK_J@ZQ6AH0K1@Z@Z 0000000180057124 f i libucrt:winapi_thunks.obj
 0001:00056ba0       GetCurrentThreadEffectiveToken 0000000180057ba0 f i libucrt:winapi_thunks.obj
 0001:00056ba8       __acrt_AppPolicyGetProcessTerminationMethodInternal 0000000180057ba8 f   libucrt:winapi_thunks.obj
 0001:00056c00       __acrt_AppPolicyGetShowDeveloperDiagnosticInternal 0000000180057c00 f   libucrt:winapi_thunks.obj
 0001:00056c58       __acrt_AppPolicyGetThreadInitializationTypeInternal 0000000180057c58 f   libucrt:winapi_thunks.obj
 0001:00056cb0       __acrt_AppPolicyGetWindowingModelInternal 0000000180057cb0 f   libucrt:winapi_thunks.obj
 0001:00056d08       __acrt_AreFileApisANSI     0000000180057d08 f   libucrt:winapi_thunks.obj
 0001:00056d4c       __acrt_CompareStringEx     0000000180057d4c f   libucrt:winapi_thunks.obj
 0001:00056e38       __acrt_EnumSystemLocalesEx 0000000180057e38 f   libucrt:winapi_thunks.obj
 0001:00056ed8       __acrt_FlsAlloc            0000000180057ed8 f   libucrt:winapi_thunks.obj
 0001:00056ee0       __acrt_FlsFree             0000000180057ee0 f   libucrt:winapi_thunks.obj
 0001:00056ee8       __acrt_FlsGetValue         0000000180057ee8 f   libucrt:winapi_thunks.obj
 0001:00056ef0       __acrt_FlsSetValue         0000000180057ef0 f   libucrt:winapi_thunks.obj
 0001:00056ef8       __acrt_GetDateFormatEx     0000000180057ef8 f   libucrt:winapi_thunks.obj
 0001:00056fb8       __acrt_GetEnabledXStateFeatures 0000000180057fb8 f   libucrt:winapi_thunks.obj
 0001:00056ffc       __acrt_GetLocaleInfoEx     0000000180057ffc f   libucrt:winapi_thunks.obj
 0001:0005708c       __acrt_GetSystemTimePreciseAsFileTime 000000018005808c f   libucrt:winapi_thunks.obj
 0001:000570e4       __acrt_GetTempPath2W       00000001800580e4 f   libucrt:winapi_thunks.obj
 0001:00057144       __acrt_GetTimeFormatEx     0000000180058144 f   libucrt:winapi_thunks.obj
 0001:000571f8       __acrt_GetUserDefaultLocaleName 00000001800581f8 f   libucrt:winapi_thunks.obj
 0001:00057264       __acrt_GetXStateFeaturesMask 0000000180058264 f   libucrt:winapi_thunks.obj
 0001:000572c0       __acrt_InitializeCriticalSectionEx 00000001800582c0 f   libucrt:winapi_thunks.obj
 0001:00057330       __acrt_IsValidLocaleName   0000000180058330 f   libucrt:winapi_thunks.obj
 0001:00057394       __acrt_LCIDToLocaleName    0000000180058394 f   libucrt:winapi_thunks.obj
 0001:00057418       __acrt_LCMapStringEx       0000000180058418 f   libucrt:winapi_thunks.obj
 0001:00057504       __acrt_LocaleNameToLCID    0000000180058504 f   libucrt:winapi_thunks.obj
 0001:00057564       __acrt_LocateXStateFeature 0000000180058564 f   libucrt:winapi_thunks.obj
 0001:000575d0       __acrt_MessageBoxA         00000001800585d0 f   libucrt:winapi_thunks.obj
 0001:0005764c       __acrt_MessageBoxW         000000018005864c f   libucrt:winapi_thunks.obj
 0001:000576c8       __acrt_RoInitialize        00000001800586c8 f   libucrt:winapi_thunks.obj
 0001:00057714       __acrt_RoUninitialize      0000000180058714 f   libucrt:winapi_thunks.obj
 0001:00057754       __acrt_RtlGenRandom        0000000180058754 f   libucrt:winapi_thunks.obj
 0001:000577b0       __acrt_SetThreadStackGuarantee 00000001800587b0 f   libucrt:winapi_thunks.obj
 0001:000577fc       __acrt_can_show_message_box 00000001800587fc f   libucrt:winapi_thunks.obj
 0001:0005786c       __acrt_can_use_vista_locale_apis 000000018005886c f   libucrt:winapi_thunks.obj
 0001:0005789c       __acrt_can_use_xstate_apis 000000018005889c f   libucrt:winapi_thunks.obj
 0001:000578cc       __acrt_eagerly_load_locale_apis 00000001800588cc f   libucrt:winapi_thunks.obj
 0001:00057a28       __acrt_get_parent_window   0000000180058a28 f   libucrt:winapi_thunks.obj
 0001:00057ab4       __acrt_initialize_winapi_thunks 0000000180058ab4 f   libucrt:winapi_thunks.obj
 0001:00057ad8       __acrt_is_interactive      0000000180058ad8 f   libucrt:winapi_thunks.obj
 0001:00057bb8       __acrt_uninitialize_winapi_thunks 0000000180058bb8 f   libucrt:winapi_thunks.obj
 0001:00057bfc       ??0__crt_stdio_stream@@QEAA@QEAU__crt_stdio_stream_data@@@Z 0000000180058bfc f i libucrt:closeall.obj
 0001:00057c04       _fcloseall                 0000000180058c04 f   libucrt:closeall.obj
 0001:000580c8       ?__acrt_stdio_reset_buffer@@YAXV__crt_stdio_stream@@@Z 00000001800590c8 f i libucrt:fflush.obj
 0001:000581b8       ?has_all_of@__crt_stdio_stream@@QEBA_NJ@Z 00000001800591b8 f i libucrt:fflush.obj
 0001:00058204       __acrt_stdio_flush_nolock  0000000180059204 f   libucrt:fflush.obj
 0001:00058290       _fflush_nolock             0000000180059290 f   libucrt:fflush.obj
 0001:00058364       _flushall                  0000000180059364 f   libucrt:fflush.obj
 0001:0005836c       fflush                     000000018005936c f   libucrt:fflush.obj
 0001:000583d4       ?has_crt_buffer@__crt_stdio_stream@@QEBA_NXZ 00000001800593d4 f i libucrt:_freebuf.obj
 0001:000583e4       __acrt_stdio_free_buffer_nolock 00000001800593e4 f   libucrt:_freebuf.obj
 0001:00058428       ??$?RU__crt_stdio_stream_data@@@__crt_internal_free_policy@@QEBAXQEBU__crt_stdio_stream_data@@@Z 0000000180059428 f i libucrt:stream.obj
 0001:00058430       ??0?$__crt_unique_heap_ptr@U__crt_stdio_stream_data@@U__crt_internal_free_policy@@@@QEAA@QEAU__crt_stdio_stream_data@@@Z 0000000180059430 f i libucrt:stream.obj
 0001:00058438       ??0__crt_stdio_stream@@QEAA@XZ 0000000180059438 f i libucrt:stream.obj
 0001:00058440       ??1?$__crt_unique_heap_ptr@U__crt_stdio_stream_data@@U__crt_internal_free_policy@@@@QEAA@XZ 0000000180059440 f i libucrt:stream.obj
 0001:0005845c       ?__acrt_stdio_allocate_stream@@YA?AV__crt_stdio_stream@@XZ 000000018005945c f   libucrt:stream.obj
 0001:000584b4       ?__acrt_stdio_free_stream@@YAXV__crt_stdio_stream@@@Z 00000001800594b4 f   libucrt:stream.obj
 0001:000584d0       ?deallocate@__crt_stdio_stream@@QEAAXXZ 00000001800594d0 f i libucrt:stream.obj
 0001:000584dc       ?detach@?$__crt_unique_heap_ptr@U__crt_stdio_stream_data@@U__crt_internal_free_policy@@@@QEAAPEAU__crt_stdio_stream_data@@XZ 00000001800594dc f i libucrt:stream.obj
 0001:000585d0       ?lock@__crt_stdio_stream@@QEBAXXZ 00000001800595d0 f i libucrt:stream.obj
 0001:000585d8       ?release@?$__crt_unique_heap_ptr@U__crt_stdio_stream_data@@U__crt_internal_free_policy@@@@QEAAXXZ 00000001800595d8 f i libucrt:stream.obj
 0001:000585f4       ?try_allocate@__crt_stdio_stream@@QEAA_NXZ 00000001800595f4 f i libucrt:stream.obj
 0001:00058614       ??$__acrt_stdio_parse_mode@D@@YA?AU__acrt_stdio_stream_mode@@QEBD@Z 0000000180059614 f i libucrt:openfile.obj
 0001:000588d8       ??$__acrt_stdio_parse_mode@_W@@YA?AU__acrt_stdio_stream_mode@@QEB_W@Z 00000001800598d8 f i libucrt:openfile.obj
 0001:00058d0c       ??$tcsncmp@AEAPEBDAEAY02$$CBD_K@?$__crt_char_traits@D@@SAHAEAPEBDAEAY02$$CBD$$QEA_K@Z 0000000180059d0c f i libucrt:openfile.obj
 0001:00058d18       ??$tcsncmp@AEAPEB_WAEAY02$$CB_W_K@?$__crt_char_traits@_W@@SAHAEAPEB_WAEAY02$$CB_W$$QEA_K@Z 0000000180059d18 f i libucrt:openfile.obj
 0001:00058d24       ??$tcsnicmp@AEAPEBDAEAY04$$CBD_K@?$__crt_char_traits@D@@SAHAEAPEBDAEAY04$$CBD$$QEA_K@Z 0000000180059d24 f i libucrt:openfile.obj
 0001:00058d30       ??$tcsnicmp@AEAPEBDAEAY06$$CBD_K@?$__crt_char_traits@D@@SAHAEAPEBDAEAY06$$CBD$$QEA_K@Z 0000000180059d30 f i libucrt:openfile.obj
 0001:00058d3c       ??$tcsnicmp@AEAPEBDAEAY07$$CBD_K@?$__crt_char_traits@D@@SAHAEAPEBDAEAY07$$CBD$$QEA_K@Z 0000000180059d3c f i libucrt:openfile.obj
 0001:00058d48       ??$tcsnicmp@AEAPEB_WAEAY04$$CB_W_K@?$__crt_char_traits@_W@@SAHAEAPEB_WAEAY04$$CB_W$$QEA_K@Z 0000000180059d48 f i libucrt:openfile.obj
 0001:00058d54       ??$tcsnicmp@AEAPEB_WAEAY06$$CB_W_K@?$__crt_char_traits@_W@@SAHAEAPEB_WAEAY06$$CB_W$$QEA_K@Z 0000000180059d54 f i libucrt:openfile.obj
 0001:00058d60       ??$tcsnicmp@AEAPEB_WAEAY07$$CB_W_K@?$__crt_char_traits@_W@@SAHAEAPEB_WAEAY07$$CB_W$$QEA_K@Z 0000000180059d60 f i libucrt:openfile.obj
 0001:00058d6c       ??$tsopen_s@PEAHAEBQEBDAEBHAEBHH@?$__crt_char_traits@D@@SAH$$QEAPEAHAEBQEBDAEBH2$$QEAH@Z 0000000180059d6c f i libucrt:openfile.obj
 0001:00058d8c       ??$tsopen_s@PEAHAEBQEB_WAEBHAEBHH@?$__crt_char_traits@_W@@SAH$$QEAPEAHAEBQEB_WAEBH2$$QEAH@Z 0000000180059d8c f i libucrt:openfile.obj
 0001:00058dac       ?__acrt_stdio_parse_mode_D@@YA_NAEAU__acrt_stdio_stream_mode@@@Z 0000000180059dac f i libucrt:openfile.obj
 0001:00058dc0       ?__acrt_stdio_parse_mode_N@@YA_NAEAU__acrt_stdio_stream_mode@@@Z 0000000180059dc0 f i libucrt:openfile.obj
 0001:00058dc8       ?__acrt_stdio_parse_mode_R@@YA_NAEAU__acrt_stdio_stream_mode@@AEA_N@Z 0000000180059dc8 f i libucrt:openfile.obj
 0001:00058ddc       ?__acrt_stdio_parse_mode_S@@YA_NAEAU__acrt_stdio_stream_mode@@AEA_N@Z 0000000180059ddc f i libucrt:openfile.obj
 0001:00058df0       ?__acrt_stdio_parse_mode_T@@YA_NAEAU__acrt_stdio_stream_mode@@@Z 0000000180059df0 f i libucrt:openfile.obj
 0001:00058e08       ?__acrt_stdio_parse_mode_b@@YA_NAEAU__acrt_stdio_stream_mode@@@Z 0000000180059e08 f i libucrt:openfile.obj
 0001:00058e20       ?__acrt_stdio_parse_mode_c@@YA_NAEAU__acrt_stdio_stream_mode@@AEA_N@Z 0000000180059e20 f i libucrt:openfile.obj
 0001:00058e34       ?__acrt_stdio_parse_mode_n@@YA_NAEAU__acrt_stdio_stream_mode@@AEA_N@Z 0000000180059e34 f i libucrt:openfile.obj
 0001:00058e48       ?__acrt_stdio_parse_mode_plus@@YA_NAEAU__acrt_stdio_stream_mode@@AEA_N@Z 0000000180059e48 f i libucrt:openfile.obj
 0001:00058e78       ?__acrt_stdio_parse_mode_t@@YA_NAEAU__acrt_stdio_stream_mode@@@Z 0000000180059e78 f i libucrt:openfile.obj
 0001:00058e90       ?__acrt_stdio_parse_mode_x@@YA_NAEAU__acrt_stdio_stream_mode@@@Z 0000000180059e90 f i libucrt:openfile.obj
 0001:00058ea4       _openfile                  0000000180059ea4 f   libucrt:openfile.obj
 0001:00058f40       _wopenfile                 0000000180059f40 f   libucrt:openfile.obj
 0001:00058fdc       ?dangerous_get_state_array@?$dual_state_global@PEAPEAD@__crt_state_management@@QEAAPEAPEAPEADXZ 0000000180059fdc f i libucrt:timeset.obj
 0001:00058fe0       ?dangerous_get_state_array@?$dual_state_global@PEAPEA_W@__crt_state_management@@QEAAPEAPEAPEA_WXZ 0000000180059fe0 f i libucrt:timeset.obj
 0001:00058fe4       ?initialize@?$dual_state_global@H@__crt_state_management@@QEAAXH@Z 0000000180059fe4 f i libucrt:timeset.obj
 0001:00058ff0       ?initialize@?$dual_state_global@J@__crt_state_management@@QEAAXJ@Z 0000000180059ff0 f i libucrt:timeset.obj
 0001:00058ffc       ?value@?$dual_state_global@H@__crt_state_management@@QEAAAEAHXZ 0000000180059ffc f i libucrt:timeset.obj
 0001:00059000       ?value@?$dual_state_global@J@__crt_state_management@@QEAAAEAJXZ 000000018005a000 f i libucrt:timeset.obj
 0001:00059004       __acrt_initialize_timeset  000000018005a004 f   libucrt:timeset.obj
 0001:00059054       __daylight                 000000018005a054 f   libucrt:timeset.obj
 0001:0005905c       __dstbias                  000000018005a05c f   libucrt:timeset.obj
 0001:00059064       __timezone                 000000018005a064 f   libucrt:timeset.obj
 0001:0005906c       __tzname                   000000018005a06c f   libucrt:timeset.obj
 0001:00059074       __wide_tzname              000000018005a074 f   libucrt:timeset.obj
 0001:0005907c       _get_daylight              000000018005a07c f   libucrt:timeset.obj
 0001:000590ac       _get_dstbias               000000018005a0ac f   libucrt:timeset.obj
 0001:000590dc       _get_timezone              000000018005a0dc f   libucrt:timeset.obj
 0001:0005910c       _get_tzname                000000018005a10c f   libucrt:timeset.obj
 0001:000591a4       ??$__crt_time_elapsed_leap_years@H@@YAHH@Z 000000018005a1a4 f i libucrt:tzset.obj
 0001:000591f0       ?__acrt_get_utf8_acp_compatibility_codepage@@YAIXZ 000000018005a1f0 f i libucrt:tzset.obj
 0001:00059538       ?_set_daylight@@YAXH@Z     000000018005a538 f i libucrt:tzset.obj
 0001:00059550       ?_set_dstbias@@YAXJ@Z      000000018005a550 f i libucrt:tzset.obj
 0001:00059568       ?_set_timezone@@YAXJ@Z     000000018005a568 f i libucrt:tzset.obj
 0001:00059778       ?dangerous_get_state_array@?$dual_state_global@J@__crt_state_management@@QEAAPEAJXZ 000000018005a778 f i libucrt:tzset.obj
 0001:00059e74       __tzset                    000000018005ae74 f   libucrt:tzset.obj
 0001:00059eb8       _isindst                   000000018005aeb8 f   libucrt:tzset.obj
 0001:00059ee8       _tzset                     000000018005aee8 f   libucrt:tzset.obj
 0001:0005a0a4       _close                     000000018005b0a4 f   libucrt:close.obj
 0001:0005a13c       _close_internal            000000018005b13c f   libucrt:close.obj
 0001:0005a200       _close_nolock              000000018005b200 f   libucrt:close.obj
 0001:0005a298       _close_nolock_internal     000000018005b298 f   libucrt:close.obj
 0001:0005a49c       ?has_big_buffer@__crt_stdio_stream@@QEBA_NXZ 000000018005b49c f i libucrt:fwrite.obj
 0001:0005a4ac       _fwrite_internal           000000018005b4ac f   libucrt:fwrite.obj
 0001:0005a548       _fwrite_nolock             000000018005b548 f   libucrt:fwrite.obj
 0001:0005a5ec       _fwrite_nolock_internal    000000018005b5ec f   libucrt:fwrite.obj
 0001:0005a800       fwrite                     000000018005b800 f   libucrt:fwrite.obj
 0001:0005a8a4       ??$?RUtm@@@__crt_internal_free_policy@@QEBAXQEBUtm@@@Z 000000018005b8a4 f i libucrt:gmtime.obj
 0001:0005ac6c       ??0?$__crt_unique_heap_ptr@Utm@@U__crt_internal_free_policy@@@@QEAA@QEAUtm@@@Z 000000018005bc6c f i libucrt:gmtime.obj
 0001:0005ac74       ??1?$__crt_unique_heap_ptr@Utm@@U__crt_internal_free_policy@@@@QEAA@XZ 000000018005bc74 f i libucrt:gmtime.obj
 0001:0005ade8       ?detach@?$__crt_unique_heap_ptr@Utm@@U__crt_internal_free_policy@@@@QEAAPEAUtm@@XZ 000000018005bde8 f i libucrt:gmtime.obj
 0001:0005adf0       ?release@?$__crt_unique_heap_ptr@Utm@@U__crt_internal_free_policy@@@@QEAAXXZ 000000018005bdf0 f i libucrt:gmtime.obj
 0001:0005ae0c       __getgmtimebuf             000000018005be0c f   libucrt:gmtime.obj
 0001:0005ae58       _gmtime32                  000000018005be58 f   libucrt:gmtime.obj
 0001:0005aea0       _gmtime32_s                000000018005bea0 f   libucrt:gmtime.obj
 0001:0005aea8       _gmtime64                  000000018005bea8 f   libucrt:gmtime.obj
 0001:0005aef0       _gmtime64_s                000000018005bef0 f   libucrt:gmtime.obj
 0001:0005aef8       _msize                     000000018005bef8 f   libucrt:msize.obj
 0001:0005af00       _msize_base                000000018005bf00 f   libucrt:msize.obj
 0001:0005af64       ??$__acrt_convert_wcs_mbs_cp@D_WV<lambda_7c9dea7b4ca7285d2cdb541a38da6275>@@U__crt_win32_buffer_internal_dynamic_resizing@@@@YAHQEBDAEAV?$__crt_win32_buffer@_WU__crt_win32_buffer_internal_dynamic_resizing@@@@AEBV<lambda_7c9dea7b4ca7285d2cdb541a38da6275>@@I@Z 000000018005bf64 f i libucrt:argv_wildcards.obj
 0001:0005b0e0       ??$__acrt_convert_wcs_mbs_cp@_WDV<lambda_d8593a27d1aa8c02be35c86a17d324c4>@@U__crt_win32_buffer_internal_dynamic_resizing@@@@YAHQEB_WAEAV?$__crt_win32_buffer@DU__crt_win32_buffer_internal_dynamic_resizing@@@@AEBV<lambda_d8593a27d1aa8c02be35c86a17d324c4>@@I@Z 000000018005c0e0 f i libucrt:argv_wildcards.obj
 0001:0005b26c       ??$__acrt_mbs_to_wcs_cp@U__crt_win32_buffer_internal_dynamic_resizing@@@@YAHQEBDAEAV?$__crt_win32_buffer@_WU__crt_win32_buffer_internal_dynamic_resizing@@@@I@Z 000000018005c26c f i libucrt:argv_wildcards.obj
 0001:0005b27c       ??$__acrt_wcs_to_mbs_cp@U__crt_win32_buffer_internal_dynamic_resizing@@@@YAHQEB_WAEAV?$__crt_win32_buffer@DU__crt_win32_buffer_internal_dynamic_resizing@@@@I@Z 000000018005c27c f i libucrt:argv_wildcards.obj
 0001:0005c0ac       ??$tcslen@AEBQEBD@?$__crt_char_traits@D@@SA_KAEBQEBD@Z 000000018005d0ac f i libucrt:argv_wildcards.obj
 0001:0005c0c0       ??$tcslen@AEBQEB_W@?$__crt_char_traits@_W@@SA_KAEBQEB_W@Z 000000018005d0c0 f i libucrt:argv_wildcards.obj
 0001:0005c0d4       ??$tcsncpy_s@AEAPEAD_KAEAPEADAEB_K@?$__crt_char_traits@D@@SAHAEAPEAD$$QEA_K0AEB_K@Z 000000018005d0d4 f i libucrt:argv_wildcards.obj
 0001:0005c0e8       ??$tcsncpy_s@AEAPEA_W_KAEAPEA_WAEB_K@?$__crt_char_traits@_W@@SAHAEAPEA_W$$QEA_K0AEB_K@Z 000000018005d0e8 f i libucrt:argv_wildcards.obj
 0001:0005c0fc       ??$tcsncpy_s@PEADAEB_KAEBQEBDAEB_K@?$__crt_char_traits@D@@SAH$$QEAPEADAEB_KAEBQEBD1@Z 000000018005d0fc f i libucrt:argv_wildcards.obj
 0001:0005c110       ??$tcsncpy_s@PEAD_KAEBQEBDAEB_K@?$__crt_char_traits@D@@SAH$$QEAPEAD$$QEA_KAEBQEBDAEB_K@Z 000000018005d110 f i libucrt:argv_wildcards.obj
 0001:0005c124       ??$tcsncpy_s@PEA_WAEB_KAEBQEB_WAEB_K@?$__crt_char_traits@_W@@SAH$$QEAPEA_WAEB_KAEBQEB_W1@Z 000000018005d124 f i libucrt:argv_wildcards.obj
 0001:0005c138       ??$tcsncpy_s@PEA_W_KAEBQEB_WAEB_K@?$__crt_char_traits@_W@@SAH$$QEAPEA_W$$QEA_KAEBQEB_WAEB_K@Z 000000018005d138 f i libucrt:argv_wildcards.obj
 0001:0005c14c       ??$tcspbrk@AEAPEADAEAY02$$CBD@?$__crt_char_traits@D@@SAPEADAEAPEADAEAY02$$CBD@Z 000000018005d14c f i libucrt:argv_wildcards.obj
 0001:0005c154       ??$tcspbrk@AEAPEA_WAEAY02$$CB_W@?$__crt_char_traits@_W@@SAPEA_WAEAPEA_WAEAY02$$CB_W@Z 000000018005d154 f i libucrt:argv_wildcards.obj
 0001:0005c15c       ??0?$__crt_unique_handle_t@U__crt_findfile_traits@@@@QEAA@QEAX@Z 000000018005d15c f i libucrt:argv_wildcards.obj
 0001:0005c164       ??0?$__crt_win32_buffer@DU__crt_win32_buffer_internal_dynamic_resizing@@@@QEAA@XZ 000000018005d164 f i libucrt:argv_wildcards.obj
 0001:0005c180       ??0?$__crt_win32_buffer@_WU__crt_win32_buffer_internal_dynamic_resizing@@@@QEAA@XZ 000000018005d180 f i libucrt:argv_wildcards.obj
 0001:0005c1c4       ??1?$__crt_unique_handle_t@U__crt_findfile_traits@@@@QEAA@XZ 000000018005d1c4 f i libucrt:argv_wildcards.obj
 0001:0005c1e8       ??1?$__crt_win32_buffer@DU__crt_win32_buffer_internal_dynamic_resizing@@@@QEAA@XZ 000000018005d1e8 f i libucrt:argv_wildcards.obj
 0001:0005c20c       ??1?$__crt_win32_buffer@_WU__crt_win32_buffer_internal_dynamic_resizing@@@@QEAA@XZ 000000018005d20c f i libucrt:argv_wildcards.obj
 0001:0005c2b8       ??R<lambda_7c9dea7b4ca7285d2cdb541a38da6275>@@QEBA@IQEBDQEA_W_K@Z 000000018005d2b8 f i libucrt:argv_wildcards.obj
 0001:0005c348       ??R<lambda_d8593a27d1aa8c02be35c86a17d324c4>@@QEBA@IQEB_WQEAD_K@Z 000000018005d348 f i libucrt:argv_wildcards.obj
 0001:0005c378       ?_deallocate@?$__crt_win32_buffer@DU__crt_win32_buffer_internal_dynamic_resizing@@@@AEAAXXZ 000000018005d378 f i libucrt:argv_wildcards.obj
 0001:0005c39c       ?_deallocate@?$__crt_win32_buffer@_WU__crt_win32_buffer_internal_dynamic_resizing@@@@AEAAXXZ 000000018005d39c f i libucrt:argv_wildcards.obj
 0001:0005c3c0       ?allocate@?$__crt_win32_buffer@DU__crt_win32_buffer_internal_dynamic_resizing@@@@QEAAH_K@Z 000000018005d3c0 f i libucrt:argv_wildcards.obj
 0001:0005c424       ?allocate@?$__crt_win32_buffer@_WU__crt_win32_buffer_internal_dynamic_resizing@@@@QEAAH_K@Z 000000018005d424 f i libucrt:argv_wildcards.obj
 0001:0005c488       ?allocate@__crt_win32_buffer_internal_dynamic_resizing@@SAHQEAPEAX_KAEBV__crt_win32_buffer_empty_debug_info@@@Z 000000018005d488 f i libucrt:argv_wildcards.obj
 0001:0005c674       ?capacity@?$__crt_win32_buffer@DU__crt_win32_buffer_internal_dynamic_resizing@@@@QEBA_KXZ 000000018005d674 f i libucrt:argv_wildcards.obj
 0001:0005c67c       ?capacity@?$__crt_win32_buffer@_WU__crt_win32_buffer_internal_dynamic_resizing@@@@QEBA_KXZ 000000018005d67c f i libucrt:argv_wildcards.obj
 0001:0005c684       ?close@?$__crt_unique_handle_t@U__crt_findfile_traits@@@@QEAAXXZ 000000018005d684 f i libucrt:argv_wildcards.obj
 0001:0005c6a8       ?close@__crt_findfile_traits@@SA_NPEAX@Z 000000018005d6a8 f i libucrt:argv_wildcards.obj
 0001:0005c6bc       ?data@?$__crt_win32_buffer@DU__crt_win32_buffer_internal_dynamic_resizing@@@@QEAAPEADXZ 000000018005d6bc f i libucrt:argv_wildcards.obj
 0001:0005c6c4       ?data@?$__crt_win32_buffer@_WU__crt_win32_buffer_internal_dynamic_resizing@@@@QEAAPEA_WXZ 000000018005d6c4 f i libucrt:argv_wildcards.obj
 0001:0005c6cc       ?deallocate@__crt_win32_buffer_internal_dynamic_resizing@@SAXQEAXAEBV__crt_win32_buffer_empty_debug_info@@@Z 000000018005d6cc f i libucrt:argv_wildcards.obj
 0001:0005c6d4       ?debug_info@?$__crt_win32_buffer@DU__crt_win32_buffer_internal_dynamic_resizing@@@@QEBAAEBV__crt_win32_buffer_empty_debug_info@@XZ 000000018005d6d4 f i libucrt:argv_wildcards.obj
 0001:0005c6d8       ?debug_info@?$__crt_win32_buffer@_WU__crt_win32_buffer_internal_dynamic_resizing@@@@QEBAAEBV__crt_win32_buffer_empty_debug_info@@XZ 000000018005d6d8 f i libucrt:argv_wildcards.obj
 0001:0005c87c       ?get@?$__crt_unique_handle_t@U__crt_findfile_traits@@@@QEBAPEAXXZ 000000018005d87c f i libucrt:argv_wildcards.obj
 0001:0005c928       ?get_invalid_value@__crt_findfile_traits@@SAPEAXXZ 000000018005d928 f i libucrt:argv_wildcards.obj
 0001:0005c9e8       ?set_to_nullptr@?$__crt_win32_buffer@DU__crt_win32_buffer_internal_dynamic_resizing@@@@QEAAXXZ 000000018005d9e8 f i libucrt:argv_wildcards.obj
 0001:0005ca24       ?set_to_nullptr@?$__crt_win32_buffer@_WU__crt_win32_buffer_internal_dynamic_resizing@@@@QEAAXXZ 000000018005da24 f i libucrt:argv_wildcards.obj
 0001:0005ca60       ?size@?$__crt_win32_buffer@DU__crt_win32_buffer_internal_dynamic_resizing@@@@QEAAX_K@Z 000000018005da60 f i libucrt:argv_wildcards.obj
 0001:0005ca68       ?size@?$__crt_win32_buffer@_WU__crt_win32_buffer_internal_dynamic_resizing@@@@QEAAX_K@Z 000000018005da68 f i libucrt:argv_wildcards.obj
 0001:0005ca88       ?strpbrk@@YAPEADQEADQEBD@Z 000000018005da88 f i libucrt:argv_wildcards.obj
 0001:0005ca90       ?wcspbrk@@YAPEA_WPEA_WPEB_W@Z 000000018005da90 f i libucrt:argv_wildcards.obj
 0001:0005ca98       __acrt_expand_narrow_argv_wildcards 000000018005da98 f   libucrt:argv_wildcards.obj
 0001:0005caa0       __acrt_expand_wide_argv_wildcards 000000018005daa0 f   libucrt:argv_wildcards.obj
 0001:0005caa8       ??$__acrt_convert_wcs_mbs_cp@_WDV<lambda_f788ae46380686e8b737efdd8c720d07>@@U__crt_win32_buffer_no_resizing@@@@YAHQEB_WAEAV?$__crt_win32_buffer@DU__crt_win32_buffer_no_resizing@@@@AEBV<lambda_f788ae46380686e8b737efdd8c720d07>@@I@Z 000000018005daa8 f i libucrt:getmodulefilenamea.obj
 0001:0005cbc4       ??$__acrt_wcs_to_mbs_cp@U__crt_win32_buffer_no_resizing@@@@YAHQEB_WAEAV?$__crt_win32_buffer@DU__crt_win32_buffer_no_resizing@@@@I@Z 000000018005dbc4 f i libucrt:getmodulefilenamea.obj
 0001:0005cbd4       ??0?$__crt_win32_buffer@DU__crt_win32_buffer_no_resizing@@@@QEAA@QEAD_K@Z 000000018005dbd4 f i libucrt:getmodulefilenamea.obj
 0001:0005cbf0       ??1?$__crt_win32_buffer@DU__crt_win32_buffer_no_resizing@@@@QEAA@XZ 000000018005dbf0 f i libucrt:getmodulefilenamea.obj
 0001:0005cbfc       ??R<lambda_f788ae46380686e8b737efdd8c720d07>@@QEBA@IQEB_WQEAD_K@Z 000000018005dbfc f i libucrt:getmodulefilenamea.obj
 0001:0005cc2c       ?_deallocate@?$__crt_win32_buffer@DU__crt_win32_buffer_no_resizing@@@@AEAAXXZ 000000018005dc2c f i libucrt:getmodulefilenamea.obj
 0001:0005cc38       ?allocate@?$__crt_win32_buffer@DU__crt_win32_buffer_no_resizing@@@@QEAAH_K@Z 000000018005dc38 f i libucrt:getmodulefilenamea.obj
 0001:0005cc68       ?allocate@__crt_win32_buffer_no_resizing@@SAHQEAPEAX_KAEBV__crt_win32_buffer_empty_debug_info@@@Z 000000018005dc68 f i libucrt:getmodulefilenamea.obj
 0001:0005cc80       ?capacity@?$__crt_win32_buffer@DU__crt_win32_buffer_no_resizing@@@@QEBA_KXZ 000000018005dc80 f i libucrt:getmodulefilenamea.obj
 0001:0005cc88       ?data@?$__crt_win32_buffer@DU__crt_win32_buffer_no_resizing@@@@QEAAPEADXZ 000000018005dc88 f i libucrt:getmodulefilenamea.obj
 0001:0005cc90       ?deallocate@__crt_win32_buffer_no_resizing@@SAXQEAXAEBV__crt_win32_buffer_empty_debug_info@@@Z 000000018005dc90 f i libucrt:getmodulefilenamea.obj
 0001:0005cc94       ?debug_info@?$__crt_win32_buffer@DU__crt_win32_buffer_no_resizing@@@@QEBAAEBV__crt_win32_buffer_empty_debug_info@@XZ 000000018005dc94 f i libucrt:getmodulefilenamea.obj
 0001:0005cc98       ?set_to_nullptr@?$__crt_win32_buffer@DU__crt_win32_buffer_no_resizing@@@@QEAAXXZ 000000018005dc98 f i libucrt:getmodulefilenamea.obj
 0001:0005ccb0       ?size@?$__crt_win32_buffer@DU__crt_win32_buffer_no_resizing@@@@QEAAX_K@Z 000000018005dcb0 f i libucrt:getmodulefilenamea.obj
 0001:0005ccb8       ?size@?$__crt_win32_buffer@DU__crt_win32_buffer_no_resizing@@@@QEBA_KXZ 000000018005dcb8 f i libucrt:getmodulefilenamea.obj
 0001:0005ccc0       __acrt_GetModuleFileNameA  000000018005dcc0 f   libucrt:getmodulefilenamea.obj
 0001:0005cfdc       ??$initialize_from_array@$$BY10BAA@E@?$dual_state_global@PEAE@__crt_state_management@@QEAAXAEAY10BAA@E@Z 000000018005dfdc f i libucrt:mbctype.obj
 0001:0005cfe0       ??$initialize_from_array@$$BY10BAB@E@?$dual_state_global@PEAE@__crt_state_management@@QEAAXAEAY10BAB@E@Z 000000018005dfe0 f i libucrt:mbctype.obj
 0001:0005d1ec       ?dangerous_get_state_array@?$dual_state_global@PEAE@__crt_state_management@@QEAAPEAPEAEXZ 000000018005e1ec f i libucrt:mbctype.obj
 0001:0005d1f0       ?dangerous_get_state_array@?$dual_state_global@PEAU__crt_multibyte_data@@@__crt_state_management@@QEAAPEAPEAU__crt_multibyte_data@@XZ 000000018005e1f0 f i libucrt:mbctype.obj
 0001:0005d274       ?initialize@?$dual_state_global@PEAU__crt_multibyte_data@@@__crt_state_management@@QEAAXQEAU__crt_multibyte_data@@@Z 000000018005e274 f i libucrt:mbctype.obj
 0001:0005d82c       ?value@?$dual_state_global@PEAE@__crt_state_management@@QEAAAEAPEAEXZ 000000018005e82c f i libucrt:mbctype.obj
 0001:0005d830       __acrt_initialize_multibyte 000000018005e830 f   libucrt:mbctype.obj
 0001:0005d890       __acrt_update_thread_multibyte_data 000000018005e890 f   libucrt:mbctype.obj
 0001:0005d8ac       __p__mbcasemap             000000018005e8ac f   libucrt:mbctype.obj
 0001:0005d8b4       __p__mbctype               000000018005e8b4 f   libucrt:mbctype.obj
 0001:0005d8bc       _getmbcp                   000000018005e8bc f   libucrt:mbctype.obj
 0001:0005d8f8       _setmbcp                   000000018005e8f8 f   libucrt:mbctype.obj
 0001:0005d920       _setmbcp_nolock            000000018005e920 f   libucrt:mbctype.obj
 0001:0005dcdc       _ismbbalnum                000000018005ecdc f   libucrt:ismbbyte.obj
 0001:0005dcf4       _ismbbalnum_l              000000018005ecf4 f   libucrt:ismbbyte.obj
 0001:0005dd10       _ismbbalpha                000000018005ed10 f   libucrt:ismbbyte.obj
 0001:0005dd28       _ismbbalpha_l              000000018005ed28 f   libucrt:ismbbyte.obj
 0001:0005dd44       _ismbbblank                000000018005ed44 f   libucrt:ismbbyte.obj
 0001:0005dd60       _ismbbblank_l              000000018005ed60 f   libucrt:ismbbyte.obj
 0001:0005dd80       _ismbbgraph                000000018005ed80 f   libucrt:ismbbyte.obj
 0001:0005dd98       _ismbbgraph_l              000000018005ed98 f   libucrt:ismbbyte.obj
 0001:0005ddb4       _ismbbkalnum               000000018005edb4 f   libucrt:ismbbyte.obj
 0001:0005ddc8       _ismbbkalnum_l             000000018005edc8 f   libucrt:ismbbyte.obj
 0001:0005dde0       _ismbbkana                 000000018005ede0 f   libucrt:ismbbyte.obj
 0001:0005dde8       _ismbbkana_l               000000018005ede8 f   libucrt:ismbbyte.obj
 0001:0005de50       _ismbbkprint               000000018005ee50 f   libucrt:ismbbyte.obj
 0001:0005de64       _ismbbkprint_l             000000018005ee64 f   libucrt:ismbbyte.obj
 0001:0005de7c       _ismbbkpunct               000000018005ee7c f   libucrt:ismbbyte.obj
 0001:0005de90       _ismbbkpunct_l             000000018005ee90 f   libucrt:ismbbyte.obj
 0001:0005dea8       _ismbblead                 000000018005eea8 f   libucrt:ismbbyte.obj
 0001:0005debc       _ismbblead_l               000000018005eebc f   libucrt:ismbbyte.obj
 0001:0005ded4       _ismbbprint                000000018005eed4 f   libucrt:ismbbyte.obj
 0001:0005deec       _ismbbprint_l              000000018005eeec f   libucrt:ismbbyte.obj
 0001:0005df08       _ismbbpunct                000000018005ef08 f   libucrt:ismbbyte.obj
 0001:0005df1c       _ismbbpunct_l              000000018005ef1c f   libucrt:ismbbyte.obj
 0001:0005df34       _ismbbtrail                000000018005ef34 f   libucrt:ismbbyte.obj
 0001:0005df48       _ismbbtrail_l              000000018005ef48 f   libucrt:ismbbyte.obj
 0001:0005df60       __acrt_initialize_command_line 000000018005ef60 f   libucrt:argv_data.obj
 0001:0005df88       __acrt_uninitialize_command_line 000000018005ef88 f   libucrt:argv_data.obj
 0001:0005df8c       __p___argc                 000000018005ef8c f   libucrt:argv_data.obj
 0001:0005df94       __p___argv                 000000018005ef94 f   libucrt:argv_data.obj
 0001:0005df9c       __p___wargv                000000018005ef9c f   libucrt:argv_data.obj
 0001:0005dfa4       __p__acmdln                000000018005efa4 f   libucrt:argv_data.obj
 0001:0005dfac       __p__pgmptr                000000018005efac f   libucrt:argv_data.obj
 0001:0005dfb4       __p__wcmdln                000000018005efb4 f   libucrt:argv_data.obj
 0001:0005dfbc       __p__wpgmptr               000000018005efbc f   libucrt:argv_data.obj
 0001:0005dfc4       _get_pgmptr                000000018005efc4 f   libucrt:argv_data.obj
 0001:0005dffc       _get_wpgmptr               000000018005effc f   libucrt:argv_data.obj
 0001:0005e0c0       __acrt_MultiByteToWideChar 000000018005f0c0 f   libucrt:multibytetowidechar.obj
 0001:0005e1d8       __acrt_WideCharToMultiByte 000000018005f1d8 f   libucrt:widechartomultibyte.obj
 0001:0005e358       __dcrt_get_narrow_environment_from_os 000000018005f358 f   libucrt:get_environment_from_os.obj
 0001:0005e468       __dcrt_get_wide_environment_from_os 000000018005f468 f   libucrt:get_environment_from_os.obj
 0001:0005ef00       ??$get_or_create_environment_nolock@$$V@?$__crt_char_traits@D@@SAPEAPEADXZ 000000018005ff00 f i libucrt:setenv.obj
 0001:0005ef08       ??$get_or_create_environment_nolock@$$V@?$__crt_char_traits@_W@@SAPEAPEA_WXZ 000000018005ff08 f i libucrt:setenv.obj
 0001:0005ef10       ??$set_environment_variable@AEBQEADQEAD@?$__crt_char_traits@D@@SAHAEBQEAD$$QEBQEAD@Z 000000018005ff10 f i libucrt:setenv.obj
 0001:0005ef1c       ??$set_environment_variable@AEBQEA_WQEA_W@?$__crt_char_traits@_W@@SAHAEBQEA_W$$QEBQEA_W@Z 000000018005ff1c f i libucrt:setenv.obj
 0001:0005ef2c       ??$tcschr@AEBQEADD@?$__crt_char_traits@D@@SAPEADAEBQEAD$$QEAD@Z 000000018005ff2c f i libucrt:setenv.obj
 0001:0005ef38       ??$tcschr@AEBQEA_WD@?$__crt_char_traits@_W@@SAPEA_WAEBQEA_W$$QEAD@Z 000000018005ff38 f i libucrt:setenv.obj
 0001:0005ef44       ??$tcscpy_s@AEAPEADAEB_KAEAPEAD@?$__crt_char_traits@D@@SAHAEAPEADAEB_K0@Z 000000018005ff44 f i libucrt:setenv.obj
 0001:0005ef54       ??$tcscpy_s@AEAPEA_WAEB_KAEAPEA_W@?$__crt_char_traits@_W@@SAHAEAPEA_WAEB_K0@Z 000000018005ff54 f i libucrt:setenv.obj
 0001:0005ef64       ??$tcscpy_s@AEBQEADAEB_KAEBQEAD@?$__crt_char_traits@D@@SAHAEBQEADAEB_K0@Z 000000018005ff64 f i libucrt:setenv.obj
 0001:0005ef74       ??$tcscpy_s@AEBQEA_WAEB_KAEBQEA_W@?$__crt_char_traits@_W@@SAHAEBQEA_WAEB_K0@Z 000000018005ff74 f i libucrt:setenv.obj
 0001:0005ef84       ??$tcslen@AEBQEAD@?$__crt_char_traits@D@@SA_KAEBQEAD@Z 000000018005ff84 f i libucrt:setenv.obj
 0001:0005ef98       ??$tcslen@AEBQEA_W@?$__crt_char_traits@_W@@SA_KAEBQEA_W@Z 000000018005ff98 f i libucrt:setenv.obj
 0001:0005efac       ??$tcsnicoll@AEBQEBDAEAPEADAEB_K@?$__crt_char_traits@D@@SAHAEBQEBDAEAPEADAEB_K@Z 000000018005ffac f i libucrt:setenv.obj
 0001:0005efbc       ??$tcsnicoll@AEBQEB_WAEAPEA_WAEB_K@?$__crt_char_traits@_W@@SAHAEBQEB_WAEAPEA_WAEB_K@Z 000000018005ffbc f i libucrt:setenv.obj
 0001:0005effc       ?strchr@@YAPEADQEADH@Z     000000018005fffc f i libucrt:setenv.obj
 0001:0005f004       ?wcschr@@YAPEA_WPEA_W_W@Z  0000000180060004 f i libucrt:setenv.obj
 0001:0005f00c       __dcrt_set_variable_in_narrow_environment_nolock 000000018006000c f   libucrt:setenv.obj
 0001:0005f014       __dcrt_set_variable_in_wide_environment_nolock 0000000180060014 f   libucrt:setenv.obj
 0001:0005f01c       __acrt_getheap             000000018006001c f   libucrt:heap_handle.obj
 0001:0005f024       __acrt_initialize_heap     0000000180060024 f   libucrt:heap_handle.obj
 0001:0005f040       __acrt_uninitialize_heap   0000000180060040 f   libucrt:heap_handle.obj
 0001:0005f04c       _get_heap_handle           000000018006004c f   libucrt:heap_handle.obj
 0001:0005f054       __acrt_execute_initializers 0000000180060054 f   libucrt:shared_initialization.obj
 0001:0005f0e8       __acrt_execute_uninitializers 00000001800600e8 f   libucrt:shared_initialization.obj
 0001:0005f130       ??$__crt_fast_decode_pointer@P6AHPEAU_exception@@@Z@@YAP6AHPEAU_exception@@@ZQ6AH0@Z@Z 0000000180060130 f i libucrt:matherr.obj
 0001:0005f148       ??$__crt_fast_encode_pointer@P6AHPEAU_exception@@@Z@@YAP6AHPEAU_exception@@@ZQ6AH0@Z@Z 0000000180060148 f i libucrt:matherr.obj
 0001:0005f168       ?initialize@?$dual_state_global@P6AHPEAU_exception@@@Z@__crt_state_management@@QEAAXQ6AHPEAU_exception@@@Z@Z 0000000180060168 f i libucrt:matherr.obj
 0001:0005f178       ?value@?$dual_state_global@P6AHPEAU_exception@@@Z@__crt_state_management@@QEAAAEAP6AHPEAU_exception@@@ZXZ 0000000180060178 f i libucrt:matherr.obj
 0001:0005f17c       __acrt_has_user_matherr    000000018006017c f   libucrt:matherr.obj
 0001:0005f19c       __acrt_initialize_user_matherr 000000018006019c f   libucrt:matherr.obj
 0001:0005f1a4       __acrt_invoke_user_matherr 00000001800601a4 f   libucrt:matherr.obj
 0001:0005f1e0       __setusermatherr           00000001800601e0 f   libucrt:matherr.obj
 0001:0005f208       _isctype                   0000000180060208 f   libucrt:isctype.obj
 0001:0005f238       _isctype_l                 0000000180060238 f   libucrt:isctype.obj
 0001:0005f340       __acrt_add_locale_ref      0000000180060340 f   libucrt:locale_refcounting.obj
 0001:0005f3cc       __acrt_free_locale         00000001800603cc f   libucrt:locale_refcounting.obj
 0001:0005f544       __acrt_locale_add_lc_time_reference 0000000180060544 f   libucrt:locale_refcounting.obj
 0001:0005f56c       __acrt_locale_free_lc_time_if_unreferenced 000000018006056c f   libucrt:locale_refcounting.obj
 0001:0005f5a4       __acrt_locale_release_lc_time_reference 00000001800605a4 f   libucrt:locale_refcounting.obj
 0001:0005f5cc       __acrt_release_locale_ref  00000001800605cc f   libucrt:locale_refcounting.obj
 0001:0005f674       __acrt_update_thread_locale_data 0000000180060674 f   libucrt:locale_refcounting.obj
 0001:0005f6e4       _updatetlocinfoEx_nolock   00000001800606e4 f   libucrt:locale_refcounting.obj
 0001:0005f74c       ??$?RG@__crt_internal_free_policy@@QEBAXQEBG@Z 000000018006074c f i libucrt:initctype.obj
 0001:0005f754       ??$?RJ@__crt_internal_free_policy@@QEBAXQEBJ@Z 0000000180060754 f i libucrt:initctype.obj
 0001:0005f75c       ??0?$__crt_unique_heap_ptr@GU__crt_internal_free_policy@@@@QEAA@QEAG@Z 000000018006075c f i libucrt:initctype.obj
 0001:0005f764       ??0?$__crt_unique_heap_ptr@JU__crt_internal_free_policy@@@@QEAA@QEAJ@Z 0000000180060764 f i libucrt:initctype.obj
 0001:0005f76c       ??1?$__crt_unique_heap_ptr@GU__crt_internal_free_policy@@@@QEAA@XZ 000000018006076c f i libucrt:initctype.obj
 0001:0005f788       ??1?$__crt_unique_heap_ptr@JU__crt_internal_free_policy@@@@QEAA@XZ 0000000180060788 f i libucrt:initctype.obj
 0001:0005f7a4       ?detach@?$__crt_unique_heap_ptr@GU__crt_internal_free_policy@@@@QEAAPEAGXZ 00000001800607a4 f i libucrt:initctype.obj
 0001:0005f7ac       ?detach@?$__crt_unique_heap_ptr@JU__crt_internal_free_policy@@@@QEAAPEAJXZ 00000001800607ac f i libucrt:initctype.obj
 0001:0005f7b4       ?release@?$__crt_unique_heap_ptr@GU__crt_internal_free_policy@@@@QEAAXXZ 00000001800607b4 f i libucrt:initctype.obj
 0001:0005f7d0       ?release@?$__crt_unique_heap_ptr@JU__crt_internal_free_policy@@@@QEAAXXZ 00000001800607d0 f i libucrt:initctype.obj
 0001:0005f7ec       ___lc_codepage_func        00000001800607ec f   libucrt:initctype.obj
 0001:0005f81c       ___lc_collate_cp_func      000000018006081c f   libucrt:initctype.obj
 0001:0005f84c       ___lc_locale_name_func     000000018006084c f   libucrt:initctype.obj
 0001:0005f880       ___mb_cur_max_func         0000000180060880 f   libucrt:initctype.obj
 0001:0005f8b0       ___mb_cur_max_l_func       00000001800608b0 f   libucrt:initctype.obj
 0001:0005f8c0       __acrt_locale_initialize_ctype 00000001800608c0 f   libucrt:initctype.obj
 0001:0005ff24       ??$?RUlconv@@@__crt_internal_free_policy@@QEBAXQEBUlconv@@@Z 0000000180060f24 f i libucrt:initmon.obj
 0001:0005ff2c       ??0?$__crt_unique_heap_ptr@Ulconv@@U__crt_internal_free_policy@@@@QEAA@QEAUlconv@@@Z 0000000180060f2c f i libucrt:initmon.obj
 0001:0005ff34       ??1?$__crt_unique_heap_ptr@Ulconv@@U__crt_internal_free_policy@@@@QEAA@XZ 0000000180060f34 f i libucrt:initmon.obj
 0001:0005ff50       ?detach@?$__crt_unique_heap_ptr@Ulconv@@U__crt_internal_free_policy@@@@QEAAPEAUlconv@@XZ 0000000180060f50 f i libucrt:initmon.obj
 0001:0005ff58       ?release@?$__crt_unique_heap_ptr@Ulconv@@U__crt_internal_free_policy@@@@QEAAXXZ 0000000180060f58 f i libucrt:initmon.obj
 0001:0005ff74       __acrt_locale_free_monetary 0000000180060f74 f   libucrt:initmon.obj
 0001:00060080       __acrt_locale_initialize_monetary 0000000180061080 f   libucrt:initmon.obj
 0001:000605d0       __acrt_locale_free_numeric 00000001800615d0 f   libucrt:initnum.obj
 0001:0006063c       __acrt_locale_initialize_numeric 000000018006163c f   libucrt:initnum.obj
 0001:00060958       ??$?RU__crt_lc_time_data@@@__crt_internal_free_policy@@QEBAXQEBU__crt_lc_time_data@@@Z 0000000180061958 f i libucrt:inittime.obj
 0001:000609a8       ??0?$__crt_unique_heap_ptr@U__crt_lc_time_data@@U__crt_internal_free_policy@@@@QEAA@QEAU__crt_lc_time_data@@@Z 00000001800619a8 f i libucrt:inittime.obj
 0001:000609b0       ??1?$__crt_unique_heap_ptr@U__crt_lc_time_data@@U__crt_internal_free_policy@@@@QEAA@XZ 00000001800619b0 f i libucrt:inittime.obj
 0001:000609cc       ??B?$__crt_unique_heap_ptr@U__crt_lc_time_data@@U__crt_internal_free_policy@@@@QEBA_NXZ 00000001800619cc f i libucrt:inittime.obj
 0001:000609d4       ?detach@?$__crt_unique_heap_ptr@U__crt_lc_time_data@@U__crt_internal_free_policy@@@@QEAAPEAU__crt_lc_time_data@@XZ 00000001800619d4 f i libucrt:inittime.obj
 0001:00060a10       ?get@?$__crt_unique_heap_ptr@U__crt_lc_time_data@@U__crt_internal_free_policy@@@@QEBAPEAU__crt_lc_time_data@@XZ 0000000180061a10 f i libucrt:inittime.obj
 0001:00060dd4       ?is_valid@?$__crt_unique_heap_ptr@U__crt_lc_time_data@@U__crt_internal_free_policy@@@@QEBA_NXZ 0000000180061dd4 f i libucrt:inittime.obj
 0001:00060ddc       ?release@?$__crt_unique_heap_ptr@U__crt_lc_time_data@@U__crt_internal_free_policy@@@@QEAAXXZ 0000000180061ddc f i libucrt:inittime.obj
 0001:00060df8       __acrt_locale_free_time    0000000180061df8 f   libucrt:inittime.obj
 0001:00060f00       __acrt_locale_initialize_time 0000000180061f00 f   libucrt:inittime.obj
 0001:00061018       wcscat_s                   0000000180062018 f   libucrt:wcscat_s.obj
 0001:00061188       wcsncat_s                  0000000180062188 f   libucrt:wcsncat_s.obj
 0001:00061280       wcscspn                    0000000180062280 f   libucrt:wcscspn.obj
 0001:000612c0       wcspbrk                    00000001800622c0 f   libucrt:wcspbrk.obj
 0001:000612f4       __acrt_GetStringTypeA      00000001800622f4 f   libucrt:getstringtypea.obj
 0001:00061cd0       __acrt_get_qualified_locale 0000000180062cd0 f   libucrt:get_qualified_locale.obj
 0001:000627e8       __acrt_get_qualified_locale_downlevel 00000001800637e8 f   libucrt:getqloc_downlevel.obj
 0001:00062a68       localeconv                 0000000180063a68 f   libucrt:localeconv.obj
 0001:00062a9c       _query_new_mode            0000000180063a9c f   libucrt:new_mode.obj
 0001:00062aa4       _set_new_mode              0000000180063aa4 f   libucrt:new_mode.obj
 0001:00062bb8       __acrt_fp_strflt_to_string 0000000180063bb8 f   libucrt:_fptostr.obj
 0001:00063e10       ??0big_integer@__crt_strtox@@QEAA@AEBU01@@Z 0000000180064e10 f i libucrt:cfout.obj
 0001:00063e40       ??0big_integer@__crt_strtox@@QEAA@XZ 0000000180064e40 f i libucrt:cfout.obj
 0001:00063ef0       ??4big_integer@__crt_strtox@@QEAAAEAU01@AEBU01@@Z 0000000180064ef0 f i libucrt:cfout.obj
 0001:00063f20       ??8__crt_strtox@@YA_NAEBUbig_integer@0@0@Z 0000000180064f20 f i libucrt:cfout.obj
 0001:00063f50       ??9__crt_strtox@@YA_NAEBUbig_integer@0@0@Z 0000000180064f50 f i libucrt:cfout.obj
 0001:00063f90       ?add_carry@__crt_strtox@@YAIAEAIII@Z 0000000180064f90 f i libucrt:cfout.obj
 0001:00063fb0       ?add_multiply_carry@__crt_strtox@@YAIAEAIIII@Z 0000000180064fb0 f i libucrt:cfout.obj
 0001:00063fd0       ?bit_scan_reverse@__crt_strtox@@YAII@Z 0000000180064fd0 f i libucrt:cfout.obj
 0001:00063ff0       ?count_sequential_high_zeroes@__crt_strtox@@YAII@Z 0000000180064ff0 f i libucrt:cfout.obj
 0001:00064010       ?divide@__crt_strtox@@YA_KAEAUbig_integer@1@AEBU21@@Z 0000000180065010 f i libucrt:cfout.obj
 0001:000644b0       ?is_zero@__crt_strtox@@YA_NAEBUbig_integer@1@@Z 00000001800654b0 f i libucrt:cfout.obj
 0001:000644c0       ?make_big_integer@__crt_strtox@@YA?AUbig_integer@1@_K@Z 00000001800654c0 f i libucrt:cfout.obj
 0001:000644e0       ?make_big_integer_power_of_two@__crt_strtox@@YA?AUbig_integer@1@I@Z 00000001800654e0 f i libucrt:cfout.obj
 0001:00064550       ?multiply@__crt_strtox@@YA_NAEAUbig_integer@1@AEBU21@@Z 0000000180065550 f i libucrt:cfout.obj
 0001:000648f0       ?multiply@__crt_strtox@@YA_NAEAUbig_integer@1@I@Z 00000001800658f0 f i libucrt:cfout.obj
 0001:000649e0       ?multiply_64_32@__crt_strtox@@YA_K_KI@Z 00000001800659e0 f i libucrt:cfout.obj
 0001:000649f0       ?multiply_by_power_of_ten@__crt_strtox@@YA_NAEAUbig_integer@1@I@Z 00000001800659f0 f i libucrt:cfout.obj
 0001:00064f60       ?multiply_core@__crt_strtox@@YAIQEAIII@Z 0000000180065f60 f i libucrt:cfout.obj
 0001:00064fb0       ?shift_left@__crt_strtox@@YA_NAEAUbig_integer@1@I@Z 0000000180065fb0 f i libucrt:cfout.obj
 0001:0006512c       __acrt_fltout              000000018006612c f   libucrt:cfout.obj
 0001:00066444       __fpe_flt_rounds           0000000180067444 f   libucrt:fegetround.obj
 0001:0006648c       fegetround                 000000018006748c f   libucrt:fegetround.obj
 0001:000664a0       ?__c32rtomb_utf8@__crt_mbstring@@YA_KPEAD_UPEAU_Mbstatet@@AEAV__crt_cached_ptd_host@@@Z 00000001800674a0 f   libucrt:c32rtomb.obj
 0001:00066544       c32rtomb                   0000000180067544 f   libucrt:c32rtomb.obj
 0001:00066608       ?__mbrtowc_utf8@__crt_mbstring@@YA_KPEA_WPEBD_KPEAU_Mbstatet@@AEAV__crt_cached_ptd_host@@@Z 0000000180067608 f   libucrt:mbrtowc.obj
 0001:0006664c       ?__mbsrtowcs_utf8@__crt_mbstring@@YA_KPEA_WPEAPEBD_KPEAU_Mbstatet@@AEAV__crt_cached_ptd_host@@@Z 000000018006764c f   libucrt:mbrtowc.obj
 0001:00066c7c       btowc                      0000000180067c7c f   libucrt:mbrtowc.obj
 0001:00066d54       mbrlen                     0000000180067d54 f   libucrt:mbrtowc.obj
 0001:00066e1c       mbrtowc                    0000000180067e1c f   libucrt:mbrtowc.obj
 0001:00066f04       mbsrtowcs                  0000000180067f04 f   libucrt:mbrtowc.obj
 0001:00066fa8       mbsrtowcs_s                0000000180067fa8 f   libucrt:mbrtowc.obj
 0001:00067510       __acrt_stdio_flush_and_write_narrow_nolock 0000000180068510 f   libucrt:_flsbuf.obj
 0001:000675dc       __acrt_stdio_flush_and_write_wide_nolock 00000001800685dc f   libucrt:_flsbuf.obj
 0001:000676a8       _isatty                    00000001800686a8 f   libucrt:isatty.obj
 0001:00067708       ??$?RU__crt_lowio_handle_data@@@__crt_internal_free_policy@@QEBAXQEBU__crt_lowio_handle_data@@@Z 0000000180068708 f i libucrt:osfinfo.obj
 0001:00067710       ??0?$__crt_unique_heap_ptr@U__crt_lowio_handle_data@@U__crt_internal_free_policy@@@@QEAA@QEAU__crt_lowio_handle_data@@@Z 0000000180068710 f i libucrt:osfinfo.obj
 0001:00067718       ??1?$__crt_unique_heap_ptr@U__crt_lowio_handle_data@@U__crt_internal_free_policy@@@@QEAA@XZ 0000000180068718 f i libucrt:osfinfo.obj
 0001:00067734       ??B?$__crt_unique_heap_ptr@U__crt_lowio_handle_data@@U__crt_internal_free_policy@@@@QEBA_NXZ 0000000180068734 f i libucrt:osfinfo.obj
 0001:0006773c       ?detach@?$__crt_unique_heap_ptr@U__crt_lowio_handle_data@@U__crt_internal_free_policy@@@@QEAAPEAU__crt_lowio_handle_data@@XZ 000000018006873c f i libucrt:osfinfo.obj
 0001:00067744       ?get@?$__crt_unique_heap_ptr@U__crt_lowio_handle_data@@U__crt_internal_free_policy@@@@QEBAPEAU__crt_lowio_handle_data@@XZ 0000000180068744 f i libucrt:osfinfo.obj
 0001:00067748       ?is_valid@?$__crt_unique_heap_ptr@U__crt_lowio_handle_data@@U__crt_internal_free_policy@@@@QEBA_NXZ 0000000180068748 f i libucrt:osfinfo.obj
 0001:00067750       ?release@?$__crt_unique_heap_ptr@U__crt_lowio_handle_data@@U__crt_internal_free_policy@@@@QEAAXXZ 0000000180068750 f i libucrt:osfinfo.obj
 0001:0006776c       __acrt_lowio_create_handle_array 000000018006876c f   libucrt:osfinfo.obj
 0001:00067814       __acrt_lowio_destroy_handle_array 0000000180068814 f   libucrt:osfinfo.obj
 0001:00067864       __acrt_lowio_ensure_fh_exists 0000000180068864 f   libucrt:osfinfo.obj
 0001:0006790c       __acrt_lowio_lock_fh       000000018006890c f   libucrt:osfinfo.obj
 0001:00067934       __acrt_lowio_set_os_handle 0000000180068934 f   libucrt:osfinfo.obj
 0001:000679f4       __acrt_lowio_unlock_fh     00000001800689f4 f   libucrt:osfinfo.obj
 0001:00067a1c       _alloc_osfhnd              0000000180068a1c f   libucrt:osfinfo.obj
 0001:00067b5c       _free_osfhnd               0000000180068b5c f   libucrt:osfinfo.obj
 0001:00067c18       _get_osfhandle             0000000180068c18 f   libucrt:osfinfo.obj
 0001:00067c90       _open_osfhandle            0000000180068c90 f   libucrt:osfinfo.obj
 0001:00067d90       __acrt_GetStringTypeW      0000000180068d90 f   libucrt:getstringtypew.obj
 0001:00067e68       __acrt_DownlevelLCIDToLocaleName 0000000180068e68 f   libucrt:lcidtoname_downlevel.obj
 0001:00067f50       __acrt_DownlevelLocaleNameToLCID 0000000180068f50 f   libucrt:lcidtoname_downlevel.obj
 0001:00068138       _commit                    0000000180069138 f   libucrt:commit.obj
 0001:00068b78       _utf8_no_of_trailbytes     0000000180069b78 f i libucrt:write.obj
 0001:00068b88       _write                     0000000180069b88 f   libucrt:write.obj
 0001:00068c20       _write_internal            0000000180069c20 f   libucrt:write.obj
 0001:00068d40       _write_nolock              0000000180069d40 f   libucrt:write.obj
 0001:00069048       __ascii_wcsnicmp           000000018006a048 f   libucrt:wcsnicmp.obj
 0001:00069094       _wcsnicmp                  000000018006a094 f   libucrt:wcsnicmp.obj
 0001:000690dc       _wcsnicmp_l                000000018006a0dc f   libucrt:wcsnicmp.obj
 0001:00069230       __ascii_strnicmp           000000018006a230 f   libucrt:strnicmp.obj
 0001:0006927c       _strnicmp                  000000018006a27c f   libucrt:strnicmp.obj
 0001:000692cc       _strnicmp_l                000000018006a2cc f   libucrt:strnicmp.obj
 0001:00069664       ??$tsopen_nolock@PEAHAEBQEAHAEBQEBDAEBHAEBHAEBHAEBH@?$__crt_char_traits@D@@SAH$$QEAPEAHAEBQEAHAEBQEBDAEBH333@Z 000000018006a664 f i libucrt:open.obj
 0001:0006969c       ??$tsopen_nolock@PEAHAEBQEAHAEBQEB_WAEBHAEBHAEBHAEBH@?$__crt_char_traits@_W@@SAH$$QEAPEAHAEBQEAHAEBQEB_WAEBH333@Z 000000018006a69c f i libucrt:open.obj
 0001:000696d4       ??$tsopen_nolock@PEAHPEAHAEBQEBDAEBHHAEBHH@?$__crt_char_traits@D@@SAH$$QEAPEAH0AEBQEBDAEBH$$QEAH23@Z 000000018006a6d4 f i libucrt:open.obj
 0001:0006970c       ??$tsopen_nolock@PEAHPEAHAEBQEB_WAEBHHAEBHH@?$__crt_char_traits@_W@@SAH$$QEAPEAH0AEBQEB_WAEBH$$QEAH23@Z 000000018006a70c f i libucrt:open.obj
 0001:00069e50       _open                      000000018006ae50 f   libucrt:open.obj
 0001:00069e74       _sopen                     000000018006ae74 f   libucrt:open.obj
 0001:00069eb4       _sopen_dispatch            000000018006aeb4 f   libucrt:open.obj
 0001:00069ebc       _sopen_nolock              000000018006aebc f   libucrt:open.obj
 0001:00069fd8       _sopen_s                   000000018006afd8 f   libucrt:open.obj
 0001:0006a00c       _wopen                     000000018006b00c f   libucrt:open.obj
 0001:0006a030       _wsopen                    000000018006b030 f   libucrt:open.obj
 0001:0006a070       _wsopen_dispatch           000000018006b070 f   libucrt:open.obj
 0001:0006a078       _wsopen_nolock             000000018006b078 f   libucrt:open.obj
 0001:0006a468       _wsopen_s                  000000018006b468 f   libucrt:open.obj
 0001:0006a49c       __p__commode               000000018006b49c f   libucrt:ncommode.obj
 0001:0006a4a4       ??$parse_integer_from_string@JDPEAPEAD@__crt_strtox@@YAJQEBDQEAPEADHQEAU__crt_locale_pointers@@@Z 000000018006b4a4 f i libucrt:strtox.obj
 0001:0006a560       ??$parse_integer_from_string@J_WPEAPEA_W@__crt_strtox@@YAJQEB_WQEAPEA_WHQEAU__crt_locale_pointers@@@Z 000000018006b560 f i libucrt:strtox.obj
 0001:0006a61c       ??$parse_integer_from_string@KDPEAPEAD@__crt_strtox@@YAKQEBDQEAPEADHQEAU__crt_locale_pointers@@@Z 000000018006b61c f i libucrt:strtox.obj
 0001:0006a6d8       ??$parse_integer_from_string@K_WPEAPEA_W@__crt_strtox@@YAKQEB_WQEAPEA_WHQEAU__crt_locale_pointers@@@Z 000000018006b6d8 f i libucrt:strtox.obj
 0001:0006a794       ??$parse_integer_from_string@_JDPEAPEAD@__crt_strtox@@YA_JQEBDQEAPEADHQEAU__crt_locale_pointers@@@Z 000000018006b794 f i libucrt:strtox.obj
 0001:0006a854       ??$parse_integer_from_string@_J_WPEAPEA_W@__crt_strtox@@YA_JQEB_WQEAPEA_WHQEAU__crt_locale_pointers@@@Z 000000018006b854 f i libucrt:strtox.obj
 0001:0006a914       ??$parse_integer_from_string@_KDPEAPEAD@__crt_strtox@@YA_KQEBDQEAPEADHQEAU__crt_locale_pointers@@@Z 000000018006b914 f i libucrt:strtox.obj
 0001:0006a9d4       ??$parse_integer_from_string@_K_WPEAPEA_W@__crt_strtox@@YA_KQEB_WQEAPEA_WHQEAU__crt_locale_pointers@@@Z 000000018006b9d4 f i libucrt:strtox.obj
 0001:0006aa94       _strtoi64                  000000018006ba94 f   libucrt:strtox.obj
 0001:0006ab48       _strtoi64_l                000000018006bb48 f   libucrt:strtox.obj
 0001:0006ac08       _strtoimax_l               000000018006bc08 f   libucrt:strtox.obj
 0001:0006acc8       _strtol_l                  000000018006bcc8 f   libucrt:strtox.obj
 0001:0006ad84       _strtoll_l                 000000018006bd84 f   libucrt:strtox.obj
 0001:0006ae44       _strtoui64                 000000018006be44 f   libucrt:strtox.obj
 0001:0006aef8       _strtoui64_l               000000018006bef8 f   libucrt:strtox.obj
 0001:0006afb8       _strtoul_l                 000000018006bfb8 f   libucrt:strtox.obj
 0001:0006b074       _strtoull_l                000000018006c074 f   libucrt:strtox.obj
 0001:0006b134       _strtoumax_l               000000018006c134 f   libucrt:strtox.obj
 0001:0006b1f4       _wcstoi64                  000000018006c1f4 f   libucrt:strtox.obj
 0001:0006b2a8       _wcstoi64_l                000000018006c2a8 f   libucrt:strtox.obj
 0001:0006b368       _wcstoimax_l               000000018006c368 f   libucrt:strtox.obj
 0001:0006b428       _wcstol_l                  000000018006c428 f   libucrt:strtox.obj
 0001:0006b4e4       _wcstoll_l                 000000018006c4e4 f   libucrt:strtox.obj
 0001:0006b5a4       _wcstoui64                 000000018006c5a4 f   libucrt:strtox.obj
 0001:0006b658       _wcstoui64_l               000000018006c658 f   libucrt:strtox.obj
 0001:0006b718       _wcstoul_l                 000000018006c718 f   libucrt:strtox.obj
 0001:0006b7d4       _wcstoull_l                000000018006c7d4 f   libucrt:strtox.obj
 0001:0006b894       _wcstoumax_l               000000018006c894 f   libucrt:strtox.obj
 0001:0006b954       strtoimax                  000000018006c954 f   libucrt:strtox.obj
 0001:0006ba08       strtol                     000000018006ca08 f   libucrt:strtox.obj
 0001:0006babc       strtoll                    000000018006cabc f   libucrt:strtox.obj
 0001:0006bb70       strtoul                    000000018006cb70 f   libucrt:strtox.obj
 0001:0006bc24       strtoull                   000000018006cc24 f   libucrt:strtox.obj
 0001:0006bcd8       strtoumax                  000000018006ccd8 f   libucrt:strtox.obj
 0001:0006bd8c       wcstoimax                  000000018006cd8c f   libucrt:strtox.obj
 0001:0006be40       wcstol                     000000018006ce40 f   libucrt:strtox.obj
 0001:0006bef4       wcstoll                    000000018006cef4 f   libucrt:strtox.obj
 0001:0006bfa8       wcstoul                    000000018006cfa8 f   libucrt:strtox.obj
 0001:0006c05c       wcstoull                   000000018006d05c f   libucrt:strtox.obj
 0001:0006c110       wcstoumax                  000000018006d110 f   libucrt:strtox.obj
 0001:0006cab4       ??$tcscpy_s@AEAPEADAEB_KAEBQEBD@?$__crt_char_traits@D@@SAHAEAPEADAEB_KAEBQEBD@Z 000000018006dab4 f i libucrt:getenv.obj
 0001:0006cac4       ??$tcscpy_s@AEAPEA_WAEB_KAEBQEB_W@?$__crt_char_traits@_W@@SAHAEAPEA_WAEB_KAEBQEB_W@Z 000000018006dac4 f i libucrt:getenv.obj
 0001:0006cad4       ??$tcscpy_s@AEBQEADAEB_KAEBQEBD@?$__crt_char_traits@D@@SAHAEBQEADAEB_KAEBQEBD@Z 000000018006dad4 f i libucrt:getenv.obj
 0001:0006cae4       ??$tcscpy_s@AEBQEA_WAEB_KAEBQEB_W@?$__crt_char_traits@_W@@SAHAEBQEA_WAEB_KAEBQEB_W@Z 000000018006dae4 f i libucrt:getenv.obj
 0001:0006caf4       ??$tcsnicoll@AEAPEADAEBQEBDAEB_K@?$__crt_char_traits@D@@SAHAEAPEADAEBQEBDAEB_K@Z 000000018006daf4 f i libucrt:getenv.obj
 0001:0006cb04       ??$tcsnicoll@AEAPEA_WAEBQEB_WAEB_K@?$__crt_char_traits@_W@@SAHAEAPEA_WAEBQEB_WAEB_K@Z 000000018006db04 f i libucrt:getenv.obj
 0001:0006cb14       ??$tcsnlen@AEBQEBDH@?$__crt_char_traits@D@@SA_KAEBQEBD$$QEAH@Z 000000018006db14 f i libucrt:getenv.obj
 0001:0006cb20       ??$tcsnlen@AEBQEB_WH@?$__crt_char_traits@_W@@SA_KAEBQEB_W$$QEAH@Z 000000018006db20 f i libucrt:getenv.obj
 0001:0006cb2c       _dupenv_s                  000000018006db2c f   libucrt:getenv.obj
 0001:0006cb4c       _wdupenv_s                 000000018006db4c f   libucrt:getenv.obj
 0001:0006cb6c       _wgetenv                   000000018006db6c f   libucrt:getenv.obj
 0001:0006cb74       _wgetenv_s                 000000018006db74 f   libucrt:getenv.obj
 0001:0006cb7c       getenv                     000000018006db7c f   libucrt:getenv.obj
 0001:0006cb84       getenv_s                   000000018006db84 f   libucrt:getenv.obj
 0001:0006cc90       qsort                      000000018006dc90 f   libucrt:qsort.obj
 0001:0006d180       strncpy_s                  000000018006e180 f   libucrt:strncpy_s.obj
 0001:0006d310       strpbrk                    000000018006e310 f   libucrt:strpbrk.obj
 0001:0006d6d8       _mbsdec                    000000018006e6d8 f   libucrt:mbsdec.obj
 0001:0006d6e0       _mbsdec_l                  000000018006e6e0 f   libucrt:mbsdec.obj
 0001:0006daa8       __acrt_LCMapStringA        000000018006eaa8 f   libucrt:lcmapstringa.obj
 0001:0006db58       _wcsnicoll                 000000018006eb58 f   libucrt:wcsnicol.obj
 0001:0006dba8       _wcsnicoll_l               000000018006eba8 f   libucrt:wcsnicol.obj
 0001:0006dc98       _strnicoll                 000000018006ec98 f   libucrt:strnicol.obj
 0001:0006dcb0       _strnicoll_l               000000018006ecb0 f   libucrt:strnicol.obj
 0001:0006ddb0       __acrt_SetEnvironmentVariableA 000000018006edb0 f   libucrt:setenvironmentvariablea.obj
 0001:0006e0cc       __acrt_GetLocaleInfoA      000000018006f0cc f   libucrt:getlocaleinfoa.obj
 0001:0006e7bc       _i64toa                    000000018006f7bc f   libucrt:xtoa.obj
 0001:0006e7f0       _i64toa_s                  000000018006f7f0 f   libucrt:xtoa.obj
 0001:0006e814       _i64tow                    000000018006f814 f   libucrt:xtoa.obj
 0001:0006e848       _i64tow_s                  000000018006f848 f   libucrt:xtoa.obj
 0001:0006e86c       _itoa                      000000018006f86c f   libucrt:xtoa.obj
 0001:0006e89c       _itoa_s                    000000018006f89c f   libucrt:xtoa.obj
 0001:0006e8bc       _itow                      000000018006f8bc f   libucrt:xtoa.obj
 0001:0006e8ec       _itow_s                    000000018006f8ec f   libucrt:xtoa.obj
 0001:0006e90c       _ltoa                      000000018006f90c f   libucrt:xtoa.obj
 0001:0006e93c       _ltoa_s                    000000018006f93c f   libucrt:xtoa.obj
 0001:0006e95c       _ltow                      000000018006f95c f   libucrt:xtoa.obj
 0001:0006e98c       _ltow_s                    000000018006f98c f   libucrt:xtoa.obj
 0001:0006e9ac       _ui64toa                   000000018006f9ac f   libucrt:xtoa.obj
 0001:0006e9d0       _ui64toa_s                 000000018006f9d0 f   libucrt:xtoa.obj
 0001:0006e9e4       _ui64tow                   000000018006f9e4 f   libucrt:xtoa.obj
 0001:0006ea08       _ui64tow_s                 000000018006fa08 f   libucrt:xtoa.obj
 0001:0006ea1c       _ultoa                     000000018006fa1c f   libucrt:xtoa.obj
 0001:0006ea40       _ultoa_s                   000000018006fa40 f   libucrt:xtoa.obj
 0001:0006ea54       _ultow                     000000018006fa54 f   libucrt:xtoa.obj
 0001:0006ea78       _ultow_s                   000000018006fa78 f   libucrt:xtoa.obj
 0001:0006ea8c       _controlfp_s               000000018006fa8c f   libucrt:contrlfp.obj
 0001:0006eaf0       fegetenv                   000000018006faf0 f   libucrt:fegetenv.obj
 0001:0006eb10       fesetenv                   000000018006fb10 f   libucrt:fesetenv.obj
 0001:0006eb68       feholdexcept               000000018006fb68 f   libucrt:feholdexcept.obj
 0001:0006ebb8       ceil                       000000018006fbb8 f   libucrt:ceil.obj
 0001:0006ec80       log10                      000000018006fc80 f   libucrt:log10.obj
 0001:0006f22c       ??$__acrt_fenv_shift_bits@W4__acrt_fenv_abstract_control@@@@YA?AW4__acrt_fenv_abstract_control@@W40@0I@Z 000000018007022c f i libucrt:_fenvutils.obj
 0001:0006f238       ??$__acrt_fenv_shift_bits@W4__acrt_fenv_abstract_status@@@@YA?AW4__acrt_fenv_abstract_status@@W40@0I@Z 0000000180070238 f i libucrt:_fenvutils.obj
 0001:0006f244       ??$__acrt_fenv_translate_bit@W4__acrt_fenv_abstract_control@@W4__acrt_fenv_machine_sse_control@@@@YA?AW4__acrt_fenv_abstract_control@@W4__acrt_fenv_machine_sse_control@@0W40@1@Z 0000000180070244 f i libucrt:_fenvutils.obj
 0001:0006f250       ??$__acrt_fenv_translate_bit@W4__acrt_fenv_abstract_status@@W4__acrt_fenv_machine_sse_status@@@@YA?AW4__acrt_fenv_abstract_status@@W4__acrt_fenv_machine_sse_status@@0W40@1@Z 0000000180070250 f i libucrt:_fenvutils.obj
 0001:0006f25c       ??$__acrt_fenv_translate_bit@W4__acrt_fenv_machine_sse_control@@W4__acrt_fenv_abstract_control@@@@YA?AW4__acrt_fenv_machine_sse_control@@W4__acrt_fenv_abstract_control@@0W40@1@Z 000000018007025c f i libucrt:_fenvutils.obj
 0001:0006f268       ??$__acrt_fenv_translate_bit@W4__acrt_fenv_machine_sse_status@@W4__acrt_fenv_abstract_status@@@@YA?AW4__acrt_fenv_machine_sse_status@@W4__acrt_fenv_abstract_status@@0W40@1@Z 0000000180070268 f i libucrt:_fenvutils.obj
 0001:0006f274       ??$__acrt_fenv_unshift_bits@W4__acrt_fenv_abstract_control@@@@YA?AW4__acrt_fenv_abstract_control@@W40@0I@Z 0000000180070274 f i libucrt:_fenvutils.obj
 0001:0006f280       ??$__acrt_fenv_unshift_bits@W4__acrt_fenv_abstract_status@@@@YA?AW4__acrt_fenv_abstract_status@@W40@0I@Z 0000000180070280 f i libucrt:_fenvutils.obj
 0001:0006f444       ??I@YA?AW4__acrt_fenv_abstract_control@@W40@0@Z 0000000180070444 f i libucrt:_fenvutils.obj
 0001:0006f44c       ??I@YA?AW4__acrt_fenv_abstract_status@@W40@0@Z 000000018007044c f i libucrt:_fenvutils.obj
 0001:0006f454       ??I@YA?AW4__acrt_fenv_machine_sse_control@@W40@0@Z 0000000180070454 f i libucrt:_fenvutils.obj
 0001:0006f45c       ??I@YA?AW4__acrt_fenv_machine_sse_status@@W40@0@Z 000000018007045c f i libucrt:_fenvutils.obj
 0001:0006f464       ??U@YA?AW4__acrt_fenv_abstract_control@@W40@0@Z 0000000180070464 f i libucrt:_fenvutils.obj
 0001:0006f46c       ??U@YA?AW4__acrt_fenv_abstract_status@@W40@0@Z 000000018007046c f i libucrt:_fenvutils.obj
 0001:0006f474       ??U@YA?AW4__acrt_fenv_machine_sse_control@@W40@0@Z 0000000180070474 f i libucrt:_fenvutils.obj
 0001:0006f47c       ??_5@YAAEAW4__acrt_fenv_abstract_control@@AEAW40@W40@@Z 000000018007047c f i libucrt:_fenvutils.obj
 0001:0006f484       ??_5@YAAEAW4__acrt_fenv_abstract_status@@AEAW40@W40@@Z 0000000180070484 f i libucrt:_fenvutils.obj
 0001:0006f48c       ??_5@YAAEAW4__acrt_fenv_machine_sse_control@@AEAW40@W40@@Z 000000018007048c f i libucrt:_fenvutils.obj
 0001:0006f494       ??_5@YAAEAW4__acrt_fenv_machine_sse_status@@AEAW40@W40@@Z 0000000180070494 f i libucrt:_fenvutils.obj
 0001:0006f49c       ?__acrt_fenv_shift_abstract_sse_control@@YA?AW4__acrt_fenv_abstract_control@@W41@@Z 000000018007049c f i libucrt:_fenvutils.obj
 0001:0006f4b0       ?__acrt_fenv_shift_abstract_sse_status@@YA?AW4__acrt_fenv_abstract_status@@W41@@Z 00000001800704b0 f i libucrt:_fenvutils.obj
 0001:0006f4bc       ?__acrt_fenv_unshift_abstract_sse_control@@YA?AW4__acrt_fenv_abstract_control@@W41@@Z 00000001800704bc f i libucrt:_fenvutils.obj
 0001:0006f4d4       ?__acrt_fenv_unshift_abstract_sse_status@@YA?AW4__acrt_fenv_abstract_status@@W41@@Z 00000001800704d4 f i libucrt:_fenvutils.obj
 0001:0006f794       __acrt_fenv_expand_round_control 0000000180070794 f   libucrt:_fenvutils.obj
 0001:0006f7ac       __acrt_fenv_get_common_round_control 00000001800707ac f   libucrt:_fenvutils.obj
 0001:0006f7b8       __acrt_fenv_get_control    00000001800707b8 f   libucrt:_fenvutils.obj
 0001:0006f89c       __acrt_fenv_get_fp_status_word_from_exception_mask 000000018007089c f   libucrt:_fenvutils.obj
 0001:0006f8a8       __acrt_fenv_get_status     00000001800708a8 f   libucrt:_fenvutils.obj
 0001:0006f900       __acrt_fenv_set_control    0000000180070900 f   libucrt:_fenvutils.obj
 0001:0006fa38       __acrt_fenv_set_status     0000000180070a38 f   libucrt:_fenvutils.obj
 0001:0006faac       ?reset_and_return@__crt_mbstring@@YA_K_KPEAU_Mbstatet@@@Z 0000000180070aac f   libucrt:common_utf8.obj
 0001:0006fab4       ?return_illegal_sequence@__crt_mbstring@@YA_KPEAU_Mbstatet@@AEAV__crt_cached_ptd_host@@@Z 0000000180070ab4 f   libucrt:common_utf8.obj
 0001:0006fac8       ?__mbrtoc32_utf8@__crt_mbstring@@YA_KPEA_UPEBD_KPEAU_Mbstatet@@AEAV__crt_cached_ptd_host@@@Z 0000000180070ac8 f   libucrt:mbrtoc32.obj
 0001:0006fca4       mbrtoc32                   0000000180070ca4 f   libucrt:mbrtoc32.obj
 0001:00070218       _lseek                     0000000180071218 f   libucrt:lseek.obj
 0001:000702b0       _lseek_internal            00000001800712b0 f   libucrt:lseek.obj
 0001:000702b8       _lseek_nolock              00000001800712b8 f   libucrt:lseek.obj
 0001:00070350       _lseek_nolock_internal     0000000180071350 f   libucrt:lseek.obj
 0001:00070358       _lseeki64                  0000000180071358 f   libucrt:lseek.obj
 0001:000703f4       _lseeki64_internal         00000001800713f4 f   libucrt:lseek.obj
 0001:000703fc       _lseeki64_nolock           00000001800713fc f   libucrt:lseek.obj
 0001:00070498       _lseeki64_nolock_internal  0000000180071498 f   libucrt:lseek.obj
 0001:000704a0       __acrt_stdio_allocate_buffer_nolock 00000001800714a0 f   libucrt:_getbuf.obj
 0001:000705e8       __acrt_report_runtime_error 00000001800715e8 f   libucrt:report_runtime_error.obj
 0001:00070748       _query_app_type            0000000180071748 f   libucrt:report_runtime_error.obj
 0001:00070750       _set_app_type              0000000180071750 f   libucrt:report_runtime_error.obj
 0001:000707f4       _putwch                    00000001800717f4 f   libucrt:putwch.obj
 0001:00070830       _putwch_nolock             0000000180071830 f   libucrt:putwch.obj
 0001:0007086c       _putwch_nolock_internal    000000018007186c f   libucrt:putwch.obj
 0001:00070f7c       _read                      0000000180071f7c f   libucrt:read.obj
 0001:0007109c       _read_nolock               000000018007209c f   libucrt:read.obj
 0001:000714ec       ??$__crt_interlocked_read@H@@YAHPEDH@Z 00000001800724ec f i libucrt:setmode.obj
 0001:000714f0       _get_fmode                 00000001800724f0 f   libucrt:setmode.obj
 0001:00071520       _set_fmode                 0000000180072520 f   libucrt:setmode.obj
 0001:00071560       _setmode                   0000000180072560 f   libucrt:setmode.obj
 0001:0007167c       _setmode_nolock            000000018007267c f   libucrt:setmode.obj
 0001:00071824       ??0__crt_seek_guard@@QEAA@H_J@Z 0000000180072824 f i libucrt:chsize.obj
 0001:0007187c       ??1__crt_seek_guard@@QEAA@XZ 000000018007287c f i libucrt:chsize.obj
 0001:000719c8       ?check@?$cached@K@__crt_cached_ptd_host@@QEBA_NK@Z 00000001800729c8 f i libucrt:chsize.obj
 0001:000719d8       _chsize                    00000001800729d8 f   libucrt:chsize.obj
 0001:000719f0       _chsize_nolock             00000001800729f0 f   libucrt:chsize.obj
 0001:00071a88       _chsize_nolock_internal    0000000180072a88 f   libucrt:chsize.obj
 0001:00071c1c       _chsize_s                  0000000180072c1c f   libucrt:chsize.obj
 0001:00071d6c       _umask                     0000000180072d6c f   libucrt:umask.obj
 0001:00071d80       _umask_s                   0000000180072d80 f   libucrt:umask.obj
 0001:00071dc0       __strncnt                  0000000180072dc0 f   libucrt:strncnt.obj
 0001:00071dd8       __acrt_CompareStringW      0000000180072dd8 f   libucrt:comparestringw.obj
 0001:0007221c       __acrt_CompareStringA      000000018007321c f   libucrt:comparestringa.obj
 0001:000723bc       _clearfp                   00000001800733bc f   libucrt:ieee.obj
 0001:00072428       _control87                 0000000180073428 f   libucrt:ieee.obj
 0001:00072430       _controlfp                 0000000180073430 f   libucrt:ieee.obj
 0001:0007243c       _fpreset                   000000018007343c f   libucrt:ieee.obj
 0001:00072504       _set_controlfp             0000000180073504 f   libucrt:ieee.obj
 0001:00072538       _statusfp                  0000000180073538 f   libucrt:ieee.obj
 0001:00072958       _handle_error              0000000180073958 f   libucrt:libm_error.obj
 0001:00072a80       _handle_errorf             0000000180073a80 f   libucrt:libm_error.obj
 0001:00072bb4       _handle_nan                0000000180073bb4 f   libucrt:libm_error.obj
 0001:00072bd0       _handle_nanf               0000000180073bd0 f   libucrt:libm_error.obj
 0001:00072be0       __acrt_initialize_fma3     0000000180073be0 f   libucrt:fma3_available.obj
 0001:00072c50       _get_FMA3_enable           0000000180073c50 f   libucrt:fma3_available.obj
 0001:00072c58       _set_FMA3_enable           0000000180073c58 f   libucrt:fma3_available.obj
 0001:00072c70       _log10_special             0000000180073c70 f   libucrt:log_special.obj
