 BugSplat

 Timestamp is 67194d36 (Wed Oct 23 19:23:34 2024)

 Preferred load address is 10000000

 Start         Length     Name                   Class
 0001:00000000 000001b0H .text$di                CODE
 0001:000001b0 0005c82aH .text$mn                CODE
 0001:0005c9da 00001173H .text$x                 CODE
 0001:0005db4d 00000123H .text$yd                CODE
 0002:00000000 000002b8H .idata$5                DATA
 0002:000002b8 00000008H .00cfg                  DATA
 0002:000002c0 00000004H .CRT$XCA                DATA
 0002:000002c4 00000004H .CRT$XCL                DATA
 0002:000002c8 00000028H .CRT$XCU                DATA
 0002:000002f0 00000004H .CRT$XCZ                DATA
 0002:000002f4 00000004H .CRT$XIA                DATA
 0002:000002f8 00000018H .CRT$XIC                DATA
 0002:00000310 00000004H .CRT$XIZ                DATA
 0002:00000314 00000004H .CRT$XLA                DATA
 0002:00000318 00000004H .CRT$XLZ                DATA
 0002:0000031c 00000004H .CRT$XPA                DATA
 0002:00000320 00000008H .CRT$XPX                DATA
 0002:00000328 00000004H .CRT$XPXA               DATA
 0002:0000032c 00000004H .CRT$XPZ                DATA
 0002:00000330 00000004H .CRT$XTA                DATA
 0002:00000334 0000000cH .CRT$XTZ                DATA
 0002:00000338 00000000H .gfids$y                DATA
 0002:00000340 0000ad80H .rdata                  DATA
 0002:0000b0c0 00000004H .rdata$CastGuardVftablesA DATA
 0002:0000b0c4 00000004H .rdata$CastGuardVftablesC DATA
 0002:0000b0c8 00000018H .rdata$T                DATA
 0002:0000b0e0 000009b4H .rdata$r                DATA
 0002:0000ba94 00000178H .rdata$sxdata           DATA
 0002:0000bc0c 000002b0H .rdata$voltmd           DATA
 0002:0000bebc 0000046cH .rdata$zzzdbg           DATA
 0002:0000c328 00000004H .rtc$IAA                DATA
 0002:0000c32c 00000004H .rtc$IZZ                DATA
 0002:0000c330 00000004H .rtc$TAA                DATA
 0002:0000c334 00000004H .rtc$TZZ                DATA
 0002:0000c338 00000008H .tls                    DATA
 0002:0000c340 00000014H .tls$                   DATA
 0002:0000c354 00000004H .tls$ZZZ                DATA
 0002:0000c358 0000211cH .xdata$x                DATA
 0002:0000e474 00000004H ATL$__a                 DATA
 0002:0000e478 00000008H ATL$__z                 DATA
 0002:0000e480 00000a1cH .edata                  DATA
 0002:0000ee9c 000000a0H .idata$2                DATA
 0002:0000ef3c 00000014H .idata$3                DATA
 0002:0000ef50 000002b8H .idata$4                DATA
 0002:0000f208 00000c2cH .idata$6                DATA
 0003:00000000 00000a80H .data                   DATA
 0003:00000a80 000001b8H .data$r                 DATA
 0003:00000c38 00000298H .data$rs                DATA
 0003:00000ed0 00004afcH .bss                    DATA
 0004:00000000 00000120H .rsrc$01                DATA
 0004:00000120 00000b30H .rsrc$02                DATA

  Address         Publics by Value              Rva+Base       Lib:Object

 0000:00000000       ___x64_code_ranges_to_entry_points 00000000     <absolute>
 0000:00000000       __except_list              00000000     <absolute>
 0000:00000000       ___guard_fids_count        00000000     <absolute>
 0000:00000000       ___guard_iat_count         00000000     <absolute>
 0000:00000000       ___hybrid_code_map_count   00000000     <absolute>
 0000:00000000       ___x64_code_ranges_to_entry_points_count 00000000     <absolute>
 0000:00000000       ___arm64x_redirection_metadata 00000000     <absolute>
 0000:00000000       ___guard_eh_cont_count     00000000     <absolute>
 0000:00000000       ___guard_iat_table         00000000     <absolute>
 0000:00000000       ___arm64x_extra_rfe_table  00000000     <absolute>
 0000:00000000       ___AbsoluteZero            00000000     <absolute>
 0000:00000000       ___arm64x_redirection_metadata_count 00000000     <absolute>
 0000:00000000       ___guard_check_icall_a64n_fptr 00000000     <absolute>
 0000:00000000       ___arm64x_native_entrypoint 00000000     <absolute>
 0000:00000000       ___hybrid_code_map         00000000     <absolute>
 0000:00000000       ___guard_eh_cont_table     00000000     <absolute>
 0000:00000000       ___guard_fids_table        00000000     <absolute>
 0000:00000000       ___hybrid_auxiliary_iat_copy 00000000     <absolute>
 0000:00000000       ___guard_longjmp_count     00000000     <absolute>
 0000:00000000       ___arm64x_extra_rfe_table_size 00000000     <absolute>
 0000:00000000       ___dynamic_value_reloc_table 00000000     <absolute>
 0000:00000000       ___hybrid_auxiliary_iat    00000000     <absolute>
 0000:00000000       ___guard_longjmp_table     00000000     <absolute>
 0000:00000000       ___enclave_config          00000000     <absolute>
 0000:0000002c       __tls_array                0000002c     <absolute>
 0000:0000005e       ___safe_se_handler_count   0000005e     <absolute>
 0000:00000100       ___guard_flags             00000100     <absolute>
 0000:00000000       ___ImageBase               10000000     <linker-defined>
 0001:000001b0       ??$AtlAdd@H@ATL@@YAJPAHHH@Z 100011b0 f i GenericHTTPClient.obj
 0001:000001d6       ??$AtlAdd@I@ATL@@YAJPAIII@Z 100011d6 f i GenericHTTPClient.obj
 0001:000001f9       ??$AtlAdd@K@ATL@@YAJPAKKK@Z 100011f9 f i GenericHTTPClient.obj
 0001:0000021c       ??$AtlMultiply@I@ATL@@YAJPAIII@Z 1000121c f i GenericHTTPClient.obj
 0001:0000023e       ??$AtlMultiply@K@ATL@@YAJPAKKK@Z 1000123e f i GenericHTTPClient.obj
 0001:00000260       ??$_Allocate@$07U_Default_allocate_traits@std@@$0A@@std@@YAPAXI@Z 10001260 f i GenericHTTPClient.obj
 0001:00000286       ??$_Allocate_manually_vector_aligned@U_Default_allocate_traits@std@@@std@@YAPAXI@Z 10001286 f i GenericHTTPClient.obj
 0001:000002b4       ??$_Copy_memmove@PAU__GENERIC_HTTP_ARGUMENT@GenericHTTPClient@@PAU12@@std@@YAPAU__GENERIC_HTTP_ARGUMENT@GenericHTTPClient@@PAU12@00@Z 100012b4 f i GenericHTTPClient.obj
 0001:000002d6       ??$_Deallocate@$07$0A@@std@@YAXPAXI@Z 100012d6 f i GenericHTTPClient.obj
 0001:00000302       ??$_Emplace_reallocate@ABU__GENERIC_HTTP_ARGUMENT@GenericHTTPClient@@@?$vector@U__GENERIC_HTTP_ARGUMENT@GenericHTTPClient@@V?$allocator@U__GENERIC_HTTP_ARGUMENT@GenericHTTPClient@@@std@@@std@@QAEPAU__GENERIC_HTTP_ARGUMENT@GenericHTTPClient@@QAU23@ABU23@@Z 10001302 f i GenericHTTPClient.obj
 0001:000003bf       ??$_Get_size_of_n@$0KAE@@std@@YAII@Z 100013bf f i GenericHTTPClient.obj
 0001:000003d8       ??$_Uninitialized_move@PAU__GENERIC_HTTP_ARGUMENT@GenericHTTPClient@@V?$allocator@U__GENERIC_HTTP_ARGUMENT@GenericHTTPClient@@@std@@@std@@YAPAU__GENERIC_HTTP_ARGUMENT@GenericHTTPClient@@QAU12@0PAU12@AAV?$allocator@U__GENERIC_HTTP_ARGUMENT@GenericHTTPClient@@@0@@Z 100013d8 f i GenericHTTPClient.obj
 0001:00000407       ??$emplace_back@ABU__GENERIC_HTTP_ARGUMENT@GenericHTTPClient@@@?$vector@U__GENERIC_HTTP_ARGUMENT@GenericHTTPClient@@V?$allocator@U__GENERIC_HTTP_ARGUMENT@GenericHTTPClient@@@std@@@std@@QAE?A_TABU__GENERIC_HTTP_ARGUMENT@GenericHTTPClient@@@Z 10001407 f i GenericHTTPClient.obj
 0001:0000043a       ??0?$CStringT@_WV?$StrTraitATL@_WV?$ChTraitsCRT@_W@ATL@@@ATL@@@ATL@@QAE@PBD@Z 1000143a f i GenericHTTPClient.obj
 0001:00000491       ??0?$CStringT@_WV?$StrTraitATL@_WV?$ChTraitsCRT@_W@ATL@@@ATL@@@ATL@@QAE@PB_W@Z 10001491 f i GenericHTTPClient.obj
 0001:000004f6       ??0CAtlComModule@ATL@@QAE@XZ 100014f6 f i GenericHTTPClient.obj
 0001:00000535       ??0CAtlException@ATL@@QAE@J@Z 10001535 f i GenericHTTPClient.obj
 0001:00000543       ??0CAtlStringMgr@ATL@@QAE@PAUIAtlMemMgr@1@@Z 10001543 f i GenericHTTPClient.obj
 0001:0000056f       ??0CAtlWinModule@ATL@@QAE@XZ 1000156f f i GenericHTTPClient.obj
 0001:0000059d       ??0GenericHTTPClient@@QAE@XZ 1000159d f   GenericHTTPClient.obj
 0001:000005cb       ??0_ATL_COM_MODULE70@ATL@@QAE@XZ 100015cb f i GenericHTTPClient.obj
 0001:000005e2       ??0_ATL_WIN_MODULE70@ATL@@QAE@XZ 100015e2 f i GenericHTTPClient.obj
 0001:0000060d       ??0bad_alloc@std@@QAE@ABV01@@Z 1000160d f i GenericHTTPClient.obj
 0001:00000628       ??0bad_array_new_length@std@@QAE@ABV01@@Z 10001628 f i GenericHTTPClient.obj
 0001:00000643       ??0bad_array_new_length@std@@QAE@XZ 10001643 f i GenericHTTPClient.obj
 0001:0000065b       ??0exception@std@@QAE@ABV01@@Z 1000165b f i GenericHTTPClient.obj
 0001:00000687       ??1?$CSimpleStringT@_W$0A@@ATL@@QAE@XZ 10001687 f i GenericHTTPClient.obj
 0001:00000691       ??1?$CStringT@_WV?$StrTraitATL@_WV?$ChTraitsCRT@_W@ATL@@@ATL@@@ATL@@QAE@XZ 10001691 f i GenericHTTPClient.obj
 0001:0000069b       ??1CAtlStringMgr@ATL@@UAE@XZ 1000169b f i GenericHTTPClient.obj
 0001:000006a9       ??1CWin32Heap@ATL@@UAE@XZ  100016a9 f i GenericHTTPClient.obj
 0001:000006c5       ??1GenericHTTPClient@@UAE@XZ 100016c5 f   GenericHTTPClient.obj
 0001:000006e7       ??1bad_array_new_length@std@@UAE@XZ 100016e7 f i GenericHTTPClient.obj
 0001:000006f8       ??1exception@std@@UAE@XZ   100016f8 f i GenericHTTPClient.obj
 0001:00000709       ??4?$CStringT@_WV?$StrTraitATL@_WV?$ChTraitsCRT@_W@ATL@@@ATL@@@ATL@@QAEAAV01@PBD@Z 10001709 f i GenericHTTPClient.obj
 0001:00000757       ??A?$CSimpleArray@GV?$CSimpleArrayEqualHelper@G@ATL@@@ATL@@QAEAAGH@Z 10001757 f i GenericHTTPClient.obj
 0001:0000077c       ??_GCAtlStringMgr@ATL@@UAEPAXI@Z 1000177c f i GenericHTTPClient.obj
 0001:0000077c       ??_ECAtlStringMgr@ATL@@UAEPAXI@Z 1000177c f i GenericHTTPClient.obj
 0001:000007a6       ??_ECWin32Heap@ATL@@UAEPAXI@Z 100017a6 f i GenericHTTPClient.obj
 0001:000007a6       ??_GCWin32Heap@ATL@@UAEPAXI@Z 100017a6 f i GenericHTTPClient.obj
 0001:000007c8       ??_GGenericHTTPClient@@UAEPAXI@Z 100017c8 f i GenericHTTPClient.obj
 0001:000007c8       ??_EGenericHTTPClient@@UAEPAXI@Z 100017c8 f i GenericHTTPClient.obj
 0001:000007ed       ??_Gbad_alloc@std@@UAEPAXI@Z 100017ed f i GenericHTTPClient.obj
 0001:000007ed       ??_Ebad_alloc@std@@UAEPAXI@Z 100017ed f i GenericHTTPClient.obj
 0001:0000081a       ??_Gbad_array_new_length@std@@UAEPAXI@Z 1000181a f i GenericHTTPClient.obj
 0001:0000081a       ??_Ebad_array_new_length@std@@UAEPAXI@Z 1000181a f i GenericHTTPClient.obj
 0001:00000847       ??_Eexception@std@@UAEPAXI@Z 10001847 f i GenericHTTPClient.obj
 0001:00000847       ??_Gexception@std@@UAEPAXI@Z 10001847 f i GenericHTTPClient.obj
 0001:00000874       ?AddPutPostArguments@GenericHTTPClient@@QAEXPB_W0H@Z 10001874 f   GenericHTTPClient.obj
 0001:000008f8       ?AddPutPostArguments@GenericHTTPClient@@QAEXPB_WK@Z 100018f8 f   GenericHTTPClient.obj
 0001:00000979       ?Allocate@CAtlStringMgr@ATL@@UAEPAUCStringData@2@HH@Z 10001979 f i GenericHTTPClient.obj
 0001:000009fc       ?Allocate@CWin32Heap@ATL@@UAEPAXI@Z 100019fc f i GenericHTTPClient.obj
 0001:00000a11       ?AtlCrtErrorCheck@ATL@@YAHH@Z 10001a11 f i GenericHTTPClient.obj
 0001:00000a4c       ?AtlFindStringResourceInstance@ATL@@YAPAUHINSTANCE__@@IG@Z 10001a4c f i GenericHTTPClient.obj
 0001:00000a90       ?AtlGetStringResourceImage@ATL@@YAPBUATLSTRINGRESOURCEIMAGE@1@PAUHINSTANCE__@@I@Z 10001a90 f i GenericHTTPClient.obj
 0001:00000ac0       ?AtlGetStringResourceImage@ATL@@YAPBUATLSTRINGRESOURCEIMAGE@1@PAUHINSTANCE__@@IG@Z 10001ac0 f i GenericHTTPClient.obj
 0001:00000af3       ?AtlThrowImpl@ATL@@YGXJ@Z  10001af3 f i GenericHTTPClient.obj
 0001:00000b10       ?AtlWinModuleInit@ATL@@YGJPAU_ATL_WIN_MODULE70@1@@Z 10001b10 f i GenericHTTPClient.obj
 0001:00000b36       ?AtlWinModuleTerm@ATL@@YGJPAU_ATL_WIN_MODULE70@1@PAUHINSTANCE__@@@Z 10001b36 f i GenericHTTPClient.obj
 0001:00000b99       ?CheckImplicitLoad@?$CStringT@_WV?$StrTraitATL@_WV?$ChTraitsCRT@_W@ATL@@@ATL@@@ATL@@AAE_NPBX@Z 10001b99 f i GenericHTTPClient.obj
 0001:00000bbd       ?Clone@CAtlStringMgr@ATL@@UAEPAUIAtlStringMgr@2@XZ 10001bbd f i GenericHTTPClient.obj
 0001:00000bc0       ?CloneData@?$CSimpleStringT@_W$0A@@ATL@@CAPAUCStringData@2@PAU32@@Z 10001bc0 f i GenericHTTPClient.obj
 0001:00000c1b       ?Close@GenericHTTPClient@@QAEHXZ 10001c1b f   GenericHTTPClient.obj
 0001:00000c52       ?Connect@GenericHTTPClient@@QAEHV?$CStringT@_WV?$StrTraitATL@_WV?$ChTraitsCRT@_W@ATL@@@ATL@@@ATL@@0G00@Z 10001c52 f   GenericHTTPClient.obj
 0001:00000e4d       ?ConvertToBaseType@?$ChTraitsCRT@_W@ATL@@SAXPA_WHPB_WH@Z 10001e4d f i GenericHTTPClient.obj
 0001:00000e80       ?CopyChars@?$CSimpleStringT@_W$0A@@ATL@@SAXPA_WIPB_WH@Z 10001e80 f i GenericHTTPClient.obj
 0001:00000e9f       ?CopyCharsOverlapped@?$CSimpleStringT@_W$0A@@ATL@@SAXPA_WIPB_WH@Z 10001e9f f i GenericHTTPClient.obj
 0001:00000ef0       ?CopyWideToMultibyte@GenericHTTPClient@@QAEHV?$CStringT@_WV?$StrTraitATL@_WV?$ChTraitsCRT@_W@ATL@@@ATL@@@ATL@@PADKK@Z 10001ef0 f   GenericHTTPClient.obj
 0001:00000f5e       ?DebuggerConsoleMessage@GenericHTTPClient@@QAEXXZ 10001f5e f   GenericHTTPClient.obj
 0001:00000f6f       ?Empty@?$CSimpleStringT@_W$0A@@ATL@@QAEXXZ 10001f6f f i GenericHTTPClient.obj
 0001:00000fa4       ?EncodeSpecialCharacters@GenericHTTPClient@@QAE?AV?$CStringT@_WV?$StrTraitATL@_WV?$ChTraitsCRT@_W@ATL@@@ATL@@@ATL@@V23@@Z 10001fa4 f   GenericHTTPClient.obj
 0001:00001006       ?EnsureLinked@CAtlStringMgrStaticInitializer@ATLImplementationDetails@ATL@@QAEPAXXZ 10002006 f i GenericHTTPClient.obj
 0001:00001009       ?Fork@?$CSimpleStringT@_W$0A@@ATL@@AAEXH@Z 10002009 f i GenericHTTPClient.obj
 0001:00001073       ?Free@CAtlStringMgr@ATL@@UAEXPAUCStringData@2@@Z 10002073 f i GenericHTTPClient.obj
 0001:0000107f       ?Free@CWin32Heap@ATL@@UAEXPAX@Z 1000207f f i GenericHTTPClient.obj
 0001:0000109a       ?GetBaseTypeLength@?$ChTraitsCRT@_W@ATL@@SAHPBD@Z 1000209a f i GenericHTTPClient.obj
 0001:000010b2       ?GetContentType@GenericHTTPClient@@QAEPB_WPB_W@Z 100020b2 f   GenericHTTPClient.obj
 0001:00001179       ?GetInstance@CAtlStringMgr@ATL@@SAPAUIAtlStringMgr@2@XZ 10002179 f i GenericHTTPClient.obj
 0001:00001228       ?GetNilString@CAtlStringMgr@ATL@@UAEPAUCStringData@2@XZ 10002228 f i GenericHTTPClient.obj
 0001:00001230       ?GetPostArguments@GenericHTTPClient@@QAEKPADK@Z 10002230 f   GenericHTTPClient.obj
 0001:00001317       ?GetSize@CWin32Heap@ATL@@UAEIPAX@Z 10002317 f i GenericHTTPClient.obj
 0001:0000132c       ?Init@CComCriticalSection@ATL@@QAEJXZ 1000232c f i GenericHTTPClient.obj
 0001:00001354       ?InitilizePutPostArguments@GenericHTTPClient@@QAEXXZ 10002354 f   GenericHTTPClient.obj
 0001:0000135b       ?LoadStringW@?$CStringT@_WV?$StrTraitATL@_WV?$ChTraitsCRT@_W@ATL@@@ATL@@@ATL@@QAEHI@Z 1000235b f i GenericHTTPClient.obj
 0001:00001381       ?LoadStringW@?$CStringT@_WV?$StrTraitATL@_WV?$ChTraitsCRT@_W@ATL@@@ATL@@@ATL@@QAEHPAUHINSTANCE__@@I@Z 10002381 f i GenericHTTPClient.obj
 0001:000013cb       ?ParseURLW@GenericHTTPClient@@QAEXPB_WPA_WH1H@Z 100023cb f   GenericHTTPClient.obj
 0001:000014d6       ?PrepareWrite2@?$CSimpleStringT@_W$0A@@ATL@@AAEXH@Z 100024d6 f i GenericHTTPClient.obj
 0001:0000152b       ?PrepareWrite@?$CSimpleStringT@_W$0A@@ATL@@AAEPA_WH@Z 1000252b f i GenericHTTPClient.obj
 0001:00001567       ?QueryHTTPResponse@GenericHTTPClient@@QAEPB_WXZ 10002567 f   GenericHTTPClient.obj
 0001:0000156b       ?QueryHTTPResponseHeader@GenericHTTPClient@@QAEPB_WXZ 1000256b f   GenericHTTPClient.obj
 0001:00001572       ?Reallocate@?$CSimpleStringT@_W$0A@@ATL@@AAEXH@Z 10002572 f i GenericHTTPClient.obj
 0001:000015aa       ?Reallocate@CAtlStringMgr@ATL@@UAEPAUCStringData@2@PAU32@HH@Z 100025aa f i GenericHTTPClient.obj
 0001:00001624       ?Reallocate@CWin32Heap@ATL@@UAEPAXPAXI@Z 10002624 f i GenericHTTPClient.obj
 0001:0000165a       ?Reconnect@GenericHTTPClient@@QAEHXZ 1000265a f   GenericHTTPClient.obj
 0001:000016e8       ?Release@CStringData@ATL@@QAEXXZ 100026e8 f i GenericHTTPClient.obj
 0001:00001700       ?RemoveAll@?$CSimpleArray@GV?$CSimpleArrayEqualHelper@G@ATL@@@ATL@@QAEXXZ 10002700 f i GenericHTTPClient.obj
 0001:0000171d       ?Replace@?$CStringT@_WV?$StrTraitATL@_WV?$ChTraitsCRT@_W@ATL@@@ATL@@@ATL@@QAEHPB_W0@Z 1000271d f i GenericHTTPClient.obj
 0001:000018b0       ?Request@GenericHTTPClient@@QAEHPB_WH0@Z 100028b0 f   GenericHTTPClient.obj
 0001:00001a04       ?RequestGet@GenericHTTPClient@@QAEHPB_W@Z 10002a04 f   GenericHTTPClient.obj
 0001:00001a9f       ?RequestOfURI@GenericHTTPClient@@QAEHPB_WH@Z 10002a9f f   GenericHTTPClient.obj
 0001:00001afc       ?RequestPost@GenericHTTPClient@@QAEHPB_W@Z 10002afc f   GenericHTTPClient.obj
 0001:00001bee       ?RequestPut@GenericHTTPClient@@QAEHPB_W@Z 10002bee f   GenericHTTPClient.obj
 0001:00001c51       ?Response@GenericHTTPClient@@QAEHPA_WK0KAAK@Z 10002c51 f   GenericHTTPClient.obj
 0001:00001dd0       ?ResponseOfBytes@GenericHTTPClient@@QAEKPAEK@Z 10002dd0 f   GenericHTTPClient.obj
 0001:00001e1f       ?SendPutFileData@GenericHTTPClient@@QAEKXZ 10002e1f f   GenericHTTPClient.obj
 0001:00001ece       ?SetLength@?$CSimpleStringT@_W$0A@@ATL@@AAEXH@Z 10002ece f i GenericHTTPClient.obj
 0001:00001ef9       ?SetString@?$CSimpleStringT@_W$0A@@ATL@@QAEXPB_WH@Z 10002ef9 f i GenericHTTPClient.obj
 0001:00001f6e       ?Term@CAtlComModule@ATL@@QAEXXZ 10002f6e f i GenericHTTPClient.obj
 0001:00001fb8       ?ThrowMemoryException@?$CSimpleStringT@_W$0A@@ATL@@KAXXZ 10002fb8 f i GenericHTTPClient.obj
 0001:00001fc3       ?_Adjust_manually_vector_aligned@std@@YAXAAPAXAAI@Z 10002fc3 f i GenericHTTPClient.obj
 0001:00001fe9       ?_AtlGetStringResourceImage@ATL@@YAPBUATLSTRINGRESOURCEIMAGE@1@PAUHINSTANCE__@@PAUHRSRC__@@I@Z 10002fe9 f i GenericHTTPClient.obj
 0001:00002046       ?_AtlInitializeCriticalSectionEx@ATL@@YAHPAU_RTL_CRITICAL_SECTION@@KK@Z 10003046 f i GenericHTTPClient.obj
 0001:0000205a       ?_AtlRaiseException@ATL@@YAXKK@Z 1000305a f i GenericHTTPClient.obj
 0001:0000206f       ?_Calculate_growth@?$vector@U__GENERIC_HTTP_ARGUMENT@GenericHTTPClient@@V?$allocator@U__GENERIC_HTTP_ARGUMENT@GenericHTTPClient@@@std@@@std@@ABEII@Z 1000306f f i GenericHTTPClient.obj
 0001:000020a2       ?_Change_array@?$vector@U__GENERIC_HTTP_ARGUMENT@GenericHTTPClient@@V?$allocator@U__GENERIC_HTTP_ARGUMENT@GenericHTTPClient@@@std@@@std@@AAEXQAU__GENERIC_HTTP_ARGUMENT@GenericHTTPClient@@II@Z 100030a2 f i GenericHTTPClient.obj
 0001:000020ec       ?_Throw_bad_array_new_length@std@@YAXXZ 100030ec f i GenericHTTPClient.obj
 0001:00002109       ?_Tidy@?$vector@U__GENERIC_HTTP_ARGUMENT@GenericHTTPClient@@V?$allocator@U__GENERIC_HTTP_ARGUMENT@GenericHTTPClient@@@std@@@std@@AAEXXZ 10003109 f i GenericHTTPClient.obj
 0001:0000213a       ?_Xlength@?$vector@U__GENERIC_HTTP_ARGUMENT@GenericHTTPClient@@V?$allocator@U__GENERIC_HTTP_ARGUMENT@GenericHTTPClient@@@std@@@std@@CAXXZ 1000313a f i GenericHTTPClient.obj
 0001:00002145       ?memcpy_s@Checked@ATL@@YAXPAXIPBXI@Z 10003145 f i GenericHTTPClient.obj
 0001:00002164       ?memmove_s@Checked@ATL@@YAXPAXIPBXI@Z 10003164 f i GenericHTTPClient.obj
 0001:000021b5       ?what@exception@std@@UBEPBDXZ 100031b5 f i GenericHTTPClient.obj
 0001:000021c3       ?wmemcpy_s@Checked@ATL@@YAXPA_WIPB_WI@Z 100031c3 f i GenericHTTPClient.obj
 0001:000021e2       ___local_stdio_printf_options 100031e2 f i GenericHTTPClient.obj
 0001:000021e8       __vswprintf_s_l            100031e8 f i GenericHTTPClient.obj
 0001:00002295       _swprintf_s                10003295 f i GenericHTTPClient.obj
 0001:000022b1       ??$AtlAddThrow@H@ATL@@YAHHH@Z 100032b1 f i BugSplatImp.obj
 0001:000022d7       ??0?$CSimpleStringT@_W$0A@@ATL@@QAE@PB_WHPAUIAtlStringMgr@1@@Z 100032d7 f i BugSplatImp.obj
 0001:00002338       ??0?$CStringT@_WV?$StrTraitATL@_WV?$ChTraitsCRT@_W@ATL@@@ATL@@@ATL@@QAE@XZ 10003338 f i BugSplatImp.obj
 0001:0000235f       ??0BugSplatImp@@QAE@XZ     1000335f f   BugSplatImp.obj
 0001:0000237d       ??0MiniDmpSender@@QAE@ABV0@@Z 1000337d f i BugSplatImp.obj
 0001:00002395       ??4?$CSimpleStringT@_W$0A@@ATL@@QAEAAV01@ABV01@@Z 10003395 f i BugSplatImp.obj
 0001:000023e5       ??4BugSplatImp@@QAEAAV0@$$QAV0@@Z 100033e5 f i BugSplatImp.obj
 0001:00002442       ??4BugSplatImp@@QAEAAV0@ABV0@@Z 10003442 f i BugSplatImp.obj
 0001:00002460       ??4MiniDmpSender@@QAEAAV0@ABV0@@Z 10003460 f i BugSplatImp.obj
 0001:00002472       ??A?$CSimpleStringT@_W$0A@@ATL@@QBE_WH@Z 10003472 f i BugSplatImp.obj
 0001:00002496       ??HATL@@YA?AV?$CStringT@_WV?$StrTraitATL@_WV?$ChTraitsCRT@_W@ATL@@@ATL@@@0@ABV10@0@Z 10003496 f i BugSplatImp.obj
 0001:000024fd       ??_EMiniDmpSender@@UAEPAXI@Z 100034fd f i BugSplatImp.obj
 0001:00002588       ??_GMiniDmpSender@@UAEPAXI@Z 10003588 f i BugSplatImp.obj
 0001:000025aa       ?Append@?$CSimpleStringT@_W$0A@@ATL@@QAEXPB_WH@Z 100035aa f i BugSplatImp.obj
 0001:00002636       ?AppendChar@?$CSimpleStringT@_W$0A@@ATL@@QAEX_W@Z 10003636 f i BugSplatImp.obj
 0001:00002663       ?CalculateBeginningOfCallInstruction@@YAHAAI@Z 10003663 f   BugSplatImp.obj
 0001:000026b8       ?Concatenate@?$CSimpleStringT@_W$0A@@ATL@@KAXAAV12@PB_WH1H@Z 100036b8 f i BugSplatImp.obj
 0001:000026ff       ?CreateMiniDump@BugSplatImp@@QAEHPAUHINSTANCE__@@KPAXKPAU_EXCEPTION_POINTERS@@W4_BS_MINIDUMP_TYPE@MiniDmpSender@@PB_WPA_WK@Z 100036ff f   BugSplatImp.obj
 0001:000028df       ?CreateMiniDumpFromSnap@@YAHPAXKKW4_BS_MINIDUMP_TYPE@MiniDmpSender@@P6GH0K0W4_MINIDUMP_TYPE@@QAU_MINIDUMP_EXCEPTION_INFORMATION@@QAU_MINIDUMP_USER_STREAM_INFORMATION@@QAU_MINIDUMP_CALLBACK_INFORMATION@@@Z0PAU_CONTEXT@@@Z 100038df f   BugSplatImp.obj
 0001:00002a25       ?Find@?$CStringT@_WV?$StrTraitATL@_WV?$ChTraitsCRT@_W@ATL@@@ATL@@@ATL@@QBEHPB_WH@Z 10003a25 f i BugSplatImp.obj
 0001:00002a5f       ?GetManager@?$CStringT@_WV?$StrTraitATL@_WV?$ChTraitsCRT@_W@ATL@@@ATL@@@ATL@@QBEPAUIAtlStringMgr@2@XZ 10003a5f f i BugSplatImp.obj
 0001:00002a7e       ?GetReducedGuid@BugSplatImp@@SAXPA_WK@Z 10003a7e f   BugSplatImp.obj
 0001:00002b02       ?Left@?$CStringT@_WV?$StrTraitATL@_WV?$ChTraitsCRT@_W@ATL@@@ATL@@@ATL@@QBE?AV12@H@Z 10003b02 f i BugSplatImp.obj
 0001:00002b47       ?MakeUpper@?$CStringT@_WV?$StrTraitATL@_WV?$ChTraitsCRT@_W@ATL@@@ATL@@@ATL@@QAEAAV12@XZ 10003b47 f i BugSplatImp.obj
 0001:00002b6f       ?Mid@?$CStringT@_WV?$StrTraitATL@_WV?$ChTraitsCRT@_W@ATL@@@ATL@@@ATL@@QBE?AV12@HH@Z 10003b6f f i BugSplatImp.obj
 0001:00002bf5       ?ReduceGuidString@BugSplatImp@@SAXPA_WK@Z 10003bf5 f   BugSplatImp.obj
 0001:00002e98       ?ResumeSuspendedThreads@BugSplatImp@@QAEXXZ 10003e98 f   BugSplatImp.obj
 0001:00002ed2       ?SnapCurrentProcessMinidump@@YAHPAXKKW4_BS_MINIDUMP_TYPE@MiniDmpSender@@P6GH0K0W4_MINIDUMP_TYPE@@QAU_MINIDUMP_EXCEPTION_INFORMATION@@QAU_MINIDUMP_USER_STREAM_INFORMATION@@QAU_MINIDUMP_CALLBACK_INFORMATION@@@Z0@Z 10003ed2 f   BugSplatImp.obj
 0001:00003098       ?StringUppercase@?$ChTraitsCRT@_W@ATL@@SAPA_WPA_WI@Z 10004098 f i BugSplatImp.obj
 0001:000030b4       ?SuspendAllThreadsInProcess@BugSplatImp@@QAEXPAX@Z 100040b4 f   BugSplatImp.obj
 0001:0000315e       ?SuspendThreadsInCurrentProcess@BugSplatImp@@QAEXXZ 1000415e f   BugSplatImp.obj
 0001:0000321c       ?UINTtoWchar_t@@YA_WI@Z    1000421c f   BugSplatImp.obj
 0001:0000323e       ?Wchar_tToUINT@@YAI_W@Z    1000423e f   BugSplatImp.obj
 0001:0000326a       ?combine1_4@@YAIII@Z       1000426a f   BugSplatImp.obj
 0001:0000327b       ?combine2_3@@YAIII@Z       1000427b f   BugSplatImp.obj
 0001:00003290       ?combine3_2@@YAIII@Z       10004290 f   BugSplatImp.obj
 0001:000032a6       ?combine4_1@@YAIII@Z       100042a6 f   BugSplatImp.obj
 0001:000032b8       ?combineLast3@@YAII@Z      100042b8 f   BugSplatImp.obj
 0001:000032c3       ?createReportAndExit@MiniDmpSender@@QAEXXZ 100042c3 f i BugSplatImp.obj
 0001:000032ed       ??$?8V?$MemoryPoolAllocator@VCrtAllocator@rapidjson@@@rapidjson@@@?$GenericValue@U?$UTF16@_W@rapidjson@@V?$MemoryPoolAllocator@VCrtAllocator@rapidjson@@@2@@rapidjson@@QBE_NABV01@@Z 100042ed f i mdump.obj
 0001:00003433       ??$?A$$CB_W@?$GenericValue@U?$UTF16@_W@rapidjson@@V?$MemoryPoolAllocator@VCrtAllocator@rapidjson@@@2@@rapidjson@@QAEAAV01@PB_W@Z 10004433 f i mdump.obj
 0001:00003488       ??$?AV?$MemoryPoolAllocator@VCrtAllocator@rapidjson@@@rapidjson@@@?$GenericValue@U?$UTF16@_W@rapidjson@@V?$MemoryPoolAllocator@VCrtAllocator@rapidjson@@@2@@rapidjson@@QAEAAV01@ABV01@@Z 10004488 f i mdump.obj
 0001:000034d4       ??$DoFindMember@V?$MemoryPoolAllocator@VCrtAllocator@rapidjson@@@rapidjson@@@?$GenericValue@U?$UTF16@_W@rapidjson@@V?$MemoryPoolAllocator@VCrtAllocator@rapidjson@@@2@@rapidjson@@AAE?AV?$GenericMemberIterator@$0A@U?$UTF16@_W@rapidjson@@V?$MemoryPoolAllocator@VCrtAllocator@rapidjson@@@2@@1@ABV01@@Z 100044d4 f i mdump.obj
 0001:00003514       ??$Encode@V?$StackStream@_W@?$GenericReader@U?$UTF16@_W@rapidjson@@U12@VCrtAllocator@2@@rapidjson@@@?$UTF16@_W@rapidjson@@SAXAAV?$StackStream@_W@?$GenericReader@U?$UTF16@_W@rapidjson@@U12@VCrtAllocator@2@@1@I@Z 10004514 f i mdump.obj
 0001:000035aa       ??$Expand@V?$GenericValue@U?$UTF16@_W@rapidjson@@V?$MemoryPoolAllocator@VCrtAllocator@rapidjson@@@2@@rapidjson@@@?$Stack@VCrtAllocator@rapidjson@@@internal@rapidjson@@AAEXI@Z 100045aa f i mdump.obj
 0001:000035f9       ??$Expand@_W@?$Stack@VCrtAllocator@rapidjson@@@internal@rapidjson@@AAEXI@Z 100045f9 f i mdump.obj
 0001:0000364a       ??$Parse@$0A@U?$GenericStringStream@U?$UTF16@_W@rapidjson@@@rapidjson@@V?$GenericDocument@U?$UTF16@_W@rapidjson@@V?$MemoryPoolAllocator@VCrtAllocator@rapidjson@@@2@VCrtAllocator@2@@2@@?$GenericReader@U?$UTF16@_W@rapidjson@@U12@VCrtAllocator@2@@rapidjson@@QAE?AUParseResult@1@AAU?$GenericStringStream@U?$UTF16@_W@rapidjson@@@1@AAV?$GenericDocument@U?$UTF16@_W@rapidjson@@V?$MemoryPoolAllocator@VCrtAllocator@rapidjson@@@2@VCrtAllocator@2@@1@@Z 1000464a f i mdump.obj
 0001:000036da       ??$ParseArray@$0A@U?$GenericStringStream@U?$UTF16@_W@rapidjson@@@rapidjson@@V?$GenericDocument@U?$UTF16@_W@rapidjson@@V?$MemoryPoolAllocator@VCrtAllocator@rapidjson@@@2@VCrtAllocator@2@@2@@?$GenericReader@U?$UTF16@_W@rapidjson@@U12@VCrtAllocator@2@@rapidjson@@AAEXAAU?$GenericStringStream@U?$UTF16@_W@rapidjson@@@1@AAV?$GenericDocument@U?$UTF16@_W@rapidjson@@V?$MemoryPoolAllocator@VCrtAllocator@rapidjson@@@2@VCrtAllocator@2@@1@@Z 100046da f i mdump.obj
 0001:000037aa       ??$ParseFalse@$0A@U?$GenericStringStream@U?$UTF16@_W@rapidjson@@@rapidjson@@V?$GenericDocument@U?$UTF16@_W@rapidjson@@V?$MemoryPoolAllocator@VCrtAllocator@rapidjson@@@2@VCrtAllocator@2@@2@@?$GenericReader@U?$UTF16@_W@rapidjson@@U12@VCrtAllocator@2@@rapidjson@@AAEXAAU?$GenericStringStream@U?$UTF16@_W@rapidjson@@@1@AAV?$GenericDocument@U?$UTF16@_W@rapidjson@@V?$MemoryPoolAllocator@VCrtAllocator@rapidjson@@@2@VCrtAllocator@2@@1@@Z 100047aa f i mdump.obj
 0001:00003818       ??$ParseHex4@U?$GenericStringStream@U?$UTF16@_W@rapidjson@@@rapidjson@@@?$GenericReader@U?$UTF16@_W@rapidjson@@U12@VCrtAllocator@2@@rapidjson@@AAEIAAU?$GenericStringStream@U?$UTF16@_W@rapidjson@@@1@I@Z 10004818 f i mdump.obj
 0001:00003887       ??$ParseNull@$0A@U?$GenericStringStream@U?$UTF16@_W@rapidjson@@@rapidjson@@V?$GenericDocument@U?$UTF16@_W@rapidjson@@V?$MemoryPoolAllocator@VCrtAllocator@rapidjson@@@2@VCrtAllocator@2@@2@@?$GenericReader@U?$UTF16@_W@rapidjson@@U12@VCrtAllocator@2@@rapidjson@@AAEXAAU?$GenericStringStream@U?$UTF16@_W@rapidjson@@@1@AAV?$GenericDocument@U?$UTF16@_W@rapidjson@@V?$MemoryPoolAllocator@VCrtAllocator@rapidjson@@@2@VCrtAllocator@2@@1@@Z 10004887 f i mdump.obj
 0001:000038e9       ??$ParseNumber@$0A@U?$GenericStringStream@U?$UTF16@_W@rapidjson@@@rapidjson@@V?$GenericDocument@U?$UTF16@_W@rapidjson@@V?$MemoryPoolAllocator@VCrtAllocator@rapidjson@@@2@VCrtAllocator@2@@2@@?$GenericReader@U?$UTF16@_W@rapidjson@@U12@VCrtAllocator@2@@rapidjson@@AAEXAAU?$GenericStringStream@U?$UTF16@_W@rapidjson@@@1@AAV?$GenericDocument@U?$UTF16@_W@rapidjson@@V?$MemoryPoolAllocator@VCrtAllocator@rapidjson@@@2@VCrtAllocator@2@@1@@Z 100048e9 f i mdump.obj
 0001:00003f3f       ??$ParseObject@$0A@U?$GenericStringStream@U?$UTF16@_W@rapidjson@@@rapidjson@@V?$GenericDocument@U?$UTF16@_W@rapidjson@@V?$MemoryPoolAllocator@VCrtAllocator@rapidjson@@@2@VCrtAllocator@2@@2@@?$GenericReader@U?$UTF16@_W@rapidjson@@U12@VCrtAllocator@2@@rapidjson@@AAEXAAU?$GenericStringStream@U?$UTF16@_W@rapidjson@@@1@AAV?$GenericDocument@U?$UTF16@_W@rapidjson@@V?$MemoryPoolAllocator@VCrtAllocator@rapidjson@@@2@VCrtAllocator@2@@1@@Z 10004f3f f i mdump.obj
 0001:00004070       ??$ParseStream@$0A@U?$UTF16@_W@rapidjson@@U?$GenericStringStream@U?$UTF16@_W@rapidjson@@@2@@?$GenericDocument@U?$UTF16@_W@rapidjson@@V?$MemoryPoolAllocator@VCrtAllocator@rapidjson@@@2@VCrtAllocator@2@@rapidjson@@QAEAAV01@AAU?$GenericStringStream@U?$UTF16@_W@rapidjson@@@1@@Z 10005070 f i mdump.obj
 0001:000040ee       ??$ParseString@$0A@U?$GenericStringStream@U?$UTF16@_W@rapidjson@@@rapidjson@@V?$GenericDocument@U?$UTF16@_W@rapidjson@@V?$MemoryPoolAllocator@VCrtAllocator@rapidjson@@@2@VCrtAllocator@2@@2@@?$GenericReader@U?$UTF16@_W@rapidjson@@U12@VCrtAllocator@2@@rapidjson@@AAEXAAU?$GenericStringStream@U?$UTF16@_W@rapidjson@@@1@AAV?$GenericDocument@U?$UTF16@_W@rapidjson@@V?$MemoryPoolAllocator@VCrtAllocator@rapidjson@@@2@VCrtAllocator@2@@1@_N@Z 100050ee f i mdump.obj
 0001:00004352       ??$ParseTrue@$0A@U?$GenericStringStream@U?$UTF16@_W@rapidjson@@@rapidjson@@V?$GenericDocument@U?$UTF16@_W@rapidjson@@V?$MemoryPoolAllocator@VCrtAllocator@rapidjson@@@2@VCrtAllocator@2@@2@@?$GenericReader@U?$UTF16@_W@rapidjson@@U12@VCrtAllocator@2@@rapidjson@@AAEXAAU?$GenericStringStream@U?$UTF16@_W@rapidjson@@@1@AAV?$GenericDocument@U?$UTF16@_W@rapidjson@@V?$MemoryPoolAllocator@VCrtAllocator@rapidjson@@@2@VCrtAllocator@2@@1@@Z 10005352 f i mdump.obj
 0001:000043b5       ??$ParseValue@$0A@U?$GenericStringStream@U?$UTF16@_W@rapidjson@@@rapidjson@@V?$GenericDocument@U?$UTF16@_W@rapidjson@@V?$MemoryPoolAllocator@VCrtAllocator@rapidjson@@@2@VCrtAllocator@2@@2@@?$GenericReader@U?$UTF16@_W@rapidjson@@U12@VCrtAllocator@2@@rapidjson@@AAEXAAU?$GenericStringStream@U?$UTF16@_W@rapidjson@@@1@AAV?$GenericDocument@U?$UTF16@_W@rapidjson@@V?$MemoryPoolAllocator@VCrtAllocator@rapidjson@@@2@VCrtAllocator@2@@1@@Z 100053b5 f i mdump.obj
 0001:0000441f       ??$SkipWhitespace@U?$GenericStringStream@U?$UTF16@_W@rapidjson@@@rapidjson@@@rapidjson@@YAXAAU?$GenericStringStream@U?$UTF16@_W@rapidjson@@@0@@Z 1000541f f i mdump.obj
 0001:0000444f       ??$StringEqual@V?$MemoryPoolAllocator@VCrtAllocator@rapidjson@@@rapidjson@@@?$GenericValue@U?$UTF16@_W@rapidjson@@V?$MemoryPoolAllocator@VCrtAllocator@rapidjson@@@2@@rapidjson@@ABE_NABV01@@Z 1000544f f i mdump.obj
 0001:000044aa       ??$_Destroy_range@V?$allocator@V?$CStringT@_WV?$StrTraitATL@_WV?$ChTraitsCRT@_W@ATL@@@ATL@@@ATL@@@std@@@std@@YAXPAV?$CStringT@_WV?$StrTraitATL@_WV?$ChTraitsCRT@_W@ATL@@@ATL@@@ATL@@QAV12@AAV?$allocator@V?$CStringT@_WV?$StrTraitATL@_WV?$ChTraitsCRT@_W@ATL@@@ATL@@@ATL@@@0@@Z 100054aa f i mdump.obj
 0001:000044c7       ??$_Emplace_reallocate@ABVCrashAttribute@@@?$vector@VCrashAttribute@@V?$allocator@VCrashAttribute@@@std@@@std@@QAEPAVCrashAttribute@@QAV2@ABV2@@Z 100054c7 f i mdump.obj
 0001:000045a9       ??$_Emplace_reallocate@V?$CStringT@_WV?$StrTraitATL@_WV?$ChTraitsCRT@_W@ATL@@@ATL@@@ATL@@@?$vector@V?$CStringT@_WV?$StrTraitATL@_WV?$ChTraitsCRT@_W@ATL@@@ATL@@@ATL@@V?$allocator@V?$CStringT@_WV?$StrTraitATL@_WV?$ChTraitsCRT@_W@ATL@@@ATL@@@ATL@@@std@@@std@@QAEPAV?$CStringT@_WV?$StrTraitATL@_WV?$ChTraitsCRT@_W@ATL@@@ATL@@@ATL@@QAV23@$$QAV23@@Z 100055a9 f i mdump.obj
 0001:0000468e       ??$_Move_unchecked@PAVCrashAttribute@@PAV1@@std@@YAPAVCrashAttribute@@PAV1@00@Z 1000568e f i mdump.obj
 0001:000046b4       ??$_Uninitialized_copy@PAV?$CStringT@_WV?$StrTraitATL@_WV?$ChTraitsCRT@_W@ATL@@@ATL@@@ATL@@V?$allocator@V?$CStringT@_WV?$StrTraitATL@_WV?$ChTraitsCRT@_W@ATL@@@ATL@@@ATL@@@std@@@std@@YAPAV?$CStringT@_WV?$StrTraitATL@_WV?$ChTraitsCRT@_W@ATL@@@ATL@@@ATL@@QAV12@0PAV12@AAV?$allocator@V?$CStringT@_WV?$StrTraitATL@_WV?$ChTraitsCRT@_W@ATL@@@ATL@@@ATL@@@0@@Z 100056b4 f i mdump.obj
 0001:00004704       ??$_Uninitialized_copy@PAVCrashAttribute@@V?$allocator@VCrashAttribute@@@std@@@std@@YAPAVCrashAttribute@@QAV1@0PAV1@AAV?$allocator@VCrashAttribute@@@0@@Z 10005704 f i mdump.obj
 0001:00004746       ??$_Uninitialized_move@PAV?$CStringT@_WV?$StrTraitATL@_WV?$ChTraitsCRT@_W@ATL@@@ATL@@@ATL@@V?$allocator@V?$CStringT@_WV?$StrTraitATL@_WV?$ChTraitsCRT@_W@ATL@@@ATL@@@ATL@@@std@@@std@@YAPAV?$CStringT@_WV?$StrTraitATL@_WV?$ChTraitsCRT@_W@ATL@@@ATL@@@ATL@@QAV12@0PAV12@AAV?$allocator@V?$CStringT@_WV?$StrTraitATL@_WV?$ChTraitsCRT@_W@ATL@@@ATL@@@ATL@@@0@@Z 10005746 f i mdump.obj
 0001:00004796       ??$_Uninitialized_move@PAVCrashAttribute@@V?$allocator@VCrashAttribute@@@std@@@std@@YAPAVCrashAttribute@@QAV1@0PAV1@AAV?$allocator@VCrashAttribute@@@0@@Z 10005796 f i mdump.obj
 0001:000047d8       ??$construct@V?$CStringT@_WV?$StrTraitATL@_WV?$ChTraitsCRT@_W@ATL@@@ATL@@@ATL@@AAV12@@?$_Default_allocator_traits@V?$allocator@V?$CStringT@_WV?$StrTraitATL@_WV?$ChTraitsCRT@_W@ATL@@@ATL@@@ATL@@@std@@@std@@SAXAAV?$allocator@V?$CStringT@_WV?$StrTraitATL@_WV?$ChTraitsCRT@_W@ATL@@@ATL@@@ATL@@@1@QAV?$CStringT@_WV?$StrTraitATL@_WV?$ChTraitsCRT@_W@ATL@@@ATL@@@ATL@@AAV34@@Z 100057d8 f i mdump.obj
 0001:000047f4       ??$construct@V?$CStringT@_WV?$StrTraitATL@_WV?$ChTraitsCRT@_W@ATL@@@ATL@@@ATL@@V12@@?$_Default_allocator_traits@V?$allocator@V?$CStringT@_WV?$StrTraitATL@_WV?$ChTraitsCRT@_W@ATL@@@ATL@@@ATL@@@std@@@std@@SAXAAV?$allocator@V?$CStringT@_WV?$StrTraitATL@_WV?$ChTraitsCRT@_W@ATL@@@ATL@@@ATL@@@1@QAV?$CStringT@_WV?$StrTraitATL@_WV?$ChTraitsCRT@_W@ATL@@@ATL@@@ATL@@$$QAV34@@Z 100057f4 f i mdump.obj
 0001:00004810       ??$emplace_back@ABVCrashAttribute@@@?$vector@VCrashAttribute@@V?$allocator@VCrashAttribute@@@std@@@std@@QAE?A_TABVCrashAttribute@@@Z 10005810 f i mdump.obj
 0001:00004839       ??$emplace_back@V?$CStringT@_WV?$StrTraitATL@_WV?$ChTraitsCRT@_W@ATL@@@ATL@@@ATL@@@?$vector@V?$CStringT@_WV?$StrTraitATL@_WV?$ChTraitsCRT@_W@ATL@@@ATL@@@ATL@@V?$allocator@V?$CStringT@_WV?$StrTraitATL@_WV?$ChTraitsCRT@_W@ATL@@@ATL@@@ATL@@@std@@@std@@QAE?A_T$$QAV?$CStringT@_WV?$StrTraitATL@_WV?$ChTraitsCRT@_W@ATL@@@ATL@@@ATL@@@Z 10005839 f i mdump.obj
 0001:00004864       ??0?$CStringT@_WV?$StrTraitATL@_WV?$ChTraitsCRT@_W@ATL@@@ATL@@@ATL@@QAE@PB_WPAUIAtlStringMgr@1@@Z 10005864 f i mdump.obj
 0001:000048c5       ??0?$GenericDocument@U?$UTF16@_W@rapidjson@@V?$MemoryPoolAllocator@VCrtAllocator@rapidjson@@@2@VCrtAllocator@2@@rapidjson@@QAE@PAV?$MemoryPoolAllocator@VCrtAllocator@rapidjson@@@1@IPAVCrtAllocator@1@@Z 100058c5 f i mdump.obj
 0001:0000494b       ??0?$GenericValue@U?$UTF16@_W@rapidjson@@V?$MemoryPoolAllocator@VCrtAllocator@rapidjson@@@2@@rapidjson@@QAE@H@Z 1000594b f i mdump.obj
 0001:0000497c       ??0?$GenericValue@U?$UTF16@_W@rapidjson@@V?$MemoryPoolAllocator@VCrtAllocator@rapidjson@@@2@@rapidjson@@QAE@I@Z 1000597c f i mdump.obj
 0001:000049a9       ??0?$GenericValue@U?$UTF16@_W@rapidjson@@V?$MemoryPoolAllocator@VCrtAllocator@rapidjson@@@2@@rapidjson@@QAE@PB_WIAAV?$MemoryPoolAllocator@VCrtAllocator@rapidjson@@@1@@Z 100059a9 f i mdump.obj
 0001:000049e3       ??0?$GenericValue@U?$UTF16@_W@rapidjson@@V?$MemoryPoolAllocator@VCrtAllocator@rapidjson@@@2@@rapidjson@@QAE@_J@Z 100059e3 f i mdump.obj
 0001:00004a53       ??0?$GenericValue@U?$UTF16@_W@rapidjson@@V?$MemoryPoolAllocator@VCrtAllocator@rapidjson@@@2@@rapidjson@@QAE@_K@Z 10005a53 f i mdump.obj
 0001:00004ab5       ??0?$MemoryPoolAllocator@VCrtAllocator@rapidjson@@@rapidjson@@QAE@IPAVCrtAllocator@1@@Z 10005ab5 f i mdump.obj
 0001:00004b33       ??0CrashAttribute@@QAE@$$QAV0@@Z 10005b33 f i mdump.obj
 0001:00004b7e       ??0CrashAttribute@@QAE@ABV0@@Z 10005b7e f i mdump.obj
 0001:00004bc9       ??0CrashAttribute@@QAE@PB_W0@Z 10005bc9 f i mdump.obj
 0001:00004c2f       ??0MiniDumper@@QAE@K@Z     10005c2f f   mdump.obj
 0001:00004da1       ??0TotalUptimeAndCrashCalculator@@QAE@PB_W00@Z 10005da1 f i mdump.obj
 0001:00004eae       ??1?$CHeapPtr@_WVCLocalAllocator@ATL@@@ATL@@QAE@XZ 10005eae f i mdump.obj
 0001:00004ebe       ??1?$GenericDocument@U?$UTF16@_W@rapidjson@@V?$MemoryPoolAllocator@VCrtAllocator@rapidjson@@@2@VCrtAllocator@2@@rapidjson@@QAE@XZ 10005ebe f i mdump.obj
 0001:00004edf       ??1?$GenericReader@U?$UTF16@_W@rapidjson@@U12@VCrtAllocator@2@@rapidjson@@QAE@XZ 10005edf f i mdump.obj
 0001:00004ee4       ??1?$GenericValue@U?$UTF16@_W@rapidjson@@V?$MemoryPoolAllocator@VCrtAllocator@rapidjson@@@2@@rapidjson@@QAE@XZ 10005ee4 f i mdump.obj
 0001:00004ee7       ??1?$MemoryPoolAllocator@VCrtAllocator@rapidjson@@@rapidjson@@QAE@XZ 10005ee7 f i mdump.obj
 0001:00004f23       ??1?$Stack@VCrtAllocator@rapidjson@@@internal@rapidjson@@QAE@XZ 10005f23 f i mdump.obj
 0001:00004f28       ??1?$StreamLocalCopy@U?$GenericStringStream@U?$UTF16@_W@rapidjson@@@rapidjson@@$00@internal@rapidjson@@QAE@XZ 10005f28 f i mdump.obj
 0001:00004f38       ??1?$_Uninitialized_backout_al@V?$allocator@V?$CStringT@_WV?$StrTraitATL@_WV?$ChTraitsCRT@_W@ATL@@@ATL@@@ATL@@@std@@@std@@QAE@XZ 10005f38 f i mdump.obj
 0001:00004f49       ??1?$_Uninitialized_backout_al@V?$allocator@VCrashAttribute@@@std@@@std@@QAE@XZ 10005f49 f i mdump.obj
 0001:00004f63       ??1?$vector@V?$CStringT@_WV?$StrTraitATL@_WV?$ChTraitsCRT@_W@ATL@@@ATL@@@ATL@@V?$allocator@V?$CStringT@_WV?$StrTraitATL@_WV?$ChTraitsCRT@_W@ATL@@@ATL@@@ATL@@@std@@@std@@QAE@XZ 10005f63 f i mdump.obj
 0001:00004f68       ??1?$vector@VCrashAttribute@@V?$allocator@VCrashAttribute@@@std@@@std@@QAE@XZ 10005f68 f i mdump.obj
 0001:00004f6d       ??1ClearStackOnExit@?$GenericDocument@U?$UTF16@_W@rapidjson@@V?$MemoryPoolAllocator@VCrtAllocator@rapidjson@@@2@VCrtAllocator@2@@rapidjson@@QAE@XZ 10005f6d f i mdump.obj
 0001:00004f7d       ??1ClearStackOnExit@?$GenericReader@U?$UTF16@_W@rapidjson@@U12@VCrtAllocator@2@@rapidjson@@QAE@XZ 10005f7d f i mdump.obj
 0001:00004f86       ??1CrashAttribute@@QAE@XZ  10005f86 f i mdump.obj
 0001:00004f9f       ??1DumpData@@QAE@XZ        10005f9f f i mdump.obj
 0001:00004faa       ??1MiniDumper@@UAE@XZ      10005faa f   mdump.obj
 0001:00005055       ??1ResourceSwitch@@QAE@XZ  10006055 f i mdump.obj
 0001:00005068       ??1TotalUptimeAndCrashCalculator@@QAE@XZ 10006068 f i mdump.obj
 0001:000050f1       ??4?$GenericValue@U?$UTF16@_W@rapidjson@@V?$MemoryPoolAllocator@VCrtAllocator@rapidjson@@@2@@rapidjson@@QAEAAV01@AAV01@@Z 100060f1 f i mdump.obj
 0001:00005120       ??4CrashAttribute@@QAEAAV0@$$QAV0@@Z 10006120 f i mdump.obj
 0001:00005144       ??8?$GenericValue@U?$UTF16@_W@rapidjson@@V?$MemoryPoolAllocator@VCrtAllocator@rapidjson@@@2@@rapidjson@@QBE_NPB_W@Z 10006144 f i mdump.obj
 0001:0000518d       ??B?$CSimpleStringT@_W$0A@@ATL@@QBEPB_WXZ 1000618d f i mdump.obj
 0001:00005190       ??HATL@@YA?AV?$CStringT@_WV?$StrTraitATL@_WV?$ChTraitsCRT@_W@ATL@@@ATL@@@0@ABV10@PB_W@Z 10006190 f i mdump.obj
 0001:00005202       ??HATL@@YA?AV?$CStringT@_WV?$StrTraitATL@_WV?$ChTraitsCRT@_W@ATL@@@ATL@@@0@ABV10@_W@Z 10006202 f i mdump.obj
 0001:0000526b       ??HATL@@YA?AV?$CStringT@_WV?$StrTraitATL@_WV?$ChTraitsCRT@_W@ATL@@@ATL@@@0@PB_WABV10@@Z 1000626b f i mdump.obj
 0001:000052e5       ??HATL@@YA?AV?$CStringT@_WV?$StrTraitATL@_WV?$ChTraitsCRT@_W@ATL@@@ATL@@@0@_WABV10@@Z 100062e5 f i mdump.obj
 0001:0000534e       ??_G?$CStringT@_WV?$StrTraitATL@_WV?$ChTraitsCRT@_W@ATL@@@ATL@@@ATL@@QAEPAXI@Z 1000634e f i mdump.obj
 0001:00005375       ??_EMiniDumper@@UAEPAXI@Z  10006375 f i mdump.obj
 0001:00005375       ??_GMiniDumper@@UAEPAXI@Z  10006375 f i mdump.obj
 0001:00005397       ?AddChunk@?$MemoryPoolAllocator@VCrtAllocator@rapidjson@@@rapidjson@@AAE_NI@Z 10006397 f i mdump.obj
 0001:000053e8       ?AllocGuardMemory@MiniDumper@@QAE_NXZ 100063e8 f   mdump.obj
 0001:0000540c       ?AppendFormat@?$CStringT@_WV?$StrTraitATL@_WV?$ChTraitsCRT@_W@ATL@@@ATL@@@ATL@@QAAXPB_WZZ 1000640c f i mdump.obj
 0001:00005420       ?AppendFormatV@?$CStringT@_WV?$StrTraitATL@_WV?$ChTraitsCRT@_W@ATL@@@ATL@@@ATL@@QAEXPB_WPAD@Z 10006420 f i mdump.obj
 0001:000054b6       ?AtlMessageBox@WTL@@YAHPAUHWND__@@V_U_STRINGorID@ATL@@1I@Z 100064b6 f i mdump.obj
 0001:000055df       ?Bool@?$GenericDocument@U?$UTF16@_W@rapidjson@@V?$MemoryPoolAllocator@VCrtAllocator@rapidjson@@@2@VCrtAllocator@2@@rapidjson@@QAE_N_N@Z 100065df f i mdump.obj
 0001:00005622       ?Clear@?$MemoryPoolAllocator@VCrtAllocator@rapidjson@@@rapidjson@@QAEXXZ 10006622 f i mdump.obj
 0001:00005643       ?CreateReportThreaded@MiniDumper@@SGIPAX@Z 10006643 f   mdump.obj
 0001:000059f7       ?Delete@?$CStringT@_WV?$StrTraitATL@_WV?$ChTraitsCRT@_W@ATL@@@ATL@@@ATL@@QAEHHH@Z 100069f7 f i mdump.obj
 0001:00005a75       ?Delta@TotalUptimeAndCrashCalculator@@QAE_JU_SYSTEMTIME@@0@Z 10006a75 f i mdump.obj
 0001:00005ad1       ?Destroy@?$GenericDocument@U?$UTF16@_W@rapidjson@@V?$MemoryPoolAllocator@VCrtAllocator@rapidjson@@@2@VCrtAllocator@2@@rapidjson@@AAEXXZ 10006ad1 f i mdump.obj
 0001:00005aec       ?Destroy@?$Stack@VCrtAllocator@rapidjson@@@internal@rapidjson@@AAEXXZ 10006aec f i mdump.obj
 0001:00005b06       ?Double@?$GenericDocument@U?$UTF16@_W@rapidjson@@V?$MemoryPoolAllocator@VCrtAllocator@rapidjson@@@2@VCrtAllocator@2@@rapidjson@@QAE_NN@Z 10006b06 f i mdump.obj
 0001:00005b4f       ?EndArray@?$GenericDocument@U?$UTF16@_W@rapidjson@@V?$MemoryPoolAllocator@VCrtAllocator@rapidjson@@@2@VCrtAllocator@2@@rapidjson@@QAE_NI@Z 10006b4f f i mdump.obj
 0001:00005b75       ?EndObject@?$GenericDocument@U?$UTF16@_W@rapidjson@@V?$MemoryPoolAllocator@VCrtAllocator@rapidjson@@@2@VCrtAllocator@2@@rapidjson@@QAE_NI@Z 10006b75 f i mdump.obj
 0001:00005b9b       ?ExceptionHandler@MiniDumper@@SGJPAU_EXCEPTION_POINTERS@@K@Z 10006b9b f   mdump.obj
 0001:00005e69       ?FastPath@internal@rapidjson@@YANNH@Z 10006e69 f i mdump.obj
 0001:00005e9c       ?FindMember@?$GenericValue@U?$UTF16@_W@rapidjson@@V?$MemoryPoolAllocator@VCrtAllocator@rapidjson@@@2@@rapidjson@@QAE?AV?$GenericMemberIterator@$0A@U?$UTF16@_W@rapidjson@@V?$MemoryPoolAllocator@VCrtAllocator@rapidjson@@@2@@2@PB_W@Z 10006e9c f i mdump.obj
 0001:00005ef9       ?Format@?$CStringT@_WV?$StrTraitATL@_WV?$ChTraitsCRT@_W@ATL@@@ATL@@@ATL@@QAAXPB_WZZ 10006ef9 f i mdump.obj
 0001:00005f0d       ?Format@?$ChTraitsCRT@_W@ATL@@SAHPA_WIPB_WPAD@Z 10006f0d f i mdump.obj
 0001:00005f3e       ?FormatMessageV@?$CStringT@_WV?$StrTraitATL@_WV?$ChTraitsCRT@_W@ATL@@@ATL@@@ATL@@QAEXPB_WPAPAD@Z 10006f3e f i mdump.obj
 0001:00006064       ?FormatMessageW@?$CStringT@_WV?$StrTraitATL@_WV?$ChTraitsCRT@_W@ATL@@@ATL@@@ATL@@QAAXIZZ 10007064 f i mdump.obj
 0001:000060ea       ?FormatV@?$CStringT@_WV?$StrTraitATL@_WV?$ChTraitsCRT@_W@ATL@@@ATL@@@ATL@@QAEXPB_WPAD@Z 100070ea f i mdump.obj
 0001:00006170       ?FreeGuardMemory@MiniDumper@@QAE_NXZ 10007170 f   mdump.obj
 0001:0000618e       ?GetBuffer@?$CSimpleStringT@_W$0A@@ATL@@QAEPA_WXZ 1000718e f i mdump.obj
 0001:000061a5       ?GetDouble@?$GenericValue@U?$UTF16@_W@rapidjson@@V?$MemoryPoolAllocator@VCrtAllocator@rapidjson@@@2@@rapidjson@@QBENXZ 100071a5 f i mdump.obj
 0001:00006212       ?GetFormattedLength@?$ChTraitsCRT@_W@ATL@@SAHPB_WPAD@Z 10007212 f i mdump.obj
 0001:00006240       ?GetFullDumpEnabledStatus@MiniDumper@@SA_NXZ 10007240 f   mdump.obj
 0001:00006535       ?GetMFA@MiniDumper@@SA_NPAXPA_WH@Z 10007535 f   mdump.obj
 0001:0000664a       ?GetStringLength@?$GenericValue@U?$UTF16@_W@rapidjson@@V?$MemoryPoolAllocator@VCrtAllocator@rapidjson@@@2@@rapidjson@@QBEIXZ 1000764a f i mdump.obj
 0001:00006665       ?GetUniqueTempFile@@YAXPA_WHPB_W@Z 10007665 f   mdump.obj
 0001:000067a0       ?Int64@?$GenericDocument@U?$UTF16@_W@rapidjson@@V?$MemoryPoolAllocator@VCrtAllocator@rapidjson@@@2@VCrtAllocator@2@@rapidjson@@QAE_N_J@Z 100077a0 f i mdump.obj
 0001:000067d8       ?Int@?$GenericDocument@U?$UTF16@_W@rapidjson@@V?$MemoryPoolAllocator@VCrtAllocator@rapidjson@@@2@VCrtAllocator@2@@rapidjson@@QAE_NH@Z 100077d8 f i mdump.obj
 0001:0000680d       ?IsError@ParseResult@rapidjson@@QBE_NXZ 1000780d f i mdump.obj
 0001:00006814       ?LaunchHangDetection@MiniDumper@@QAEX_N@Z 10007814 f   mdump.obj
 0001:0000697f       ?MakeLower@?$CStringT@_WV?$StrTraitATL@_WV?$ChTraitsCRT@_W@ATL@@@ATL@@@ATL@@QAEAAV12@XZ 1000797f f i mdump.obj
 0001:000069a7       ?Malloc@?$MemoryPoolAllocator@VCrtAllocator@rapidjson@@@rapidjson@@QAEPAXI@Z 100079a7 f i mdump.obj
 0001:000069f9       ?Null@?$GenericDocument@U?$UTF16@_W@rapidjson@@V?$MemoryPoolAllocator@VCrtAllocator@rapidjson@@@2@VCrtAllocator@2@@rapidjson@@QAE_NXZ 100079f9 f i mdump.obj
 0001:00006a28       ?Realloc@CrtAllocator@rapidjson@@QAEPAXPAXII@Z 10007a28 f i mdump.obj
 0001:00006a4e       ?ReleaseBuffer@?$CSimpleStringT@_W$0A@@ATL@@QAEXH@Z 10007a4e f i mdump.obj
 0001:00006a7a       ?Resize@?$Stack@VCrtAllocator@rapidjson@@@internal@rapidjson@@AAEXI@Z 10007a7a f i mdump.obj
 0001:00006ab2       ?ResolveMiniDumpType@MiniDumper@@SA?AW4_BS_MINIDUMP_TYPE@MiniDmpSender@@XZ 10007ab2 f   mdump.obj
 0001:00006af2       ?SendReportThreaded@MiniDumper@@SGIPAX@Z 10007af2 f   mdump.obj
 0001:00006fce       ?SetArrayRaw@?$GenericValue@U?$UTF16@_W@rapidjson@@V?$MemoryPoolAllocator@VCrtAllocator@rapidjson@@@2@@rapidjson@@AAEXPAV12@IAAV?$MemoryPoolAllocator@VCrtAllocator@rapidjson@@@2@@Z 10007fce f i mdump.obj
 0001:00007014       ?SetObjectRaw@?$GenericValue@U?$UTF16@_W@rapidjson@@V?$MemoryPoolAllocator@VCrtAllocator@rapidjson@@@2@@rapidjson@@AAEXPAV?$GenericMember@U?$UTF16@_W@rapidjson@@V?$MemoryPoolAllocator@VCrtAllocator@rapidjson@@@2@@2@IAAV?$MemoryPoolAllocator@VCrtAllocator@rapidjson@@@2@@Z 10008014 f i mdump.obj
 0001:0000705a       ?SetStringRaw@?$GenericValue@U?$UTF16@_W@rapidjson@@V?$MemoryPoolAllocator@VCrtAllocator@rapidjson@@@2@@rapidjson@@AAEXU?$GenericStringRef@_W@2@AAV?$MemoryPoolAllocator@VCrtAllocator@rapidjson@@@2@@Z 1000805a f i mdump.obj
 0001:000070bf       ?ShrinkToFit@?$Stack@VCrtAllocator@rapidjson@@@internal@rapidjson@@QAEXXZ 100080bf f i mdump.obj
 0001:000070eb       ?StartArray@?$GenericDocument@U?$UTF16@_W@rapidjson@@V?$MemoryPoolAllocator@VCrtAllocator@rapidjson@@@2@VCrtAllocator@2@@rapidjson@@QAE_NXZ 100080eb f i mdump.obj
 0001:00007123       ?StartObject@?$GenericDocument@U?$UTF16@_W@rapidjson@@V?$MemoryPoolAllocator@VCrtAllocator@rapidjson@@@2@VCrtAllocator@2@@rapidjson@@QAE_NXZ 10008123 f i mdump.obj
 0001:0000715b       ?String@?$GenericDocument@U?$UTF16@_W@rapidjson@@V?$MemoryPoolAllocator@VCrtAllocator@rapidjson@@@2@VCrtAllocator@2@@rapidjson@@QAE_NPB_WI_N@Z 1000815b f i mdump.obj
 0001:000071e3       ?StringLowercase@?$ChTraitsCRT@_W@ATL@@SAPA_WPA_WI@Z 100081e3 f i mdump.obj
 0001:000071ff       ?StrtodNormalPrecision@internal@rapidjson@@YANNH@Z 100081ff f i mdump.obj
 0001:00007236       ?TerminateHangDetection@MiniDumper@@QAEXXZ 10008236 f   mdump.obj
 0001:0000726a       ?TopLevelUnhandledExceptionFilter@MiniDumper@@SGJPAU_EXCEPTION_POINTERS@@@Z 1000826a f   mdump.obj
 0001:000072ce       ?TrimLeft@?$CStringT@_WV?$StrTraitATL@_WV?$ChTraitsCRT@_W@ATL@@@ATL@@@ATL@@QAEAAV12@XZ 100082ce f i mdump.obj
 0001:00007332       ?TrimRight@?$CStringT@_WV?$StrTraitATL@_WV?$ChTraitsCRT@_W@ATL@@@ATL@@@ATL@@QAEAAV12@XZ 10008332 f i mdump.obj
 0001:00007388       ?Uint64@?$GenericDocument@U?$UTF16@_W@rapidjson@@V?$MemoryPoolAllocator@VCrtAllocator@rapidjson@@@2@VCrtAllocator@2@@rapidjson@@QAE_N_K@Z 10008388 f i mdump.obj
 0001:000073c0       ?Uint@?$GenericDocument@U?$UTF16@_W@rapidjson@@V?$MemoryPoolAllocator@VCrtAllocator@rapidjson@@@2@VCrtAllocator@2@@rapidjson@@QAE_NI@Z 100083c0 f i mdump.obj
 0001:000073f5       ?_Calculate_growth@?$vector@V?$CStringT@_WV?$StrTraitATL@_WV?$ChTraitsCRT@_W@ATL@@@ATL@@@ATL@@V?$allocator@V?$CStringT@_WV?$StrTraitATL@_WV?$ChTraitsCRT@_W@ATL@@@ATL@@@ATL@@@std@@@std@@ABEII@Z 100083f5 f i mdump.obj
 0001:00007421       ?_Calculate_growth@?$vector@VCrashAttribute@@V?$allocator@VCrashAttribute@@@std@@@std@@ABEII@Z 10008421 f i mdump.obj
 0001:0000744d       ?_Change_array@?$vector@V?$CStringT@_WV?$StrTraitATL@_WV?$ChTraitsCRT@_W@ATL@@@ATL@@@ATL@@V?$allocator@V?$CStringT@_WV?$StrTraitATL@_WV?$ChTraitsCRT@_W@ATL@@@ATL@@@ATL@@@std@@@std@@AAEXQAV?$CStringT@_WV?$StrTraitATL@_WV?$ChTraitsCRT@_W@ATL@@@ATL@@@ATL@@II@Z 1000844d f i mdump.obj
 0001:00007492       ?_Change_array@?$vector@VCrashAttribute@@V?$allocator@VCrashAttribute@@@std@@@std@@AAEXQAVCrashAttribute@@II@Z 10008492 f i mdump.obj
 0001:000074e6       ?_Destroy@?$vector@V?$CStringT@_WV?$StrTraitATL@_WV?$ChTraitsCRT@_W@ATL@@@ATL@@@ATL@@V?$allocator@V?$CStringT@_WV?$StrTraitATL@_WV?$ChTraitsCRT@_W@ATL@@@ATL@@@ATL@@@std@@@std@@AAEXPAV?$CStringT@_WV?$StrTraitATL@_WV?$ChTraitsCRT@_W@ATL@@@ATL@@@ATL@@0@Z 100084e6 f i mdump.obj
 0001:000074fc       ?_Destroy@?$vector@VCrashAttribute@@V?$allocator@VCrashAttribute@@@std@@@std@@AAEXPAVCrashAttribute@@0@Z 100084fc f i mdump.obj
 0001:00007519       ?_Tidy@?$vector@V?$CStringT@_WV?$StrTraitATL@_WV?$ChTraitsCRT@_W@ATL@@@ATL@@@ATL@@V?$allocator@V?$CStringT@_WV?$StrTraitATL@_WV?$ChTraitsCRT@_W@ATL@@@ATL@@@ATL@@@std@@@std@@AAEXXZ 10008519 f i mdump.obj
 0001:0000754b       ?_Tidy@?$vector@VCrashAttribute@@V?$allocator@VCrashAttribute@@@std@@@std@@AAEXXZ 1000854b f i mdump.obj
 0001:0000758c       ?_Xlength@?$vector@V?$CStringT@_WV?$StrTraitATL@_WV?$ChTraitsCRT@_W@ATL@@@ATL@@@ATL@@V?$allocator@V?$CStringT@_WV?$StrTraitATL@_WV?$ChTraitsCRT@_W@ATL@@@ATL@@@ATL@@@std@@@std@@CAXXZ 1000858c f i mdump.obj
 0001:00007597       ?_Xlength@?$vector@VCrashAttribute@@V?$allocator@VCrashAttribute@@@std@@@std@@CAXXZ 10008597 f i mdump.obj
 0001:000075a2       ?allocate@?$allocator@V?$CStringT@_WV?$StrTraitATL@_WV?$ChTraitsCRT@_W@ATL@@@ATL@@@ATL@@@std@@QAEPAV?$CStringT@_WV?$StrTraitATL@_WV?$ChTraitsCRT@_W@ATL@@@ATL@@@ATL@@I@Z 100085a2 f i mdump.obj
 0001:000075c3       ?allocate@?$allocator@VCrashAttribute@@@std@@QAEPAVCrashAttribute@@I@Z 100085c3 f i mdump.obj
 0001:000075e4       ?attributesToJson@MiniDumper@@QAE?AV?$CStringT@_WV?$StrTraitATL@_WV?$ChTraitsCRT@_W@ATL@@@ATL@@@ATL@@XZ 100085e4 f   mdump.obj
 0001:00007776       ?bugsplatMessage@MiniDumper@@SAIPB_WII@Z 10008776 f   mdump.obj
 0001:000077b3       ?capture@TotalUptimeAndCrashCalculator@@QAEX_N@Z 100087b3 f i mdump.obj
 0001:00007909       ?createAsanReport@MiniDumper@@QAEXPBD@Z 10008909 f   mdump.obj
 0001:00007a04       ?createReport@MiniDumper@@QAEXK@Z 10008a04 f   mdump.obj
 0001:00007a26       ?createReport@MiniDumper@@QAEXPAU_EXCEPTION_POINTERS@@@Z 10008a26 f   mdump.obj
 0001:00007a48       ?createReport@MiniDumper@@QAEXPB_W@Z 10008a48 f   mdump.obj
 0001:00007b29       ?deallocate@?$allocator@V?$CStringT@_WV?$StrTraitATL@_WV?$ChTraitsCRT@_W@ATL@@@ATL@@@ATL@@@std@@QAEXQAV?$CStringT@_WV?$StrTraitATL@_WV?$ChTraitsCRT@_W@ATL@@@ATL@@@ATL@@I@Z 10008b29 f i mdump.obj
 0001:00007b41       ?deallocate@?$allocator@VCrashAttribute@@@std@@QAEXQAVCrashAttribute@@I@Z 10008b41 f i mdump.obj
 0001:00007b59       ?debugMode@@YA_NXZ         10008b59 f   mdump.obj
 0001:00007bcb       ?disableNetworkAccess@MiniDumper@@QAE_N_N@Z 10008bcb f   mdump.obj
 0001:00007bda       ?eatException@@YA_NK@Z     10008bda f i mdump.obj
 0001:00007c4f       ?enableExceptionFilter@MiniDumper@@QAE_N_N@Z 10008c4f f   mdump.obj
 0001:00007c6e       ?erase@?$vector@VCrashAttribute@@V?$allocator@VCrashAttribute@@@std@@@std@@QAE?AV?$_Vector_iterator@V?$_Vector_val@U?$_Simple_types@VCrashAttribute@@@std@@@std@@@2@V?$_Vector_const_iterator@V?$_Vector_val@U?$_Simple_types@VCrashAttribute@@@std@@@std@@@2@@Z 10008c6e f i mdump.obj
 0001:00007ca2       ?getLogFilePath@MiniDumper@@QAEPB_WXZ 10008ca2 f   mdump.obj
 0001:00007ca6       ?getMiniDumpType@MiniDumper@@QBE?AW4_BS_MINIDUMP_TYPE@MiniDmpSender@@XZ 10008ca6 f   mdump.obj
 0001:00007cac       ?getRegistryBase@@YAXAAV?$CStringT@_WV?$StrTraitATL@_WV?$ChTraitsCRT@_W@ATL@@@ATL@@@ATL@@@Z 10008cac f   mdump.obj
 0001:00007cc9       ?getRegistryRoot@@YAXAAV?$CStringT@_WV?$StrTraitATL@_WV?$ChTraitsCRT@_W@ATL@@@ATL@@@ATL@@PB_W11@Z 10008cc9 f   mdump.obj
 0001:00007d38       ?initExceptionHandler@MiniDumper@@QAEXPB_W000K@Z 10008d38 f   mdump.obj
 0001:00007f90       ?invalid_parameter_handler@@YAXPB_W00II@Z 10008f90 f i mdump.obj
 0001:00007f99       ?isExceptionFilterEnabled@MiniDumper@@QBE_NXZ 10008f99 f   mdump.obj
 0001:00007f9f       ?isNetworkAccessDisabled@MiniDumper@@QBE_NXZ 10008f9f f   mdump.obj
 0001:00007fa5       ?logOutput@@YAXIPB_W_N@Z   10008fa5 f   mdump.obj
 0001:000081f2       ?removeAdditionalFile@MiniDumper@@QAE_NPB_W@Z 100091f2 f   mdump.obj
 0001:00008242       ?removeAttribute@MiniDumper@@QAE_NPB_W@Z 10009242 f   mdump.obj
 0001:00008281       ?resetDescriptionString@MiniDumper@@QAEXPB_W@Z 10009281 f   mdump.obj
 0001:000082ab       ?resetVersionString@MiniDumper@@QAEXPB_W@Z 100092ab f   mdump.obj
 0001:000082d3       ?sendAdditionalFile@MiniDumper@@QAEXPB_W@Z 100092d3 f   mdump.obj
 0001:0000830f       ?setAttribute@MiniDumper@@QAE_NPB_W0@Z 1000930f f   mdump.obj
 0001:00008357       ?setCallback@MiniDumper@@QAEXP6A_NIPAX0@Z@Z 10009357 f   mdump.obj
 0001:00008364       ?setDefaultUserDescription@MiniDumper@@QAEXPB_W@Z 10009364 f   mdump.obj
 0001:0000838e       ?setDefaultUserEmail@MiniDumper@@QAEXPB_W@Z 1000938e f   mdump.obj
 0001:000083b8       ?setDefaultUserName@MiniDumper@@QAEXPB_W@Z 100093b8 f   mdump.obj
 0001:000083e2       ?setFlags@MiniDumper@@QAE_NK@Z 100093e2 f   mdump.obj
 0001:0000842a       ?setGuardByteBufferSize@MiniDumper@@QAEHH@Z 1000942a f   mdump.obj
 0001:00008456       ?setHangDetectionTimeout@MiniDumper@@QAEHH@Z 10009456 f   mdump.obj
 0001:0000846c       ?setLogFilePath@MiniDumper@@QAEXPB_W@Z 1000946c f   mdump.obj
 0001:00008496       ?setMiniDumpType@MiniDumper@@QAEXW4_BS_MINIDUMP_TYPE@MiniDmpSender@@@Z 10009496 f   mdump.obj
 0001:000084a5       ?setNotes@MiniDumper@@QAEXPB_W@Z 100094a5 f   mdump.obj
 0001:000084cd       ?setResourceDllPath@MiniDumper@@QAEXPB_W@Z 100094cd f   mdump.obj
 0001:000084f7       ?setUserZipPath@MiniDumper@@QAEXPB_W@Z 100094f7 f   mdump.obj
 0001:00008521       ?signal_handler@@YAXH@Z    10009521 f i mdump.obj
 0001:0000852a       ?terminator@@YAXXZ         1000952a f i mdump.obj
 0001:00008533       __fwprintf_p               10009533 f i mdump.obj
 0001:0000854c       __vfwprintf_l              1000954c f i mdump.obj
 0001:0000856f       __vfwprintf_p_l            1000956f f i mdump.obj
 0001:00008611       _wprintf                   10009611 f i mdump.obj
 0001:00008630       ??0MiniDmpSender@@QAE@PB_W000K@Z 10009630 f   BugSplatNative.obj
 0001:000086c9       ??1MiniDmpSender@@UAE@XZ   100096c9 f   BugSplatNative.obj
 0001:000086e5       ?createAsanReport@MiniDmpSender@@QAEXPBD@Z 100096e5 f   BugSplatNative.obj
 0001:000086f1       ?createReport@MiniDmpSender@@QAEXPAU_EXCEPTION_POINTERS@@@Z 100096f1 f   BugSplatNative.obj
 0001:000086fd       ?createReport@MiniDmpSender@@QAEXPB_W@Z 100096fd f   BugSplatNative.obj
 0001:00008709       ?disableNetworkAccess@MiniDmpSender@@QAE_N_N@Z 10009709 f   BugSplatNative.obj
 0001:00008715       ?enableExceptionFilter@MiniDmpSender@@QAE_N_N@Z 10009715 f   BugSplatNative.obj
 0001:00008721       ?getFlags@MiniDmpSender@@QBEKXZ 10009721 f   BugSplatNative.obj
 0001:00008728       ?getMiniDumpType@MiniDmpSender@@QBE?AW4_BS_MINIDUMP_TYPE@1@XZ 10009728 f   BugSplatNative.obj
 0001:00008730       ?getMinidumpPath@MiniDmpSender@@QAEXPA_WI@Z 10009730 f   BugSplatNative.obj
 0001:0000874d       ?imp@MiniDmpSender@@QAEPAXXZ 1000974d f   BugSplatNative.obj
 0001:00008753       ?isExceptionFilterEnabled@MiniDmpSender@@QBE_NXZ 10009753 f   BugSplatNative.obj
 0001:0000875b       ?isNetworkAccessDisabled@MiniDmpSender@@QBE_NXZ 1000975b f   BugSplatNative.obj
 0001:00008763       ?removeAdditionalFile@MiniDmpSender@@QAE_NPB_W@Z 10009763 f   BugSplatNative.obj
 0001:0000876f       ?resetAppIdentifier@MiniDmpSender@@QAEXPB_W@Z 1000976f f   BugSplatNative.obj
 0001:0000877b       ?resetVersionString@MiniDmpSender@@QAEXPB_W@Z 1000977b f   BugSplatNative.obj
 0001:00008787       ?sendAdditionalFile@MiniDmpSender@@QAEXPB_W@Z 10009787 f   BugSplatNative.obj
 0001:00008793       ?setAttribute@MiniDmpSender@@QAE_NPB_W0@Z 10009793 f   BugSplatNative.obj
 0001:000087aa       ?setCallback@MiniDmpSender@@QAEXP6A_NIPAX0@Z@Z 100097aa f   BugSplatNative.obj
 0001:000087b6       ?setDefaultUserDescription@MiniDmpSender@@QAEXPB_W@Z 100097b6 f   BugSplatNative.obj
 0001:000087c2       ?setDefaultUserEmail@MiniDmpSender@@QAEXPB_W@Z 100097c2 f   BugSplatNative.obj
 0001:000087ce       ?setDefaultUserName@MiniDmpSender@@QAEXPB_W@Z 100097ce f   BugSplatNative.obj
 0001:000087da       ?setFlags@MiniDmpSender@@QAE_NK@Z 100097da f   BugSplatNative.obj
 0001:000087e6       ?setGuardByteBufferSize@MiniDmpSender@@QAEHH@Z 100097e6 f   BugSplatNative.obj
 0001:000087f2       ?setHangDetectionTimeout@MiniDmpSender@@QAEHH@Z 100097f2 f   BugSplatNative.obj
 0001:000087fe       ?setLogFilePath@MiniDmpSender@@QAEXPB_W@Z 100097fe f   BugSplatNative.obj
 0001:0000880a       ?setMiniDumpType@MiniDmpSender@@QAEXW4_BS_MINIDUMP_TYPE@1@@Z 1000980a f   BugSplatNative.obj
 0001:00008816       ?setNotes@MiniDmpSender@@QAEXPB_W@Z 10009816 f   BugSplatNative.obj
 0001:00008822       ?setResourceDllPath@MiniDmpSender@@QAEXPB_W@Z 10009822 f   BugSplatNative.obj
 0001:0000882e       ?setUserZipPath@MiniDmpSender@@QAEXPB_W@Z 1000982e f   BugSplatNative.obj
 0001:0000883a       ?unhandledExceptionHandler@MiniDmpSender@@QAEJPAU_EXCEPTION_POINTERS@@@Z 1000983a f   BugSplatNative.obj
 0001:00008843       ?Lock@CAtlModule@ATL@@UAEJXZ 10009843 f i BugSplatNativeApp.obj
 0001:0000884d       ?Unlock@CAtlModule@ATL@@UAEJXZ 1000984d f i BugSplatNativeApp.obj
 0001:00008857       ?GetLockCount@CAtlModule@ATL@@UAEJXZ 10009857 f i BugSplatNativeApp.obj
 0001:0000885b       ?GetGITPtr@CAtlModule@ATL@@UAEJPAPAUIGlobalInterfaceTable@@@Z 1000985b f i BugSplatNativeApp.obj
 0001:000088a7       ?AddCommonRGSReplacements@?$CAtlModuleT@VCComModule@ATL@@@ATL@@UAEJPAUIRegistrarBase@@@Z 100098a7 f i BugSplatNativeApp.obj
 0001:000088c1       ?UpdateRegistryFromResourceD@CComModule@ATL@@UAGJPB_WHPAU_ATL_REGMAP_ENTRY@2@@Z 100098c1 f i BugSplatNativeApp.obj
 0001:000088c9       ?UpdateRegistryFromResourceD@CComModule@ATL@@UAGJIHPAU_ATL_REGMAP_ENTRY@2@@Z 100098c9 f i BugSplatNativeApp.obj
 0001:000088d1       ?UpdateRegistryFromResource@CComModule@ATL@@UAGJPB_WHPAU_ATL_REGMAP_ENTRY@2@@Z 100098d1 f i BugSplatNativeApp.obj
 0001:000088da       ?UpdateRegistryFromResource@CComModule@ATL@@UAGJIHPAU_ATL_REGMAP_ENTRY@2@@Z 100098da f i BugSplatNativeApp.obj
 0001:000088e3       ??_ECComModule@ATL@@UAEPAXI@Z 100098e3 f i BugSplatNativeApp.obj
 0001:000088e3       ??_GCComModule@ATL@@UAEPAXI@Z 100098e3 f i BugSplatNativeApp.obj
 0001:0000890b       ??_GCAppModule@WTL@@UAEPAXI@Z 1000990b f i BugSplatNativeApp.obj
 0001:0000890b       ??_ECAppModule@WTL@@UAEPAXI@Z 1000990b f i BugSplatNativeApp.obj
 0001:00008933       ?QueryInterface@CRegObject@ATL@@UAGJABU_GUID@@PAPAX@Z 10009933 f i BugSplatNativeApp.obj
 0001:0000893b       ?AddRef@CRegObject@ATL@@UAGKXZ 1000993b f i BugSplatNativeApp.obj
 0001:00008941       ?Release@CRegObject@ATL@@UAGKXZ 10009941 f i BugSplatNativeApp.obj
 0001:00008946       ?AddReplacement@CRegObject@ATL@@UAGJPB_W0@Z 10009946 f i BugSplatNativeApp.obj
 0001:000089a5       ?ClearReplacements@CRegObject@ATL@@UAGJXZ 100099a5 f i BugSplatNativeApp.obj
 0001:000089d0       ??_GCRegObject@ATL@@UAEPAXI@Z 100099d0 f i BugSplatNativeApp.obj
 0001:000089d0       ??_ECRegObject@ATL@@UAEPAXI@Z 100099d0 f i BugSplatNativeApp.obj
 0001:000089f2       ??$AtlMultiplyThrow@I@ATL@@YAIII@Z 100099f2 f i BugSplatNativeApp.obj
 0001:00008a18       ??0CAtlModule@ATL@@QAE@XZ  10009a18 f i BugSplatNativeApp.obj
 0001:00008a59       ??0CParseBuffer@CRegParser@ATL@@QAE@H@Z 10009a59 f i BugSplatNativeApp.obj
 0001:00008a8f       ??0CRegObject@ATL@@QAE@XZ  10009a8f f i BugSplatNativeApp.obj
 0001:00008ac5       ??0_ATL_MODULE70@ATL@@QAE@XZ 10009ac5 f i BugSplatNativeApp.obj
 0001:00008adc       ??1?$CAtlSafeAllocBufferManager@VCCRTAllocator@ATL@@@_ATL_SAFE_ALLOCA_IMPL@ATL@@QAE@XZ 10009adc f i BugSplatNativeApp.obj
 0001:00008af5       ??1?$CAutoVectorPtr@_W@ATL@@QAE@XZ 10009af5 f i BugSplatNativeApp.obj
 0001:00008b05       ??1?$CTempBuffer@E$0BAA@VCCRTAllocator@ATL@@@ATL@@QAE@XZ 10009b05 f i BugSplatNativeApp.obj
 0001:00008b11       ??1?$CTempBuffer@_W$0BAA@VCCRTAllocator@ATL@@@ATL@@QAE@XZ 10009b11 f i BugSplatNativeApp.obj
 0001:00008b1d       ??1?$CTempBuffer@_W$0EAA@VCCRTAllocator@ATL@@@ATL@@QAE@XZ 10009b1d f i BugSplatNativeApp.obj
 0001:00008b29       ??1CAtlModule@ATL@@UAE@XZ  10009b29 f i BugSplatNativeApp.obj
 0001:00008b2e       ??1CParseBuffer@CRegParser@ATL@@QAE@XZ 10009b2e f i BugSplatNativeApp.obj
 0001:00008b38       ??1CRegKey@ATL@@QAE@XZ     10009b38 f i BugSplatNativeApp.obj
 0001:00008b3d       ??1CRegObject@ATL@@UAE@XZ  10009b3d f i BugSplatNativeApp.obj
 0001:00008b71       ??A?$CSimpleArray@PAUHWND__@@V?$CSimpleArrayEqualHelper@PAUHWND__@@@ATL@@@ATL@@QAEAAPAUHWND__@@H@Z 10009b71 f i BugSplatNativeApp.obj
 0001:00008b96       ?Add@?$CSimpleMap@PA_WPA_WVCExpansionVectorEqualHelper@ATL@@@ATL@@QAEHABQA_W0@Z 10009b96 f i BugSplatNativeApp.obj
 0001:00008beb       ?Add@CExpansionVector@ATL@@QAEHPB_W0@Z 10009beb f i BugSplatNativeApp.obj
 0001:00008cd9       ?AddString@CParseBuffer@CRegParser@ATL@@QAEHPB_W@Z 10009cd9 f i BugSplatNativeApp.obj
 0001:00008d15       ?AddValue@CRegParser@ATL@@IAEJAAVCRegKey@2@PB_WPA_W@Z 10009d15 f i BugSplatNativeApp.obj
 0001:00009095       ?Allocate@?$CTempBuffer@E$0BAA@VCCRTAllocator@ATL@@@ATL@@QAEPAEI@Z 1000a095 f i BugSplatNativeApp.obj
 0001:000090c4       ?Allocate@?$CTempBuffer@_W$0BAA@VCCRTAllocator@ATL@@@ATL@@QAEPA_WI@Z 1000a0c4 f i BugSplatNativeApp.obj
 0001:000090f3       ?Allocate@?$CTempBuffer@_W$0EAA@VCCRTAllocator@ATL@@@ATL@@QAEPA_WI@Z 1000a0f3 f i BugSplatNativeApp.obj
 0001:00009122       ?AllocateHeap@?$CTempBuffer@E$0BAA@VCCRTAllocator@ATL@@@ATL@@AAEXI@Z 1000a122 f i BugSplatNativeApp.obj
 0001:00009147       ?AllocateHeap@?$CTempBuffer@_W$0BAA@VCCRTAllocator@ATL@@@ATL@@AAEXI@Z 1000a147 f i BugSplatNativeApp.obj
 0001:0000916c       ?AllocateHeap@?$CTempBuffer@_W$0EAA@VCCRTAllocator@ATL@@@ATL@@AAEXI@Z 1000a16c f i BugSplatNativeApp.obj
 0001:00009191       ?Append@CParseBuffer@CRegParser@ATL@@QAEHPB_WH@Z 1000a191 f i BugSplatNativeApp.obj
 0001:0000921f       ?AtlCoTaskMemCAlloc@ATL@@YAPAXKK@Z 1000a21f f i BugSplatNativeApp.obj
 0001:0000924c       ?AtlCoTaskMemRecalloc@ATL@@YAPAXPAXKK@Z 1000a24c f i BugSplatNativeApp.obj
 0001:0000927c       ?AtlHresultFromLastError@ATL@@YAJXZ 1000a27c f i BugSplatNativeApp.obj
 0001:00009293       ?AtlHresultFromWin32@ATL@@YAJK@Z 1000a293 f i BugSplatNativeApp.obj
 0001:000092a8       ?CanForceRemoveKey@CRegParser@ATL@@IAEHPB_W@Z 1000a2a8 f i BugSplatNativeApp.obj
 0001:000092d7       ?ChToByte@CRegParser@ATL@@KAE_W@Z 1000a2d7 f i BugSplatNativeApp.obj
 0001:0000935f       ?ClearReplacements@CExpansionVector@ATL@@QAEJXZ 1000a35f f i BugSplatNativeApp.obj
 0001:0000939c       ?Close@CRegKey@ATL@@QAEJXZ 1000a39c f i BugSplatNativeApp.obj
 0001:000093b6       ?DeleteSubKey@CRegKey@ATL@@QAEJPB_W@Z 1000a3b6 f i BugSplatNativeApp.obj
 0001:0000942f       ?EndOfVar@CRegParser@ATL@@IAEHXZ 1000a42f f i BugSplatNativeApp.obj
 0001:0000944f       ?EscapeSingleQuote@CAtlModule@ATL@@SAXPA_WIPB_W@Z 1000a44f f i BugSplatNativeApp.obj
 0001:0000949e       ?FindKey@?$CSimpleMap@PA_WPA_WVCExpansionVectorEqualHelper@ATL@@@ATL@@QBEHABQA_W@Z 1000a49e f i BugSplatNativeApp.obj
 0001:000094d5       ?FreeHeap@?$CTempBuffer@E$0BAA@VCCRTAllocator@ATL@@@ATL@@AAEXXZ 1000a4d5 f i BugSplatNativeApp.obj
 0001:000094de       ?FreeHeap@?$CTempBuffer@_W$0BAA@VCCRTAllocator@ATL@@@ATL@@AAEXXZ 1000a4de f i BugSplatNativeApp.obj
 0001:000094e7       ?FreeHeap@?$CTempBuffer@_W$0EAA@VCCRTAllocator@ATL@@@ATL@@AAEXXZ 1000a4e7 f i BugSplatNativeApp.obj
 0001:000094f0       ?GetKeyAt@?$CSimpleMap@PA_WPA_WVCExpansionVectorEqualHelper@ATL@@@ATL@@QBEAAPA_WH@Z 1000a4f0 f i BugSplatNativeApp.obj
 0001:00009515       ?GetValueAt@?$CSimpleMap@PA_WPA_WVCExpansionVectorEqualHelper@ATL@@@ATL@@QBEAAPA_WH@Z 1000a515 f i BugSplatNativeApp.obj
 0001:0000953b       ?HKeyFromString@CRegParser@ATL@@KAPAUHKEY__@@PA_W@Z 1000a53b f i BugSplatNativeApp.obj
 0001:00009569       ?HasSubKeys@CRegParser@ATL@@IAEHPAUHKEY__@@@Z 1000a569 f i BugSplatNativeApp.obj
 0001:0000959e       ?Init@CAppModule@WTL@@QAEJPAU_ATL_OBJMAP_ENTRY30@ATL@@PAUHINSTANCE__@@PBU_GUID@@@Z 1000a59e f i BugSplatNativeApp.obj
 0001:00009622       ?Init@CComModule@ATL@@QAEJPAU_ATL_OBJMAP_ENTRY30@2@PAUHINSTANCE__@@PBU_GUID@@@Z 1000a622 f i BugSplatNativeApp.obj
 0001:00009681       ?InternalSetAtIndex@?$CSimpleMap@PA_WPA_WVCExpansionVectorEqualHelper@ATL@@@ATL@@QAEXHABQA_W0@Z 1000a681 f i BugSplatNativeApp.obj
 0001:000096b5       ?IsSpace@CRegParser@ATL@@IAEH_W@Z 1000a6b5 f i BugSplatNativeApp.obj
 0001:000096db       ?Lookup@?$CSimpleMap@PA_WPA_WVCExpansionVectorEqualHelper@ATL@@@ATL@@QBEPA_WABQA_W@Z 1000a6db f i BugSplatNativeApp.obj
 0001:00009701       ?NextToken@CRegParser@ATL@@IAEJPA_W@Z 1000a701 f i BugSplatNativeApp.obj
 0001:00009839       ?Open@CRegKey@ATL@@QAEJPAUHKEY__@@PB_WK@Z 1000a839 f i BugSplatNativeApp.obj
 0001:0000988e       ?PreProcessBuffer@CRegParser@ATL@@QAEJPA_WPAPA_W@Z 1000a88e f i BugSplatNativeApp.obj
 0001:00009adb       ?RecurseDeleteKey@CRegKey@ATL@@QAEJPB_W@Z 1000aadb f i BugSplatNativeApp.obj
 0001:00009bc9       ?RegCreateKeyExW@CAtlTransactionManager@ATL@@QAEJPAUHKEY__@@PB_WKPA_WKKQAU_SECURITY_ATTRIBUTES@@PAPAU3@PAK@Z 1000abc9 f i BugSplatNativeApp.obj
 0001:00009c2c       ?RegDeleteKeyW@CAtlTransactionManager@ATL@@QAEJPAUHKEY__@@PB_W@Z 1000ac2c f i BugSplatNativeApp.obj
 0001:00009c7e       ?RegOpenKeyExW@CAtlTransactionManager@ATL@@QAEJPAUHKEY__@@PB_WKKPAPAU3@@Z 1000ac7e f i BugSplatNativeApp.obj
 0001:00009cd5       ?RegisterBuffer@CRegParser@ATL@@QAEJPA_WH@Z 1000acd5 f i BugSplatNativeApp.obj
 0001:00009e1c       ?RegisterFromResource@CRegObject@ATL@@IAEJPB_W00H@Z 1000ae1c f i BugSplatNativeApp.obj
 0001:00009f93       ?RegisterSubkeys@CRegParser@ATL@@IAEJPA_WPAUHKEY__@@HH@Z 1000af93 f i BugSplatNativeApp.obj
 0001:0000a612       ?RemoveAll@?$CSimpleArray@PAUHWND__@@V?$CSimpleArrayEqualHelper@PAUHWND__@@@ATL@@@ATL@@QAEXXZ 1000b612 f i BugSplatNativeApp.obj
 0001:0000a62f       ?RemoveAll@?$CSimpleMap@KPAVCMessageLoop@WTL@@V?$CSimpleMapEqualHelper@KPAVCMessageLoop@WTL@@@ATL@@@ATL@@QAEXXZ 1000b62f f i BugSplatNativeApp.obj
 0001:0000a65b       ?RemoveAll@?$CSimpleMap@PA_WPA_WVCExpansionVectorEqualHelper@ATL@@@ATL@@QAEXXZ 1000b65b f i BugSplatNativeApp.obj
 0001:0000a687       ?ResourceRegister@CRegObject@ATL@@QAGJPB_WI0@Z 1000b687 f i BugSplatNativeApp.obj
 0001:0000a6b8       ?ResourceRegisterSz@CRegObject@ATL@@QAGJPB_W00@Z 1000b6b8 f i BugSplatNativeApp.obj
 0001:0000a6fa       ?ResourceUnregister@CRegObject@ATL@@QAGJPB_WI0@Z 1000b6fa f i BugSplatNativeApp.obj
 0001:0000a72a       ?ResourceUnregisterSz@CRegObject@ATL@@QAGJPB_W00@Z 1000b72a f i BugSplatNativeApp.obj
 0001:0000a769       ?SetMultiStringValue@CRegKey@ATL@@QAEJPB_W0@Z 1000b769 f i BugSplatNativeApp.obj
 0001:0000a7b1       ?SetStringValue@CRegKey@ATL@@QAEJPB_W0K@Z 1000b7b1 f i BugSplatNativeApp.obj
 0001:0000a7eb       ?SkipAssignment@CRegParser@ATL@@IAEJPA_W@Z 1000b7eb f i BugSplatNativeApp.obj
 0001:0000a850       ?SkipWhiteSpace@CRegParser@ATL@@IAEXXZ 1000b850 f i BugSplatNativeApp.obj
 0001:0000a872       ?StrChrW@CRegParser@ATL@@KAPA_WPA_W_W@Z 1000b872 f i BugSplatNativeApp.obj
 0001:0000a8af       ?StrFromMap@CRegObject@ATL@@QAEPB_WPA_W@Z 1000b8af f i BugSplatNativeApp.obj
 0001:0000a8dd       ?Term@CAppModule@WTL@@QAEXXZ 1000b8dd f i BugSplatNativeApp.obj
 0001:0000a907       ?Term@CAtlModule@ATL@@QAEXXZ 1000b907 f i BugSplatNativeApp.obj
 0001:0000a95a       ?Term@CComModule@ATL@@QAEXXZ 1000b95a f i BugSplatNativeApp.obj
 0001:0000a9b2       ?TermSettingChangeNotify@CAppModule@WTL@@QAEXXZ 1000b9b2 f i BugSplatNativeApp.obj
 0001:0000aa0c       ?UpdateRegistryFromResource@CAtlModule@ATL@@QAGJIHPAU_ATL_REGMAP_ENTRY@2@@Z 1000ba0c f i BugSplatNativeApp.obj
 0001:0000abd1       ?UpdateRegistryFromResource@CAtlModule@ATL@@QAGJPB_WHPAU_ATL_REGMAP_ENTRY@2@@Z 1000bbd1 f i BugSplatNativeApp.obj
 0001:0000ad99       ?VTFromRegType@CRegParser@ATL@@KAHPB_WAAG@Z 1000bd99 f i BugSplatNativeApp.obj
 0001:0000ae06       ?ocscpy_s@@YA_NPA_WIPB_W@Z 1000be06 f i BugSplatNativeApp.obj
 0001:0000ae40       _DllMain@12                1000be40 f   BugSplatNativeApp.obj
 0001:0000aef2       ?PiiReplaceUserInPath@@YA?AV?$CStringT@_WV?$StrTraitATL@_WV?$ChTraitsCRT@_W@ATL@@@ATL@@@ATL@@V12@@Z 1000bef2 f   Pii.obj
 0001:0000b026       ??1stringdispid@CComTypeInfoHolder@ATL@@QAE@XZ 1000c026 f i StdAfx.obj
 0001:0000b02f       ??_Estringdispid@CComTypeInfoHolder@ATL@@QAEPAXI@Z 1000c02f f i StdAfx.obj
 0001:0000b0ba       _InternetOpenW@20          1000c0ba f   wininet:WININET.dll
 0001:0000b0c0       _InternetCloseHandle@4     1000c0c0 f   wininet:WININET.dll
 0001:0000b0c6       _InternetConnectW@32       1000c0c6 f   wininet:WININET.dll
 0001:0000b0cc       _InternetReadFile@16       1000c0cc f   wininet:WININET.dll
 0001:0000b0d2       _InternetQueryOptionW@16   1000c0d2 f   wininet:WININET.dll
 0001:0000b0d8       _InternetSetOptionW@16     1000c0d8 f   wininet:WININET.dll
 0001:0000b0de       _HttpOpenRequestW@32       1000c0de f   wininet:WININET.dll
 0001:0000b0e4       _HttpSendRequestW@20       1000c0e4 f   wininet:WININET.dll
 0001:0000b0ea       _HttpQueryInfoW@20         1000c0ea f   wininet:WININET.dll
 0001:0000b0f0       _InternetAttemptConnect@4  1000c0f0 f   wininet:WININET.dll
 0001:0000b0f6       _PathFileExistsW@4         1000c0f6 f   shlwapi:SHLWAPI.dll
 0001:0000b0fc       _PathAppendW@8             1000c0fc f   shlwapi:SHLWAPI.dll
 0001:0000b102       _PathFindExtensionW@4      1000c102 f   shlwapi:SHLWAPI.dll
 0001:0000b108       _PathFindFileNameW@4       1000c108 f   shlwapi:SHLWAPI.dll
 0001:0000b10e       _PathRemoveExtensionW@4    1000c10e f   shlwapi:SHLWAPI.dll
 0001:0000b114       _PathStripPathW@4          1000c114 f   shlwapi:SHLWAPI.dll
 0001:0000b11a       _UrlEscapeW@16             1000c11a f   shlwapi:SHLWAPI.dll
 0001:0000b120       _CreateFileW@28            1000c120 f   kernel32:KERNEL32.dll
 0001:0000b126       _GetFileSize@8             1000c126 f   kernel32:KERNEL32.dll
 0001:0000b12c       _DecodePointer@4           1000c12c f   kernel32:KERNEL32.dll
 0001:0000b132       _CloseHandle@4             1000c132 f   kernel32:KERNEL32.dll
 0001:0000b138       _RaiseException@16         1000c138 f   kernel32:KERNEL32.dll
 0001:0000b13e       _GetLastError@0            1000c13e f   kernel32:KERNEL32.dll
 0001:0000b144       _HeapDestroy@4             1000c144 f   kernel32:KERNEL32.dll
 0001:0000b14a       _HeapAlloc@12              1000c14a f   kernel32:KERNEL32.dll
 0001:0000b150       _HeapReAlloc@16            1000c150 f   kernel32:KERNEL32.dll
 0001:0000b156       _HeapFree@12               1000c156 f   kernel32:KERNEL32.dll
 0001:0000b15c       _HeapSize@12               1000c15c f   kernel32:KERNEL32.dll
 0001:0000b162       _GetProcessHeap@0          1000c162 f   kernel32:KERNEL32.dll
 0001:0000b168       _InitializeCriticalSectionEx@12 1000c168 f   kernel32:KERNEL32.dll
 0001:0000b16e       _DeleteCriticalSection@4   1000c16e f   kernel32:KERNEL32.dll
 0001:0000b174       _CreateFileMappingW@24     1000c174 f   kernel32:KERNEL32.dll
 0001:0000b17a       _MapViewOfFile@20          1000c17a f   kernel32:KERNEL32.dll
 0001:0000b180       _UnmapViewOfFile@4         1000c180 f   kernel32:KERNEL32.dll
 0001:0000b186       _FindResourceExW@16        1000c186 f   kernel32:KERNEL32.dll
 0001:0000b18c       _LoadResource@8            1000c18c f   kernel32:KERNEL32.dll
 0001:0000b192       _LockResource@4            1000c192 f   kernel32:KERNEL32.dll
 0001:0000b198       _SizeofResource@8          1000c198 f   kernel32:KERNEL32.dll
 0001:0000b19e       _FindResourceW@12          1000c19e f   kernel32:KERNEL32.dll
 0001:0000b1a4       _MultiByteToWideChar@24    1000c1a4 f   kernel32:KERNEL32.dll
 0001:0000b1aa       _WideCharToMultiByte@32    1000c1aa f   kernel32:KERNEL32.dll
 0001:0000b1b0       _DeleteFileW@4             1000c1b0 f   kernel32:KERNEL32.dll
 0001:0000b1b6       _GetTempPathW@8            1000c1b6 f   kernel32:KERNEL32.dll
 0001:0000b1bc       _GetCurrentProcess@0       1000c1bc f   kernel32:KERNEL32.dll
 0001:0000b1c2       _GetCurrentProcessId@0     1000c1c2 f   kernel32:KERNEL32.dll
 0001:0000b1c8       _GetCurrentThreadId@0      1000c1c8 f   kernel32:KERNEL32.dll
 0001:0000b1ce       _OpenThread@12             1000c1ce f   kernel32:KERNEL32.dll
 0001:0000b1d4       _SuspendThread@4           1000c1d4 f   kernel32:KERNEL32.dll
 0001:0000b1da       _ResumeThread@4            1000c1da f   kernel32:KERNEL32.dll
 0001:0000b1e0       _GetProcessId@4            1000c1e0 f   kernel32:KERNEL32.dll
 0001:0000b1e6       _GetThreadContext@8        1000c1e6 f   kernel32:KERNEL32.dll
 0001:0000b1ec       _GetProcAddress@8          1000c1ec f   kernel32:KERNEL32.dll
 0001:0000b1f2       _LoadLibraryW@4            1000c1f2 f   kernel32:KERNEL32.dll
 0001:0000b1f8       _LocalFree@4               1000c1f8 f   kernel32:KERNEL32.dll
 0001:0000b1fe       _FormatMessageW@28         1000c1fe f   kernel32:KERNEL32.dll
 0001:0000b204       _CreateToolhelp32Snapshot@8 1000c204 f   kernel32:KERNEL32.dll
 0001:0000b20a       _Thread32First@8           1000c20a f   kernel32:KERNEL32.dll
 0001:0000b210       _Thread32Next@8            1000c210 f   kernel32:KERNEL32.dll
 0001:0000b216       _OutputDebugStringW@4      1000c216 f   kernel32:KERNEL32.dll
 0001:0000b21c       _SetUnhandledExceptionFilter@4 1000c21c f   kernel32:KERNEL32.dll
 0001:0000b222       _SetLastError@4            1000c222 f   kernel32:KERNEL32.dll
 0001:0000b228       _SetErrorMode@4            1000c228 f   kernel32:KERNEL32.dll
 0001:0000b22e       _EnterCriticalSection@4    1000c22e f   kernel32:KERNEL32.dll
 0001:0000b234       _LeaveCriticalSection@4    1000c234 f   kernel32:KERNEL32.dll
 0001:0000b23a       _InitializeCriticalSectionAndSpinCount@8 1000c23a f   kernel32:KERNEL32.dll
 0001:0000b240       _WaitForSingleObject@8     1000c240 f   kernel32:KERNEL32.dll
 0001:0000b246       _TerminateProcess@8        1000c246 f   kernel32:KERNEL32.dll
 0001:0000b24c       _CreateProcessW@40         1000c24c f   kernel32:KERNEL32.dll
 0001:0000b252       _FlushInstructionCache@12  1000c252 f   kernel32:KERNEL32.dll
 0001:0000b258       _OpenProcess@12            1000c258 f   kernel32:KERNEL32.dll
 0001:0000b25e       _GetSystemTime@4           1000c25e f   kernel32:KERNEL32.dll
 0001:0000b264       _VirtualProtect@16         1000c264 f   kernel32:KERNEL32.dll
 0001:0000b26a       _VirtualQuery@12           1000c26a f   kernel32:KERNEL32.dll
 0001:0000b270       _FreeLibrary@4             1000c270 f   kernel32:KERNEL32.dll
 0001:0000b276       _GetModuleFileNameW@12     1000c276 f   kernel32:KERNEL32.dll
 0001:0000b27c       _GetModuleHandleW@4        1000c27c f   kernel32:KERNEL32.dll
 0001:0000b282       _WritePrivateProfileStringW@16 1000c282 f   kernel32:KERNEL32.dll
 0001:0000b288       _SystemTimeToFileTime@8    1000c288 f   kernel32:KERNEL32.dll
 0001:0000b28e       _LoadLibraryExW@12         1000c28e f   kernel32:KERNEL32.dll
 0001:0000b294       _lstrcmpiW@8               1000c294 f   kernel32:KERNEL32.dll
 0001:0000b29a       _UnregisterClassW@8        1000c29a f   user32:USER32.dll
 0001:0000b2a0       _MessageBoxW@16            1000c2a0 f   user32:USER32.dll
 0001:0000b2a6       _LoadStringW@16            1000c2a6 f   user32:USER32.dll
 0001:0000b2ac       _DestroyWindow@4           1000c2ac f   user32:USER32.dll
 0001:0000b2b2       _CharNextW@4               1000c2b2 f   user32:USER32.dll
 0001:0000b2b8       _RegCloseKey@4             1000c2b8 f   advapi32:ADVAPI32.dll
 0001:0000b2be       _RegOpenKeyExW@20          1000c2be f   advapi32:ADVAPI32.dll
 0001:0000b2c4       _RegQueryValueExW@24       1000c2c4 f   advapi32:ADVAPI32.dll
 0001:0000b2ca       _RegCreateKeyW@12          1000c2ca f   advapi32:ADVAPI32.dll
 0001:0000b2d0       _RegOpenKeyW@12            1000c2d0 f   advapi32:ADVAPI32.dll
 0001:0000b2d6       _RegSetValueExW@24         1000c2d6 f   advapi32:ADVAPI32.dll
 0001:0000b2dc       _RegCreateKeyExW@36        1000c2dc f   advapi32:ADVAPI32.dll
 0001:0000b2e2       _RegDeleteKeyW@8           1000c2e2 f   advapi32:ADVAPI32.dll
 0001:0000b2e8       _RegDeleteValueW@8         1000c2e8 f   advapi32:ADVAPI32.dll
 0001:0000b2ee       _RegEnumKeyExW@32          1000c2ee f   advapi32:ADVAPI32.dll
 0001:0000b2f4       _RegQueryInfoKeyW@48       1000c2f4 f   advapi32:ADVAPI32.dll
 0001:0000b2fa       _CoCreateInstance@20       1000c2fa f   ole32:ole32.dll
 0001:0000b300       _CoTaskMemAlloc@4          1000c300 f   ole32:ole32.dll
 0001:0000b306       _CoTaskMemRealloc@8        1000c306 f   ole32:ole32.dll
 0001:0000b30c       _CoTaskMemFree@4           1000c30c f   ole32:ole32.dll
 0001:0000b312       _VarUI4FromStr@16          1000c312 f   oleaut32:OLEAUT32.dll
 0001:0000b318       _SysFreeString@4           1000c318 f   oleaut32:OLEAUT32.dll
 0001:0000b31e       ??$?2PAUHINSTANCE__@@@Wrapper@?$CSimpleArray@PAUHINSTANCE__@@V?$CSimpleArrayEqualHelper@PAUHINSTANCE__@@@ATL@@@ATL@@SAPAXIPAPAUHINSTANCE__@@@Z 1000c31e f i atls:atlbase.obj
 0001:0000b326       ??0?$CComCritSecLock@VCComCriticalSection@ATL@@@ATL@@QAE@AAVCComCriticalSection@1@_N@Z 1000c326 f i atls:atlbase.obj
 0001:0000b34d       ??0?$CSimpleArray@PAUHINSTANCE__@@V?$CSimpleArrayEqualHelper@PAUHINSTANCE__@@@ATL@@@ATL@@QAE@XZ 1000c34d f i atls:atlbase.obj
 0001:0000b35a       ??0CAtlBaseModule@ATL@@QAE@XZ 1000c35a f   atls:atlbase.obj
 0001:0000b3ad       ??0CComCriticalSection@ATL@@QAE@XZ 1000c3ad f i atls:atlbase.obj
 0001:0000b3c1       ??0Wrapper@?$CSimpleArray@PAUHINSTANCE__@@V?$CSimpleArrayEqualHelper@PAUHINSTANCE__@@@ATL@@@ATL@@QAE@ABQAUHINSTANCE__@@@Z 1000c3c1 f i atls:atlbase.obj
 0001:0000b3d1       ??0_ATL_BASE_MODULE70@ATL@@QAE@XZ 1000c3d1 f i atls:atlbase.obj
 0001:0000b3f4       ??1?$CComCritSecLock@VCComCriticalSection@ATL@@@ATL@@QAE@XZ 1000c3f4 f i atls:atlbase.obj
 0001:0000b40b       ??1?$CSimpleArray@PAUHINSTANCE__@@V?$CSimpleArrayEqualHelper@PAUHINSTANCE__@@@ATL@@@ATL@@QAE@XZ 1000c40b f i atls:atlbase.obj
 0001:0000b410       ??1CAtlBaseModule@ATL@@QAE@XZ 1000c410 f   atls:atlbase.obj
 0001:0000b426       ??1CComCriticalSection@ATL@@QAE@XZ 1000c426 f i atls:atlbase.obj
 0001:0000b429       ??1_ATL_BASE_MODULE70@ATL@@QAE@XZ 1000c429 f i atls:atlbase.obj
 0001:0000b431       ??A?$CSimpleArray@PAUHINSTANCE__@@V?$CSimpleArrayEqualHelper@PAUHINSTANCE__@@@ATL@@@ATL@@QAEAAPAUHINSTANCE__@@H@Z 1000c431 f i atls:atlbase.obj
 0001:0000b456       ?Add@?$CSimpleArray@PAUHINSTANCE__@@V?$CSimpleArrayEqualHelper@PAUHINSTANCE__@@@ATL@@@ATL@@QAEHABQAUHINSTANCE__@@@Z 1000c456 f i atls:atlbase.obj
 0001:0000b4d8       ?AddResourceInstance@CAtlBaseModule@ATL@@QAE_NPAUHINSTANCE__@@@Z 1000c4d8 f   atls:atlbase.obj
 0001:0000b50b       ?GetHInstanceAt@CAtlBaseModule@ATL@@QAEPAUHINSTANCE__@@H@Z 1000c50b f   atls:atlbase.obj
 0001:0000b550       ?GetSize@?$CSimpleArray@PAUHINSTANCE__@@V?$CSimpleArrayEqualHelper@PAUHINSTANCE__@@@ATL@@@ATL@@QBEHXZ 1000c550 f i atls:atlbase.obj
 0001:0000b554       ?InternalSetAtIndex@?$CSimpleArray@PAUHINSTANCE__@@V?$CSimpleArrayEqualHelper@PAUHINSTANCE__@@@ATL@@@ATL@@QAEXHABQAUHINSTANCE__@@@Z 1000c554 f i atls:atlbase.obj
 0001:0000b56e       ?Lock@?$CComCritSecLock@VCComCriticalSection@ATL@@@ATL@@QAEJXZ 1000c56e f i atls:atlbase.obj
 0001:0000b581       ?Lock@CComCriticalSection@ATL@@QAEJXZ 1000c581 f i atls:atlbase.obj
 0001:0000b58b       ?RemoveAll@?$CSimpleArray@PAUHINSTANCE__@@V?$CSimpleArrayEqualHelper@PAUHINSTANCE__@@@ATL@@@ATL@@QAEXXZ 1000c58b f i atls:atlbase.obj
 0001:0000b5a8       ?RemoveAt@?$CSimpleArray@PAUHINSTANCE__@@V?$CSimpleArrayEqualHelper@PAUHINSTANCE__@@@ATL@@@ATL@@QAEHH@Z 1000c5a8 f i atls:atlbase.obj
 0001:0000b5f6       ?RemoveResourceInstance@CAtlBaseModule@ATL@@QAE_NPAUHINSTANCE__@@@Z 1000c5f6 f   atls:atlbase.obj
 0001:0000b653       ?Term@CComCriticalSection@ATL@@QAEJXZ 1000c653 f i atls:atlbase.obj
 0001:0000b65d       ?Unlock@?$CComCritSecLock@VCComCriticalSection@ATL@@@ATL@@QAEXXZ 1000c65d f i atls:atlbase.obj
 0001:0000b66e       ?Unlock@CComCriticalSection@ATL@@QAEJXZ 1000c66e f i atls:atlbase.obj
 0001:0000b678       _HRESULT_FROM_WIN32        1000c678 f i atls:atlbase.obj
 0001:0000b6d8       ??0?$CTraceCategoryEx@$00$0A@@ATL@@QAE@PB_W@Z 1000c6d8 f i atls:stdafx.obj
 0001:0000b6dd       ??0?$CTraceCategoryEx@$01$0A@@ATL@@QAE@PB_W@Z 1000c6dd f i atls:stdafx.obj
 0001:0000b6e2       ??0?$CTraceCategoryEx@$03$0A@@ATL@@QAE@PB_W@Z 1000c6e2 f i atls:stdafx.obj
 0001:0000b6e7       ??0?$CTraceCategoryEx@$07$0A@@ATL@@QAE@PB_W@Z 1000c6e7 f i atls:stdafx.obj
 0001:0000b6ec       ??0?$CTraceCategoryEx@$0BA@$0A@@ATL@@QAE@PB_W@Z 1000c6ec f i atls:stdafx.obj
 0001:0000b6f1       ??0?$CTraceCategoryEx@$0BAA@$0A@@ATL@@QAE@PB_W@Z 1000c6f1 f i atls:stdafx.obj
 0001:0000b6f6       ??0?$CTraceCategoryEx@$0BAAA@$0A@@ATL@@QAE@PB_W@Z 1000c6f6 f i atls:stdafx.obj
 0001:0000b6fb       ??0?$CTraceCategoryEx@$0BAAAA@$0A@@ATL@@QAE@PB_W@Z 1000c6fb f i atls:stdafx.obj
 0001:0000b700       ??0?$CTraceCategoryEx@$0BAAAAA@$0A@@ATL@@QAE@PB_W@Z 1000c700 f i atls:stdafx.obj
 0001:0000b705       ??0?$CTraceCategoryEx@$0CA@$0A@@ATL@@QAE@PB_W@Z 1000c705 f i atls:stdafx.obj
 0001:0000b70a       ??0?$CTraceCategoryEx@$0CAA@$0A@@ATL@@QAE@PB_W@Z 1000c70a f i atls:stdafx.obj
 0001:0000b70f       ??0?$CTraceCategoryEx@$0CAAA@$0A@@ATL@@QAE@PB_W@Z 1000c70f f i atls:stdafx.obj
 0001:0000b714       ??0?$CTraceCategoryEx@$0CAAAA@$0A@@ATL@@QAE@PB_W@Z 1000c714 f i atls:stdafx.obj
 0001:0000b719       ??0?$CTraceCategoryEx@$0CAAAAA@$0A@@ATL@@QAE@PB_W@Z 1000c719 f i atls:stdafx.obj
 0001:0000b71e       ??0?$CTraceCategoryEx@$0EA@$0A@@ATL@@QAE@PB_W@Z 1000c71e f i atls:stdafx.obj
 0001:0000b723       ??0?$CTraceCategoryEx@$0EAA@$0A@@ATL@@QAE@PB_W@Z 1000c723 f i atls:stdafx.obj
 0001:0000b728       ??0?$CTraceCategoryEx@$0EAAA@$0A@@ATL@@QAE@PB_W@Z 1000c728 f i atls:stdafx.obj
 0001:0000b72d       ??0?$CTraceCategoryEx@$0EAAAA@$0A@@ATL@@QAE@PB_W@Z 1000c72d f i atls:stdafx.obj
 0001:0000b732       ??0?$CTraceCategoryEx@$0EAAAAA@$0A@@ATL@@QAE@PB_W@Z 1000c732 f i atls:stdafx.obj
 0001:0000b737       ??0?$CTraceCategoryEx@$0IA@$0A@@ATL@@QAE@PB_W@Z 1000c737 f i atls:stdafx.obj
 0001:0000b73c       ??0?$CTraceCategoryEx@$0IAA@$0A@@ATL@@QAE@PB_W@Z 1000c73c f i atls:stdafx.obj
 0001:0000b741       ??0?$CTraceCategoryEx@$0IAAA@$0A@@ATL@@QAE@PB_W@Z 1000c741 f i atls:stdafx.obj
 0001:0000b746       ??0?$CTraceCategoryEx@$0IAAAA@$0A@@ATL@@QAE@PB_W@Z 1000c746 f i atls:stdafx.obj
 0001:0000b74b       ??_I@YGXPAXIIP6EX0@Z@Z     1000c74b f i atls:stdafx.obj
 0001:0000b77e       ??0bad_alloc@std@@QAE@XZ   1000c77e f i libcpmt:xthrow.obj
 0001:0000b796       ??0bad_function_call@std@@QAE@ABV01@@Z 1000c796 f i libcpmt:xthrow.obj
 0001:0000b7b1       ??0bad_function_call@std@@QAE@XZ 1000c7b1 f i libcpmt:xthrow.obj
 0001:0000b7c2       ??0exception@std@@QAE@QBD@Z 1000c7c2 f i libcpmt:xthrow.obj
 0001:0000b7f7       ??0exception@std@@QAE@QBDH@Z 1000c7f7 f i libcpmt:xthrow.obj
 0001:0000b814       ??0exception@std@@QAE@XZ   1000c814 f i libcpmt:xthrow.obj
 0001:0000b825       ??0invalid_argument@std@@QAE@ABV01@@Z 1000c825 f i libcpmt:xthrow.obj
 0001:0000b840       ??0invalid_argument@std@@QAE@PBD@Z 1000c840 f i libcpmt:xthrow.obj
 0001:0000b85f       ??0length_error@std@@QAE@ABV01@@Z 1000c85f f i libcpmt:xthrow.obj
 0001:0000b87a       ??0length_error@std@@QAE@PBD@Z 1000c87a f i libcpmt:xthrow.obj
 0001:0000b899       ??0logic_error@std@@QAE@ABV01@@Z 1000c899 f i libcpmt:xthrow.obj
 0001:0000b8b4       ??0logic_error@std@@QAE@PBD@Z 1000c8b4 f i libcpmt:xthrow.obj
 0001:0000b8d3       ??0out_of_range@std@@QAE@ABV01@@Z 1000c8d3 f i libcpmt:xthrow.obj
 0001:0000b8ee       ??0out_of_range@std@@QAE@PBD@Z 1000c8ee f i libcpmt:xthrow.obj
 0001:0000b90d       ??0overflow_error@std@@QAE@ABV01@@Z 1000c90d f i libcpmt:xthrow.obj
 0001:0000b928       ??0overflow_error@std@@QAE@PBD@Z 1000c928 f i libcpmt:xthrow.obj
 0001:0000b947       ??0regex_error@std@@QAE@ABV01@@Z 1000c947 f i libcpmt:xthrow.obj
 0001:0000b96b       ??0regex_error@std@@QAE@W4error_type@regex_constants@1@@Z 1000c96b f i libcpmt:xthrow.obj
 0001:0000b999       ??0runtime_error@std@@QAE@ABV01@@Z 1000c999 f i libcpmt:xthrow.obj
 0001:0000b9b4       ??0runtime_error@std@@QAE@PBD@Z 1000c9b4 f i libcpmt:xthrow.obj
 0001:0000b9d3       ??1bad_alloc@std@@UAE@XZ   1000c9d3 f i libcpmt:xthrow.obj
 0001:0000b9e4       ??1bad_function_call@std@@UAE@XZ 1000c9e4 f i libcpmt:xthrow.obj
 0001:0000b9f5       ??1invalid_argument@std@@UAE@XZ 1000c9f5 f i libcpmt:xthrow.obj
 0001:0000ba06       ??1length_error@std@@UAE@XZ 1000ca06 f i libcpmt:xthrow.obj
 0001:0000ba17       ??1logic_error@std@@UAE@XZ 1000ca17 f i libcpmt:xthrow.obj
 0001:0000ba28       ??1out_of_range@std@@UAE@XZ 1000ca28 f i libcpmt:xthrow.obj
 0001:0000ba39       ??1overflow_error@std@@UAE@XZ 1000ca39 f i libcpmt:xthrow.obj
 0001:0000ba4a       ??1regex_error@std@@UAE@XZ 1000ca4a f i libcpmt:xthrow.obj
 0001:0000ba5b       ??1runtime_error@std@@UAE@XZ 1000ca5b f i libcpmt:xthrow.obj
 0001:0000ba6c       ??_Gbad_function_call@std@@UAEPAXI@Z 1000ca6c f i libcpmt:xthrow.obj
 0001:0000ba6c       ??_Ebad_function_call@std@@UAEPAXI@Z 1000ca6c f i libcpmt:xthrow.obj
 0001:0000ba99       ??_Einvalid_argument@std@@UAEPAXI@Z 1000ca99 f i libcpmt:xthrow.obj
 0001:0000ba99       ??_Ginvalid_argument@std@@UAEPAXI@Z 1000ca99 f i libcpmt:xthrow.obj
 0001:0000bac6       ??_Glength_error@std@@UAEPAXI@Z 1000cac6 f i libcpmt:xthrow.obj
 0001:0000bac6       ??_Elength_error@std@@UAEPAXI@Z 1000cac6 f i libcpmt:xthrow.obj
 0001:0000baf3       ??_Glogic_error@std@@UAEPAXI@Z 1000caf3 f i libcpmt:xthrow.obj
 0001:0000baf3       ??_Elogic_error@std@@UAEPAXI@Z 1000caf3 f i libcpmt:xthrow.obj
 0001:0000bb20       ??_Gout_of_range@std@@UAEPAXI@Z 1000cb20 f i libcpmt:xthrow.obj
 0001:0000bb20       ??_Eout_of_range@std@@UAEPAXI@Z 1000cb20 f i libcpmt:xthrow.obj
 0001:0000bb4d       ??_Eoverflow_error@std@@UAEPAXI@Z 1000cb4d f i libcpmt:xthrow.obj
 0001:0000bb4d       ??_Goverflow_error@std@@UAEPAXI@Z 1000cb4d f i libcpmt:xthrow.obj
 0001:0000bb7a       ??_Eregex_error@std@@UAEPAXI@Z 1000cb7a f i libcpmt:xthrow.obj
 0001:0000bb7a       ??_Gregex_error@std@@UAEPAXI@Z 1000cb7a f i libcpmt:xthrow.obj
 0001:0000bba7       ??_Gruntime_error@std@@UAEPAXI@Z 1000cba7 f i libcpmt:xthrow.obj
 0001:0000bba7       ??_Eruntime_error@std@@UAEPAXI@Z 1000cba7 f i libcpmt:xthrow.obj
 0001:0000bbd4       ?_Stringify@regex_error@std@@CAPBDW4error_type@regex_constants@2@@Z 1000cbd4 f i libcpmt:xthrow.obj
 0001:0000bc94       ?_Xbad_alloc@std@@YAXXZ    1000cc94 f   libcpmt:xthrow.obj
 0001:0000bcb1       ?_Xbad_function_call@std@@YAXXZ 1000ccb1 f   libcpmt:xthrow.obj
 0001:0000bcce       ?_Xinvalid_argument@std@@YAXPBD@Z 1000ccce f   libcpmt:xthrow.obj
 0001:0000bcee       ?_Xlength_error@std@@YAXPBD@Z 1000ccee f   libcpmt:xthrow.obj
 0001:0000bd0e       ?_Xout_of_range@std@@YAXPBD@Z 1000cd0e f   libcpmt:xthrow.obj
 0001:0000bd2e       ?_Xoverflow_error@std@@YAXPBD@Z 1000cd2e f   libcpmt:xthrow.obj
 0001:0000bd4e       ?_Xregex_error@std@@YAXW4error_type@regex_constants@1@@Z 1000cd4e f   libcpmt:xthrow.obj
 0001:0000bd6e       ?_Xruntime_error@std@@YAXPBD@Z 1000cd6e f   libcpmt:xthrow.obj
 0001:0000bd8e       ?what@bad_function_call@std@@UBEPBDXZ 1000cd8e f i libcpmt:xthrow.obj
 0001:0000bd94       ??2@YAPAXI@Z               1000cd94 f   LIBCMT:new_scalar.obj
 0001:0000bdc4       ??3@YAXPAXI@Z              1000cdc4 f   LIBCMT:delete_scalar_size.obj
 0001:0000bdd2       ?configure_argv@__scrt_narrow_argv_policy@@SAHXZ 1000cdd2 f i LIBCMT:utility.obj
 0001:0000be23       ?initialize_environment@__scrt_narrow_environment_policy@@SAHXZ 1000ce23 f i LIBCMT:utility.obj
 0001:0000be5c       _NtCurrentTeb              1000ce5c f i LIBCMT:utility.obj
 0001:0000be63       ___scrt_acquire_startup_lock 1000ce63 f   LIBCMT:utility.obj
 0001:0000be95       ___scrt_dllmain_after_initialize_c 1000ce95 f   LIBCMT:utility.obj
 0001:0000bec0       ___scrt_dllmain_before_initialize_c 1000cec0 f   LIBCMT:utility.obj
 0001:0000bece       ___scrt_dllmain_crt_thread_attach 1000cece f   LIBCMT:utility.obj
 0001:0000beed       ___scrt_dllmain_crt_thread_detach 1000ceed f   LIBCMT:utility.obj
 0001:0000befa       ___scrt_dllmain_exception_filter 1000cefa f   LIBCMT:utility.obj
 0001:0000bf2e       ___scrt_dllmain_uninitialize_c 1000cf2e f   LIBCMT:utility.obj
 0001:0000bf51       ___scrt_dllmain_uninitialize_critical 1000cf51 f   LIBCMT:utility.obj
 0001:0000bf5e       ___scrt_initialize_crt     1000cf5e f   LIBCMT:utility.obj
 0001:0000bf97       ___scrt_initialize_onexit_tables 1000cf97 f   LIBCMT:utility.obj
 0001:0000c01e       ___scrt_is_nonwritable_in_current_image 1000d01e f   LIBCMT:utility.obj
 0001:0000c0b2       ___scrt_release_startup_lock 1000d0b2 f   LIBCMT:utility.obj
 0001:0000c0cf       ___scrt_uninitialize_crt   1000d0cf f   LIBCMT:utility.obj
 0001:0000c0f7       __onexit                   1000d0f7 f   LIBCMT:utility.obj
 0001:0000c124       _at_quick_exit             1000d124 f   LIBCMT:utility.obj
 0001:0000c147       _atexit                    1000d147 f   LIBCMT:utility.obj
 0001:0000c221       __Init_thread_abort        1000d221 f   LIBCMT:thread_safe_statics.obj
 0001:0000c245       __Init_thread_footer       1000d245 f   LIBCMT:thread_safe_statics.obj
 0001:0000c28f       __Init_thread_header       1000d28f f   LIBCMT:thread_safe_statics.obj
 0001:0000c2e1       __Init_thread_lock         1000d2e1 f   LIBCMT:thread_safe_statics.obj
 0001:0000c2ed       __Init_thread_notify       1000d2ed f   LIBCMT:thread_safe_statics.obj
 0001:0000c323       __Init_thread_unlock       1000d323 f   LIBCMT:thread_safe_statics.obj
 0001:0000c32f       __Init_thread_wait         1000d32f f   LIBCMT:thread_safe_statics.obj
 0001:0000c37d       @__security_check_cookie@4 1000d37d f   LIBCMT:secchk.obj
 0001:0000c38b       __EH_epilog3               1000d38b f   LIBCMT:ehprolg3.obj
 0001:0000c39f       __EH_epilog3_GS            1000d39f f   LIBCMT:ehprolg3.obj
 0001:0000c3ae       __EH_epilog3_catch_GS      1000d3ae f   LIBCMT:ehprolg3.obj
 0001:0000c3bd       __EH_prolog3               1000d3bd f   LIBCMT:ehprolg3.obj
 0001:0000c3f0       __EH_prolog3_GS            1000d3f0 f   LIBCMT:ehprolg3.obj
 0001:0000c426       __EH_prolog3_catch         1000d426 f   LIBCMT:ehprolg3.obj
 0001:0000c45c       __EH_prolog3_catch_GS      1000d45c f   LIBCMT:ehprolg3.obj
 0001:0000c4a0       __alloca_probe             1000d4a0 f   LIBCMT:chkstk.obj
 0001:0000c4a0       __chkstk                   1000d4a0 f   LIBCMT:chkstk.obj
 0001:0000c4cb       ??1type_info@@UAE@XZ       1000d4cb f   LIBCMT:std_type_info_static.obj
 0001:0000c4d2       ??_Etype_info@@UAEPAXI@Z   1000d4d2 f i LIBCMT:std_type_info_static.obj
 0001:0000c4d2       ??_Gtype_info@@UAEPAXI@Z   1000d4d2 f i LIBCMT:std_type_info_static.obj
 0001:0000c4f5       ??3@YAXPAX@Z               1000d4f5 f   LIBCMT:delete_scalar.obj
 0001:0000c4fa       ??_M@YGXPAXIHP6EX0@Z@Z     1000d4fa f   LIBCMT:ehvecdtr.obj
 0001:0000c4ff       ??_M@YGXPAXIIP6EX0@Z@Z     1000d4ff f   LIBCMT:ehvecdtr.obj
 0001:0000c5b3       ?__ArrayUnwind@@YGXPAXIIP6EX0@Z@Z 1000d5b3 f   LIBCMT:ehvecdtr.obj
 0001:0000c643       ??_V@YAXPAXI@Z             1000d643 f   LIBCMT:delete_array_size.obj
 0001:0000c660       __SEH_prolog4              1000d660 f   LIBCMT:sehprolg4.obj
 0001:0000c6b0       __SEH_epilog4              1000d6b0 f   LIBCMT:sehprolg4.obj
 0001:0000c6c4       ??_U@YAPAXI@Z              1000d6c4 f   LIBCMT:new_array.obj
 0001:0000c6cd       ??_V@YAXPAX@Z              1000d6cd f   LIBCMT:delete_array.obj
 0001:0000c6e0       __alldiv                   1000d6e0 f   LIBCMT:lldiv.obj
 0001:0000c790       __allmul                   1000d790 f   LIBCMT:llmul.obj
 0001:0000c7d0       __allshl                   1000d7d0 f   LIBCMT:llshl.obj
 0001:0000c7f0       __allshr                   1000d7f0 f   LIBCMT:llshr.obj
 0001:0000c820       __aullshr                  1000d820 f   LIBCMT:ullshr.obj
 0001:0000c840       __ftoui3                   1000d840 f   LIBCMT:ftol3.obj
 0001:0000c890       __ftoul3                   1000d890 f   LIBCMT:ftol3.obj
 0001:0000c910       __ftol3                    1000d910 f   LIBCMT:ftol3.obj
 0001:0000c980       __dtoui3                   1000d980 f   LIBCMT:ftol3.obj
 0001:0000ca00       __dtoul3                   1000da00 f   LIBCMT:ftol3.obj
 0001:0000cab0       __dtol3                    1000dab0 f   LIBCMT:ftol3.obj
 0001:0000cb60       __ultod3                   1000db60 f   LIBCMT:ftol3.obj
 0001:0000cbc0       __ltod3                    1000dbc0 f   LIBCMT:ftol3.obj
 0001:0000cc01       ___raise_securityfailure   1000dc01 f   LIBCMT:gs_report.obj
 0001:0000cc29       ___report_gsfailure        1000dc29 f   LIBCMT:gs_report.obj
 0001:0000cd23       ___report_rangecheckfailure 1000dd23 f   LIBCMT:gs_report.obj
 0001:0000cd2f       ___report_securityfailure  1000dd2f f   LIBCMT:gs_report.obj
 0001:0000cdfe       ___report_securityfailureEx 1000ddfe f   LIBCMT:gs_report.obj
 0001:0000cf13       ??_U@YAPAXIABUnothrow_t@std@@@Z 1000df13 f   LIBCMT:new_array_nothrow.obj
 0001:0000d25c       __CRT_INIT@12              1000e25c f   LIBCMT:dll_dllmain.obj
 0001:0000d265       __DllMainCRTStartup@12     1000e265 f   LIBCMT:dll_dllmain.obj
 0001:0000d288       @_guard_check_icall_nop@4  1000e288 f i LIBCMT:guard_support.obj
 0001:0000d28b       _ReadNoFence               1000e28b f i LIBCMT:guard_support.obj
 0001:0000d295       _ReadPointerNoFence        1000e295 f i LIBCMT:guard_support.obj
 0001:0000d29f       ___castguard_check_failure_debugbreak 1000e29f f i LIBCMT:guard_support.obj
 0001:0000d2ba       ___castguard_check_failure_fastfail 1000e2ba f i LIBCMT:guard_support.obj
 0001:0000d2d9       ___castguard_check_failure_nop 1000e2d9 f i LIBCMT:guard_support.obj
 0001:0000d2dc       ___castguard_check_failure_os_handled 1000e2dc f i LIBCMT:guard_support.obj
 0001:0000d330       ___castguard_slow_path_check_debugbreak 1000e330 f i LIBCMT:guard_support.obj
 0001:0000d35d       ___castguard_slow_path_check_fastfail 1000e35d f i LIBCMT:guard_support.obj
 0001:0000d38e       ___castguard_slow_path_check_nop 1000e38e f i LIBCMT:guard_support.obj
 0001:0000d391       ___castguard_slow_path_check_os_handled 1000e391 f i LIBCMT:guard_support.obj
 0001:0000d3f7       __guard_icall_checks_enforced 1000e3f7 f i LIBCMT:guard_support.obj
 0001:0000d409       ??0bad_alloc@std@@AAE@QBD@Z 1000e409 f i LIBCMT:throw_bad_alloc.obj
 0001:0000d426       ?__scrt_throw_std_bad_alloc@@YAXXZ 1000e426 f   LIBCMT:throw_bad_alloc.obj
 0001:0000d443       ?__scrt_throw_std_bad_array_new_length@@YAXXZ 1000e443 f   LIBCMT:throw_bad_alloc.obj
 0001:0000d460       ___isa_available_init      1000e460 f   LIBCMT:cpu_disp.obj
 0001:0000d631       __get_startup_argv_mode    1000e631 f   LIBCMT:argv_mode.obj
 0001:0000d635       ___scrt_is_ucrt_dll_in_use 1000e635 f   LIBCMT:ucrt_detection.obj
 0001:0000d641       ___scrt_fastfail           1000e641 f   LIBCMT:utility_desktop.obj
 0001:0000d75c       ___scrt_get_show_window_mode 1000e75c f   LIBCMT:utility_desktop.obj
 0001:0000d78d       ___scrt_initialize_mta     1000e78d f   LIBCMT:utility_desktop.obj
 0001:0000d792       ___scrt_initialize_winrt   1000e792 f   LIBCMT:utility_desktop.obj
 0001:0000d795       ___scrt_is_managed_app     1000e795 f   LIBCMT:utility_desktop.obj
 0001:0000d7d8       ___scrt_set_unhandled_exception_filter 1000e7d8 f   LIBCMT:utility_desktop.obj
 0001:0000d7e4       ___scrt_exe_initialize_mta 1000e7e4 f   LIBCMT:utility_desktop.obj
 0001:0000d7e4       ___scrt_stub_for_initialize_mta 1000e7e4 f   LIBCMT:utility_desktop.obj
 0001:0000d7e7       ___scrt_unhandled_exception_filter@4 1000e7e7 f   LIBCMT:utility_desktop.obj
 0001:0000d83d       __crt_debugger_hook        1000e83d f   LIBCMT:utility_desktop.obj
 0001:0000d845       ??2@YAPAXIABUnothrow_t@std@@@Z 1000e845 f   LIBCMT:new_scalar_nothrow.obj
 0001:0000d8e7       ___security_init_cookie    1000e8e7 f   LIBCMT:gs_support.obj
 0001:0000d932       ?__scrt_initialize_type_info@@YAXXZ 1000e932 f   LIBCMT:tncleanup.obj
 0001:0000d93e       ?__scrt_uninitialize_type_info@@YAXXZ 1000e93e f   LIBCMT:tncleanup.obj
 0001:0000d94a       ___local_stdio_scanf_options 1000e94a f i LIBCMT:default_local_stdio_options.obj
 0001:0000d950       ___scrt_initialize_default_local_stdio_options 1000e950 f   LIBCMT:default_local_stdio_options.obj
 0001:0000d96d       ___scrt_get_dyn_tls_init_callback 1000e96d f   LIBCMT:dyn_tls_init.obj
 0001:0000d973       __RTC_Initialize           1000e973 f   LIBCMT:initsect.obj
 0001:0000d99f       __RTC_Terminate            1000e99f f   LIBCMT:initsect.obj
 0001:0000d9cb       _RpcStringFreeW@4          1000e9cb f   Rpcrt4:RPCRT4.dll
 0001:0000d9d1       _UuidCreate@4              1000e9d1 f   Rpcrt4:RPCRT4.dll
 0001:0000d9d7       _UuidToStringW@8           1000e9d7 f   Rpcrt4:RPCRT4.dll
 0001:0000d9dd       ___DestructExceptionObject 1000e9dd f   libvcruntime:ehhelpers.obj
 0001:0000da7e       ?_CallMemberFunction0@@YGXQAX0@Z 1000ea7e f i libvcruntime:ehhelpers.obj
 0001:0000dae3       ?raw_name@type_info@@QBEPBDXZ 1000eae3 f i libvcruntime:ehhelpers.obj
 0001:0000dae7       __IsExceptionObjectToBeDestroyed 1000eae7 f   libvcruntime:ehhelpers.obj
 0001:0000db0d       __SetWinRTOutOfMemoryExceptionCallback 1000eb0d f   libvcruntime:ehhelpers.obj
 0001:0000db1a       ___AdjustPointer           1000eb1a f   libvcruntime:ehhelpers.obj
 0001:0000db3f       ___FrameUnwindFilter       1000eb3f f   libvcruntime:ehhelpers.obj
 0001:0000db95       ___GetPlatformExceptionInfo 1000eb95 f   libvcruntime:ehhelpers.obj
 0001:0000dbe1       ___current_exception       1000ebe1 f   libvcruntime:ehhelpers.obj
 0001:0000dbea       ___current_exception_context 1000ebea f   libvcruntime:ehhelpers.obj
 0001:0000dbf3       ___processing_throw        1000ebf3 f   libvcruntime:ehhelpers.obj
 0001:0000dbfc       ___std_terminate           1000ebfc f   libvcruntime:ehhelpers.obj
 0001:0000dc01       __is_exception_typeof      1000ec01 f   libvcruntime:ehhelpers.obj
 0001:0000dcb0       _memcpy                    1000ecb0 f   libvcruntime:memcpy.obj
 0001:0000e230       _memmove                   1000f230 f   libvcruntime:memmove.obj
 0001:0000e7b0       _memset                    1000f7b0 f   libvcruntime:memset.obj
 0001:0000e90a       _wcsstr                    1000f90a f   libvcruntime:wcsstr.obj
 0001:0000eb75       ??$?RD@__crt_public_free_policy@@QBEXQBD@Z 1000fb75 f i libvcruntime:std_exception.obj
 0001:0000eb85       ??0?$__crt_unique_heap_ptr@DU__crt_public_free_policy@@@@QAE@QAD@Z 1000fb85 f i libvcruntime:std_exception.obj
 0001:0000eb93       ??1?$__crt_unique_heap_ptr@DU__crt_public_free_policy@@@@QAE@XZ 1000fb93 f i libvcruntime:std_exception.obj
 0001:0000eba3       ??B?$__crt_unique_heap_ptr@DU__crt_public_free_policy@@@@QBE_NXZ 1000fba3 f i libvcruntime:std_exception.obj
 0001:0000ebaa       ?detach@?$__crt_unique_heap_ptr@DU__crt_public_free_policy@@@@QAEPADXZ 1000fbaa f i libvcruntime:std_exception.obj
 0001:0000ebb0       ?get@?$__crt_unique_heap_ptr@DU__crt_public_free_policy@@@@QBEPADXZ 1000fbb0 f i libvcruntime:std_exception.obj
 0001:0000ebb3       ?is_valid@?$__crt_unique_heap_ptr@DU__crt_public_free_policy@@@@QBE_NXZ 1000fbb3 f i libvcruntime:std_exception.obj
 0001:0000ebba       ?release@?$__crt_unique_heap_ptr@DU__crt_public_free_policy@@@@QAEXXZ 1000fbba f i libvcruntime:std_exception.obj
 0001:0000ebca       ___std_exception_copy      1000fbca f   libvcruntime:std_exception.obj
 0001:0000ec2d       ___std_exception_destroy   1000fc2d f   libvcruntime:std_exception.obj
 0001:0000ec4c       __CxxThrowException@8      1000fc4c f   libvcruntime:throw.obj
 0001:0000ecb8       ??$?0AAViterator@TryBlockMap@__FrameHandler3@@AAV012@$0A@@?$pair@Viterator@TryBlockMap@__FrameHandler3@@V123@@std@@QAE@AAViterator@TryBlockMap@__FrameHandler3@@0@Z 1000fcb8 f i libvcruntime:trnsctrl.obj
 0001:0000ecdc       ??$forward@AAViterator@TryBlockMap@__FrameHandler3@@@std@@YAAAViterator@TryBlockMap@__FrameHandler3@@AAV123@@Z 1000fcdc f i libvcruntime:trnsctrl.obj
 0001:0000ece4       ??0iterator@TryBlockMap@__FrameHandler3@@QAE@AAV12@I@Z 1000fce4 f i libvcruntime:trnsctrl.obj
 0001:0000ecf8       ?GetRangeOfTrysToCheck@__FrameHandler3@@SA?AU?$pair@Viterator@TryBlockMap@__FrameHandler3@@V123@@std@@AAVTryBlockMap@1@HPAXPBU_s_FuncInfo@@H@Z 1000fcf8 f   libvcruntime:trnsctrl.obj
 0001:0000ed68       ?_CallCatchBlock2@@YAPAXPAUEHRegistrationNode@@PBU_s_FuncInfo@@PAXHK@Z 1000fd68 f   libvcruntime:trnsctrl.obj
 0001:0000edc5       ?_CallSETranslator@@YAHPAUEHExceptionRecord@@PAUEHRegistrationNode@@PAX2PBU_s_FuncInfo@@H1@Z 1000fdc5 f   libvcruntime:trnsctrl.obj
 0001:0000eebb       ?_JumpToContinuation@@YGXPAXPAUEHRegistrationNode@@@Z 1000febb f   libvcruntime:trnsctrl.obj
 0001:0000eeeb       ?_UnwindNestedFrames@@YGXPAUEHRegistrationNode@@PAUEHExceptionRecord@@@Z 1000feeb f   libvcruntime:trnsctrl.obj
 0001:0000ef3e       __CatchGuardHandler        1000ff3e f   libvcruntime:trnsctrl.obj
 0001:0000ef6f       __CreateFrameInfo          1000ff6f f   libvcruntime:trnsctrl.obj
 0001:0000ef93       __FindAndUnlinkFrame       1000ff93 f   libvcruntime:trnsctrl.obj
 0001:0000efdb       __TranslatorGuardHandler   1000ffdb f   libvcruntime:trnsctrl.obj
 0001:0000f078       ___CxxFrameHandler         10010078 f   libvcruntime:trnsctrl.obj
 0001:0000f0ae       ___CxxFrameHandler2        100100ae f   libvcruntime:trnsctrl.obj
 0001:0000f0e4       ___CxxFrameHandler3        100100e4 f   libvcruntime:trnsctrl.obj
 0001:0000f11a       ___CxxLongjmpUnwind@4      1001011a f   libvcruntime:trnsctrl.obj
 0001:0000f180       __except_handler4          10010180 f   libvcruntime:chandler4.obj
 0001:0000f2de       ??$__crt_interlocked_exchange_pointer@$$A6AXXZP6AXXZ@@YAP6AXXZPDS6AXXZQ6AXXZ@Z 100102de f i libvcruntime:purevirt.obj
 0001:0000f2eb       ??$__crt_interlocked_read_pointer@$$A6AXXZ@@YAP6AXXZPDS6AXXZ@Z 100102eb f i libvcruntime:purevirt.obj
 0001:0000f2f5       ?__crt_interlocked_read_32@@YAHPDH@Z 100102f5 f i libvcruntime:purevirt.obj
 0001:0000f2ff       __get_purecall_handler     100102ff f   libvcruntime:purevirt.obj
 0001:0000f305       __purecall                 10010305 f   libvcruntime:purevirt.obj
 0001:0000f321       __set_purecall_handler     10010321 f   libvcruntime:purevirt.obj
 0001:0000f425       _memcmp                    10010425 f   libvcruntime:memcmp.obj
 0001:00011175       _wcsrchr                   10012175 f   libvcruntime:wcsrchr.obj
 0001:0001122d       __get_unexpected           1001222d f   libvcruntime:unexpected.obj
 0001:0001123f       _set_unexpected            1001223f f   libvcruntime:unexpected.obj
 0001:0001125d       _unexpected                1001225d f   libvcruntime:unexpected.obj
 0001:0001127a       ___vcrt_initialize         1001227a f   libvcruntime:initialization.obj
 0001:00011299       ___vcrt_thread_attach      10012299 f   libvcruntime:initialization.obj
 0001:000112a4       ___vcrt_thread_detach      100122a4 f   libvcruntime:initialization.obj
 0001:000112af       ___vcrt_uninitialize       100122af f   libvcruntime:initialization.obj
 0001:000112c6       ___vcrt_uninitialize_critical 100122c6 f   libvcruntime:initialization.obj
 0001:000112df       ??$?RD@__crt_internal_free_policy@@QBEXQBD@Z 100122df f i libvcruntime:std_type_info.obj
 0001:000112ef       ??$?RX@__crt_internal_free_policy@@QBEXQBX@Z 100122ef f i libvcruntime:std_type_info.obj
 0001:000112ff       ??$__crt_interlocked_compare_exchange_pointer@$$CBDPAD$$T@@YAPBDPDSBDQAD$$T@Z 100122ff f i libvcruntime:std_type_info.obj
 0001:00011311       ??$__crt_interlocked_read_pointer@$$CBD@@YAPBDPDSBD@Z 10012311 f i libvcruntime:std_type_info.obj
 0001:0001131b       ??0?$__crt_unique_heap_ptr@DU__crt_internal_free_policy@@@@QAE@QAD@Z 1001231b f i libvcruntime:std_type_info.obj
 0001:00011329       ??0?$__crt_unique_heap_ptr@XU__crt_internal_free_policy@@@@QAE@QAX@Z 10012329 f i libvcruntime:std_type_info.obj
 0001:00011337       ??1?$__crt_unique_heap_ptr@DU__crt_internal_free_policy@@@@QAE@XZ 10012337 f i libvcruntime:std_type_info.obj
 0001:00011347       ??1?$__crt_unique_heap_ptr@XU__crt_internal_free_policy@@@@QAE@XZ 10012347 f i libvcruntime:std_type_info.obj
 0001:00011357       ??B?$__crt_unique_heap_ptr@DU__crt_internal_free_policy@@@@QBE_NXZ 10012357 f i libvcruntime:std_type_info.obj
 0001:0001135e       ??B?$__crt_unique_heap_ptr@XU__crt_internal_free_policy@@@@QBE_NXZ 1001235e f i libvcruntime:std_type_info.obj
 0001:00011391       ?detach@?$__crt_unique_heap_ptr@XU__crt_internal_free_policy@@@@QAEPAXXZ 10012391 f i libvcruntime:std_type_info.obj
 0001:00011397       ?get@?$__crt_unique_heap_ptr@DU__crt_internal_free_policy@@@@QBEPADXZ 10012397 f i libvcruntime:std_type_info.obj
 0001:0001139a       ?get@?$__crt_unique_heap_ptr@XU__crt_internal_free_policy@@@@QBEPAXXZ 1001239a f i libvcruntime:std_type_info.obj
 0001:0001139d       ?is_valid@?$__crt_unique_heap_ptr@DU__crt_internal_free_policy@@@@QBE_NXZ 1001239d f i libvcruntime:std_type_info.obj
 0001:000113a4       ?is_valid@?$__crt_unique_heap_ptr@XU__crt_internal_free_policy@@@@QBE_NXZ 100123a4 f i libvcruntime:std_type_info.obj
 0001:000113ab       ?release@?$__crt_unique_heap_ptr@DU__crt_internal_free_policy@@@@QAEXXZ 100123ab f i libvcruntime:std_type_info.obj
 0001:000113bb       ?release@?$__crt_unique_heap_ptr@XU__crt_internal_free_policy@@@@QAEXXZ 100123bb f i libvcruntime:std_type_info.obj
 0001:000113cb       ___std_type_info_compare   100123cb f   libvcruntime:std_type_info.obj
 0001:00011407       ___std_type_info_destroy_list 10012407 f   libvcruntime:std_type_info.obj
 0001:0001142a       ___std_type_info_hash      1001242a f   libvcruntime:std_type_info.obj
 0001:00011450       ___std_type_info_name      10012450 f   libvcruntime:std_type_info.obj
 0001:00011515       ??$?RU__vcrt_ptd@@@__crt_internal_free_policy@@QBEXQBU__vcrt_ptd@@@Z 10012515 f i libvcruntime:per_thread_data.obj
 0001:00011525       ??0?$__crt_unique_heap_ptr@U__vcrt_ptd@@U__crt_internal_free_policy@@@@QAE@QAU__vcrt_ptd@@@Z 10012525 f i libvcruntime:per_thread_data.obj
 0001:00011542       ??1?$__crt_unique_heap_ptr@U__vcrt_ptd@@U__crt_internal_free_policy@@@@QAE@XZ 10012542 f i libvcruntime:per_thread_data.obj
 0001:0001155b       ??B?$__crt_unique_heap_ptr@U__vcrt_ptd@@U__crt_internal_free_policy@@@@QBE_NXZ 1001255b f i libvcruntime:per_thread_data.obj
 0001:00011562       ?detach@?$__crt_unique_heap_ptr@U__vcrt_ptd@@U__crt_internal_free_policy@@@@QAEPAU__vcrt_ptd@@XZ 10012562 f i libvcruntime:per_thread_data.obj
 0001:00011568       ?get@?$__crt_unique_heap_ptr@U__vcrt_ptd@@U__crt_internal_free_policy@@@@QBEPAU__vcrt_ptd@@XZ 10012568 f i libvcruntime:per_thread_data.obj
 0001:0001156b       ?is_valid@?$__crt_unique_heap_ptr@U__vcrt_ptd@@U__crt_internal_free_policy@@@@QBE_NXZ 1001256b f i libvcruntime:per_thread_data.obj
 0001:00011572       ?release@?$__crt_unique_heap_ptr@U__vcrt_ptd@@U__crt_internal_free_policy@@@@QAEXXZ 10012572 f i libvcruntime:per_thread_data.obj
 0001:0001159c       ___vcrt_freefls@4          1001259c f   libvcruntime:per_thread_data.obj
 0001:000115b8       ___vcrt_freeptd            100125b8 f   libvcruntime:per_thread_data.obj
 0001:000115ee       ___vcrt_getptd             100125ee f   libvcruntime:per_thread_data.obj
 0001:000115fc       ___vcrt_getptd_noexit      100125fc f   libvcruntime:per_thread_data.obj
 0001:0001168e       ___vcrt_getptd_noinit      1001268e f   libvcruntime:per_thread_data.obj
 0001:000116c5       ___vcrt_initialize_ptd     100126c5 f   libvcruntime:per_thread_data.obj
 0001:000116f8       ___vcrt_uninitialize_ptd   100126f8 f   libvcruntime:per_thread_data.obj
 0001:00011e4a       ??$TypeMatchHelper@V__FrameHandler3@@@@YAHPBU_s_HandlerType@@PBU_s_CatchableType@@PBU_s_ThrowInfo@@@Z 10012e4a f i libvcruntime:frame.obj
 0001:00011ed8       ??$__InternalCxxFrameHandler@V__FrameHandler3@@@@YA?AW4_EXCEPTION_DISPOSITION@@PAUEHExceptionRecord@@PAUEHRegistrationNode@@PAU_CONTEXT@@PAXPBU_s_FuncInfo@@H1E@Z 10012ed8 f i libvcruntime:frame.obj
 0001:00011fda       ??0HandlerMap@__FrameHandler3@@QAE@PBU_s_TryBlockMapEntry@@II@Z 10012fda f i libvcruntime:frame.obj
 0001:00011ff1       ??0TryBlockMap@__FrameHandler3@@QAE@PBU_s_FuncInfo@@I@Z 10012ff1 f i libvcruntime:frame.obj
 0001:00012005       ??0bad_exception@std@@QAE@ABV01@@Z 10013005 f i libvcruntime:frame.obj
 0001:00012020       ??0bad_exception@std@@QAE@XZ 10013020 f i libvcruntime:frame.obj
 0001:00012038       ??0iterator@HandlerMap@__FrameHandler3@@QAE@AAV12@I@Z 10013038 f i libvcruntime:frame.obj
 0001:0001204c       ??1bad_exception@std@@UAE@XZ 1001304c f i libvcruntime:frame.obj
 0001:0001205d       ??8iterator@HandlerMap@__FrameHandler3@@QBE_NABV012@@Z 1001305d f i libvcruntime:frame.obj
 0001:00012070       ??8type_info@@QBE_NABV0@@Z 10013070 f i libvcruntime:frame.obj
 0001:0001208f       ??9iterator@HandlerMap@__FrameHandler3@@QBE_NABV012@@Z 1001308f f i libvcruntime:frame.obj
 0001:000120a2       ??Diterator@HandlerMap@__FrameHandler3@@QAE?BU_s_HandlerType@@XZ 100130a2 f i libvcruntime:frame.obj
 0001:000120c1       ??Diterator@TryBlockMap@__FrameHandler3@@QAE?BU_s_TryBlockMapEntry@@XZ 100130c1 f i libvcruntime:frame.obj
 0001:000120e3       ??Eiterator@HandlerMap@__FrameHandler3@@QAEAAV012@XZ 100130e3 f i libvcruntime:frame.obj
 0001:000120e9       ??Eiterator@TryBlockMap@__FrameHandler3@@QAEAAV012@XZ 100130e9 f i libvcruntime:frame.obj
 0001:000120ef       ??Miterator@TryBlockMap@__FrameHandler3@@QBE_NABV012@@Z 100130ef f i libvcruntime:frame.obj
 0001:00012102       ??_Ebad_exception@std@@UAEPAXI@Z 10013102 f i libvcruntime:frame.obj
 0001:00012102       ??_Gbad_exception@std@@UAEPAXI@Z 10013102 f i libvcruntime:frame.obj
 0001:0001212f       ?BuildCatchObject@__FrameHandler3@@SAXPAUEHExceptionRecord@@PAXPBU_s_HandlerType@@PBU_s_CatchableType@@@Z 1001312f f   libvcruntime:frame.obj
 0001:00012134       ?BuildCatchObjectHelper@__FrameHandler3@@SAHPAUEHExceptionRecord@@PAXPBU_s_HandlerType@@PBU_s_CatchableType@@@Z 10013134 f   libvcruntime:frame.obj
 0001:0001238a       ?FrameUnwindToEmptyState@__FrameHandler3@@SAXPAUEHRegistrationNode@@PAXPBU_s_FuncInfo@@@Z 1001338a f   libvcruntime:frame.obj
 0001:000123a2       ?FrameUnwindToState@__FrameHandler3@@SAXPAUEHRegistrationNode@@PAXPBU_s_FuncInfo@@H@Z 100133a2 f   libvcruntime:frame.obj
 0001:0001248a       ?GetMaxState@__FrameHandler3@@SAHPAXPBU_s_FuncInfo@@@Z 1001348a f i libvcruntime:frame.obj
 0001:00012568       ?TypeMatch@__FrameHandler3@@SAHPBU_s_HandlerType@@PBU_s_CatchableType@@PBU_s_ThrowInfo@@@Z 10013568 f   libvcruntime:frame.obj
 0001:00012571       ?_CallMemberFunction1@@YGXQAX00@Z 10013571 f i libvcruntime:frame.obj
 0001:00012581       ?_CallMemberFunction2@@YGXQAX00H@Z 10013581 f i libvcruntime:frame.obj
 0001:00012594       ?begin@HandlerMap@__FrameHandler3@@QAE?AViterator@12@XZ 10013594 f i libvcruntime:frame.obj
 0001:000125a4       ?end@HandlerMap@__FrameHandler3@@QAE?AViterator@12@XZ 100135a4 f i libvcruntime:frame.obj
 0001:000125b5       ?getESTypes@__FrameHandler3@@SAPBU_s_ESTypeList@@PBU_s_FuncInfo@@@Z 100135b5 f i libvcruntime:frame.obj
 0001:000125c0       ?getLastEntry@HandlerMap@__FrameHandler3@@QAEPBU_s_HandlerType@@XZ 100135c0 f i libvcruntime:frame.obj
 0001:000125ce       ?getMagicNum@__FrameHandler3@@SAIPBU_s_FuncInfo@@@Z 100135ce f i libvcruntime:frame.obj
 0001:000125dd       ?getNumTryBlocks@TryBlockMap@__FrameHandler3@@QAEIXZ 100135dd f i libvcruntime:frame.obj
 0001:000125e3       ?isEHs@__FrameHandler3@@SA_NPBU_s_FuncInfo@@@Z 100135e3 f i libvcruntime:frame.obj
 0001:000125f0       ?isNoExcept@__FrameHandler3@@SA_NPBU_s_FuncInfo@@@Z 100135f0 f i libvcruntime:frame.obj
 0001:00012600       ___BuildCatchObject        10013600 f   libvcruntime:frame.obj
 0001:00012605       ___BuildCatchObjectHelper  10013605 f   libvcruntime:frame.obj
 0001:0001260e       ___TypeMatch               1001360e f   libvcruntime:frame.obj
 0001:00012617       ___vcrt_EncodePointer      10013617 f i libvcruntime:frame.obj
 0001:00012630       __CallSettingFrame@12      10013630 f   libvcruntime:lowhelpr.obj
 0001:00012657       __NLG_Return               10013657     libvcruntime:lowhelpr.obj
 0001:00012687       ___except_validate_context_record 10013687 f   libvcruntime:jbcxrval.obj
 0001:000126b7       ___except_validate_jump_buffer 100136b7 f   libvcruntime:jbcxrval.obj
 0001:000126e4       ___except_validate_jump_buffer_common 100136e4 f i libvcruntime:jbcxrval.obj
 0001:00012720       __local_unwind4            10013720 f   libvcruntime:exsup4.obj
 0001:00012810       __seh_longjmp_unwind4@4    10013810 f   libvcruntime:exsup4.obj
 0001:00012840       @_EH4_CallFilterFunc@8     10013840 f   libvcruntime:exsup4.obj
 0001:00012860       @_EH4_TransferToHandler@8  10013860 f   libvcruntime:exsup4.obj
 0001:00012880       @_EH4_GlobalUnwind2@8      10013880 f   libvcruntime:exsup4.obj
 0001:000128a0       @_EH4_LocalUnwind@16       100138a0 f   libvcruntime:exsup4.obj
 0001:000128b7       ___vcrt_initialize_locks   100138b7 f   libvcruntime:locks.obj
 0001:000128f3       ___vcrt_lock               100138f3 f   libvcruntime:locks.obj
 0001:00012908       ___vcrt_uninitialize_locks 10013908 f   libvcruntime:locks.obj
 0001:00012937       ___vcrt_unlock             10013937 f   libvcruntime:locks.obj
 0001:0001294c       ??$?0$00@DName@@QAE@PBDU?$StringLifeSelector@$00@@@Z 1001394c f i libvcruntime:undname.obj
 0001:0001297f       ??$?0$00@pcharNode@@QAE@PBDHU?$StringLifeSelector@$00@@@Z 1001397f f i libvcruntime:undname.obj
 0001:0001299a       ??$?0$01@DName@@QAE@PBDU?$StringLifeSelector@$01@@@Z 1001399a f i libvcruntime:undname.obj
 0001:000129cd       ??$?0$01@pcharNode@@QAE@PBDHU?$StringLifeSelector@$01@@@Z 100139cd f i libvcruntime:undname.obj
 0001:00012a0d       ??$?0$0A@@DName@@QAE@PBDU?$StringLifeSelector@$0A@@@@Z 10013a0d f i libvcruntime:undname.obj
 0001:00012a40       ??$?0$0A@@pcharNode@@QAE@PBDHU?$StringLifeSelector@$0A@@@@Z 10013a40 f i libvcruntime:undname.obj
 0001:00012a80       ??$?0_K$0A@@?$optional@_K@std@@QAE@$$QA_K@Z 10013a80 f i libvcruntime:undname.obj
 0001:00012a9a       ??$?0_K@?$_Optional_construct_base@_K@std@@QAE@Uin_place_t@1@$$QA_K@Z 10013a9a f i libvcruntime:undname.obj
 0001:00012ab4       ??$?0_K@?$_Optional_destruct_base@_K$00@std@@QAE@Uin_place_t@1@$$QA_K@Z 10013ab4 f i libvcruntime:undname.obj
 0001:00012ace       ??$append@VDNameNode@@@DName@@AAEXPBVDNameNode@@@Z 10013ace f i libvcruntime:undname.obj
 0001:00012b0f       ??$append@VDNameStatusNode@@@DName@@AAEXPBVDNameStatusNode@@@Z 10013b0f f i libvcruntime:undname.obj
 0001:00012b50       ??$append@VcharNode@@@DName@@AAEXPBVcharNode@@@Z 10013b50 f i libvcruntime:undname.obj
 0001:00012b91       ??$append@VpDNameNode@@@DName@@AAEXPBVpDNameNode@@@Z 10013b91 f i libvcruntime:undname.obj
 0001:00012bd2       ??$append@VpcharNode@@@DName@@AAEXPBVpcharNode@@@Z 10013bd2 f i libvcruntime:undname.obj
 0001:00012c13       ??$doPchar@$00@DName@@AAEXPBDH@Z 10013c13 f i libvcruntime:undname.obj
 0001:00012c7e       ??$doPchar@$01@DName@@AAEXPBDH@Z 10013c7e f i libvcruntime:undname.obj
 0001:00012cef       ??$doPchar@$0A@@DName@@AAEXPBDH@Z 10013cef f i libvcruntime:undname.obj
 0001:00012d60       ??$forward@_K@std@@YA$$QA_KAA_K@Z 10013d60 f i libvcruntime:undname.obj
 0001:00012d68       ??$size@D$04@std@@YAIAAY04$$CBD@Z 10013d68 f i libvcruntime:undname.obj
 0001:00012d6c       ??$size@D$0EB@@std@@YAIAAY0EB@$$CBD@Z 10013d6c f i libvcruntime:undname.obj
 0001:00012d70       ??0?$_Optional_construct_base@_K@std@@QAE@XZ 10013d70 f i libvcruntime:undname.obj
 0001:00012d77       ??0?$_Optional_destruct_base@_K$00@std@@QAE@XZ 10013d77 f i libvcruntime:undname.obj
 0001:00012d7e       ??0?$optional@_K@std@@QAE@XZ 10013d7e f i libvcruntime:undname.obj
 0001:00012d85       ??0Block@_HeapManager@@QAE@XZ 10013d85 f i libvcruntime:undname.obj
 0001:00012d8b       ??0DName@@QAE@AAPBDD@Z     10013d8b f   libvcruntime:undname.obj
 0001:00012e0b       ??0DName@@QAE@ABUStringLiteral@@@Z 10013e0b f   libvcruntime:undname.obj
 0001:00012e32       ??0DName@@QAE@ABV0@@Z      10013e32 f i libvcruntime:undname.obj
 0001:00012e48       ??0DName@@QAE@D@Z          10013e48 f   libvcruntime:undname.obj
 0001:00012e64       ??0DName@@QAE@PAV0@@Z      10013e64 f   libvcruntime:undname.obj
 0001:00012eab       ??0DName@@QAE@W4DNameStatus@@@Z 10013eab f   libvcruntime:undname.obj
 0001:00012eeb       ??0DName@@QAE@XZ           10013eeb f i libvcruntime:undname.obj
 0001:00012ef5       ??0DName@@QAE@_J@Z         10013ef5 f   libvcruntime:undname.obj
 0001:00012f81       ??0DName@@QAE@_K@Z         10013f81 f   libvcruntime:undname.obj
 0001:00012fe7       ??0DNameNode@@IAE@XZ       10013fe7 f i libvcruntime:undname.obj
 0001:00012ff0       ??0Replicator@@QAE@XZ      10013ff0 f i libvcruntime:undname.obj
 0001:00012fff       ??0UnDecorator@@QAE@PBDP6APADJ@ZK@Z 10013fff f i libvcruntime:undname.obj
 0001:0001304b       ??0_Nontrivial_dummy_type@std@@QAE@XZ 1001404b f i libvcruntime:undname.obj
 0001:0001304e       ??0charNode@@QAE@D@Z       1001404e f i libvcruntime:undname.obj
 0001:00013063       ??0pDNameNode@@QAE@PAVDName@@@Z 10014063 f   libvcruntime:undname.obj
 0001:0001308b       ??0pairNode@@QAE@PBVDNameNode@@0@Z 1001408b f i libvcruntime:undname.obj
 0001:000130b1       ??2@YAPAXIAAV_HeapManager@@H@Z 100140b1 f   libvcruntime:undname.obj
 0001:000130d0       ??4DName@@QAEAAV0@ABUStringLiteral@@@Z 100140d0 f   libvcruntime:undname.obj
 0001:000130f1       ??4DName@@QAEAAV0@ABV0@@Z  100140f1 f   libvcruntime:undname.obj
 0001:00013107       ??4DName@@QAEAAV0@D@Z      10014107 f i libvcruntime:undname.obj
 0001:00013123       ??4DName@@QAEAAV0@PAV0@@Z  10014123 f   libvcruntime:undname.obj
 0001:00013166       ??4DName@@QAEAAV0@W4DNameStatus@@@Z 10014166 f   libvcruntime:undname.obj
 0001:00013198       ??AReplicator@@QBE?AVDName@@H@Z 10014198 f   libvcruntime:undname.obj
 0001:000131de       ??B?$optional@_K@std@@QBE_NXZ 100141de f i libvcruntime:undname.obj
 0001:000131e2       ??D?$optional@_K@std@@QGAEAA_KXZ 100141e2 f i libvcruntime:undname.obj
 0001:000131e5       ??H@YA?AVDName@@ABUStringLiteral@@ABV0@@Z 100141e5 f i libvcruntime:undname.obj
 0001:00013207       ??H@YA?AVDName@@DABV0@@Z   10014207 f i libvcruntime:undname.obj
 0001:00013232       ??H@YA?AVDName@@W4DNameStatus@@ABV0@@Z 10014232 f i libvcruntime:undname.obj
 0001:00013254       ??HDName@@QBE?AV0@ABUStringLiteral@@@Z 10014254 f   libvcruntime:undname.obj
 0001:00013276       ??HDName@@QBE?AV0@ABV0@@Z  10014276 f   libvcruntime:undname.obj
 0001:00013298       ??HDName@@QBE?AV0@D@Z      10014298 f   libvcruntime:undname.obj
 0001:000132ba       ??HDName@@QBE?AV0@PAV0@@Z  100142ba f   libvcruntime:undname.obj
 0001:000132dc       ??HDName@@QBE?AV0@W4DNameStatus@@@Z 100142dc f   libvcruntime:undname.obj
 0001:000132fe       ??HStringLiteral@@QBE?AU0@H@Z 100142fe f i libvcruntime:undname.obj
 0001:00013318       ??YDName@@QAEAAV0@ABUStringLiteral@@@Z 10014318 f   libvcruntime:undname.obj
 0001:00013370       ??YDName@@QAEAAV0@ABV0@@Z  10014370 f   libvcruntime:undname.obj
 0001:000133c7       ??YDName@@QAEAAV0@D@Z      100143c7 f   libvcruntime:undname.obj
 0001:0001341c       ??YDName@@QAEAAV0@PAV0@@Z  1001441c f   libvcruntime:undname.obj
 0001:00013480       ??YDName@@QAEAAV0@W4DNameStatus@@@Z 10014480 f   libvcruntime:undname.obj
 0001:000134c0       ??YReplicator@@QAEAAV0@ABVDName@@@Z 100144c0 f   libvcruntime:undname.obj
 0001:000134fe       ??_5DName@@QAEAAV0@ABV0@@Z 100144fe f   libvcruntime:undname.obj
 0001:0001351a       ??__K_l@@YA?AUStringLiteral@@PBDI@Z 1001451a f i libvcruntime:undname.obj
 0001:00013525       ?Constructor@_HeapManager@@QAEXP6APAXI@ZP6AXPAX@Z@Z 10014525 f i libvcruntime:undname.obj
 0001:00013542       ?Destructor@_HeapManager@@QAEXXZ 10014542 f i libvcruntime:undname.obj
 0001:00013589       ?UScore@UnDecorator@@SA?AUStringLiteral@@W4Tokens@@@Z 10014589 f   libvcruntime:undname.obj
 0001:000135b0       ?composeDeclaration@UnDecorator@@CA?AVDName@@ABV2@@Z 100145b0 f i libvcruntime:undname.obj
 0001:000142e3       ?doAccessSpecifiers@UnDecorator@@SAHXZ 100152e3 f i libvcruntime:undname.obj
 0001:000142f1       ?doAllocationLanguage@UnDecorator@@SAHXZ 100152f1 f i libvcruntime:undname.obj
 0001:000142ff       ?doAllocationModel@UnDecorator@@SAHXZ 100152ff f i libvcruntime:undname.obj
 0001:0001430d       ?doEcsu@UnDecorator@@SAHXZ 1001530d f i libvcruntime:undname.obj
 0001:0001431b       ?doEllipsis@UnDecorator@@SAHXZ 1001531b f i libvcruntime:undname.obj
 0001:00014329       ?doFunctionReturns@UnDecorator@@SAHXZ 10015329 f i libvcruntime:undname.obj
 0001:00014337       ?doMSKeywords@UnDecorator@@SAHXZ 10015337 f i libvcruntime:undname.obj
 0001:00014344       ?doMemberTypes@UnDecorator@@SAHXZ 10015344 f i libvcruntime:undname.obj
 0001:00014352       ?doNameOnly@UnDecorator@@SAHXZ 10015352 f i libvcruntime:undname.obj
 0001:0001435d       ?doNoIdentCharCheck@UnDecorator@@SAHXZ 1001535d f i libvcruntime:undname.obj
 0001:00014368       ?doPchar@DName@@AAEXD@Z    10015368 f   libvcruntime:undname.obj
 0001:000143a0       ?doPtr64@UnDecorator@@SAHXZ 100153a0 f i libvcruntime:undname.obj
 0001:000143ae       ?doRestrictionSpec@UnDecorator@@SAHXZ 100153ae f i libvcruntime:undname.obj
 0001:000143bc       ?doThisTypes@UnDecorator@@SAHXZ 100153bc f i libvcruntime:undname.obj
 0001:000143ce       ?doThrowTypes@UnDecorator@@SAHXZ 100153ce f i libvcruntime:undname.obj
 0001:000143dc       ?doTypeOnly@UnDecorator@@SAHXZ 100153dc f i libvcruntime:undname.obj
 0001:000143e7       ?doUnderScore@UnDecorator@@SAHXZ 100153e7 f i libvcruntime:undname.obj
 0001:000143f2       ?getAddressOf@UnDecorator@@CA?AVDName@@XZ 100153f2 f   libvcruntime:undname.obj
 0001:00014465       ?getArgumentList@UnDecorator@@CA?AVDName@@XZ 10015465 f   libvcruntime:undname.obj
 0001:00014572       ?getArgumentTypes@UnDecorator@@CA?AVDName@@XZ 10015572 f   libvcruntime:undname.obj
 0001:0001467b       ?getArrayAccess@UnDecorator@@CA?AVDName@@XZ 1001567b f   libvcruntime:undname.obj
 0001:000146fa       ?getArrayObject@UnDecorator@@CA?AVDName@@XZ 100156fa f   libvcruntime:undname.obj
 0001:000147a9       ?getArrayType@UnDecorator@@CA?AVDName@@ABV2@@Z 100157a9 f i libvcruntime:undname.obj
 0001:00014946       ?getBasedType@UnDecorator@@CA?AVDName@@XZ 10015946 f   libvcruntime:undname.obj
 0001:000149f8       ?getBasicDataType@UnDecorator@@CA?AVDName@@ABV2@@Z 100159f8 f   libvcruntime:undname.obj
 0001:00014f24       ?getCHPEName@UnDecorator@@QAEPADPADH@Z 10015f24 f i libvcruntime:undname.obj
 0001:00015001       ?getCallIndex@UnDecorator@@CA?AVDName@@XZ 10016001 f i libvcruntime:undname.obj
 0001:00015015       ?getCallingConvention@UnDecorator@@CA?AVDName@@XZ 10016015 f   libvcruntime:undname.obj
 0001:000150f2       ?getDataIndirectType@UnDecorator@@CA?AVDName@@ABV2@W4IndirectionKind@@0H@Z 100160f2 f   libvcruntime:undname.obj
 0001:00015791       ?getDataIndirectType@UnDecorator@@CA?AVDName@@XZ 10016791 f i libvcruntime:undname.obj
 0001:000157bf       ?getDataType@UnDecorator@@CA?AVDName@@PAV2@@Z 100167bf f   libvcruntime:undname.obj
 0001:00015896       ?getDecoratedName@UnDecorator@@CA?AVDName@@XZ 10016896 f   libvcruntime:undname.obj
 0001:00015b00       ?getDimension@UnDecorator@@CA?AVDName@@_N@Z 10016b00 f   libvcruntime:undname.obj
 0001:00015c07       ?getDispatchTarget@UnDecorator@@CA?AVDName@@XZ 10016c07 f   libvcruntime:undname.obj
 0001:00015c64       ?getDisplacement@UnDecorator@@CA?AVDName@@XZ 10016c64 f i libvcruntime:undname.obj
 0001:00015c78       ?getECSUDataType@UnDecorator@@CA?AVDName@@XZ 10016c78 f   libvcruntime:undname.obj
 0001:00015e20       ?getECSUName@UnDecorator@@CA?AVDName@@XZ 10016e20 f i libvcruntime:undname.obj
 0001:00015e31       ?getEnumType@UnDecorator@@CA?AVDName@@XZ 10016e31 f i libvcruntime:undname.obj
 0001:00015f5d       ?getExtendedDataIndirectType@UnDecorator@@CA?AVDName@@AAW4IndirectionKind@@AA_NH@Z 10016f5d f   libvcruntime:undname.obj
 0001:00016110       ?getExternalDataType@UnDecorator@@CA?AVDName@@ABV2@@Z 10017110 f i libvcruntime:undname.obj
 0001:00016175       ?getFloatingPoint@UnDecorator@@CA?AVDName@@H@Z 10017175 f   libvcruntime:undname.obj
 0001:00016269       ?getFunctionIndirectType@UnDecorator@@CA?AVDName@@ABV2@@Z 10017269 f   libvcruntime:undname.obj
 0001:00016622       ?getGuardNumber@UnDecorator@@CA?AVDName@@XZ 10017622 f i libvcruntime:undname.obj
 0001:00016636       ?getLastChar@DName@@QBEDXZ 10017636 f i libvcruntime:undname.obj
 0001:00016656       ?getLastChar@DNameStatusNode@@UBEDXZ 10017656 f i libvcruntime:undname.obj
 0001:00016662       ?getLastChar@charNode@@UBEDXZ 10017662 f i libvcruntime:undname.obj
 0001:00016666       ?getLastChar@pDNameNode@@UBEDXZ 10017666 f i libvcruntime:undname.obj
 0001:00016674       ?getLastChar@pairNode@@UBEDXZ 10017674 f i libvcruntime:undname.obj
 0001:000166a9       ?getLastChar@pcharNode@@UBEDXZ 100176a9 f i libvcruntime:undname.obj
 0001:000166bb       ?getLexicalFrame@UnDecorator@@CA?AVDName@@XZ 100176bb f i libvcruntime:undname.obj
 0001:000166ec       ?getMemberAccess@UnDecorator@@CA?AVDName@@XZ 100176ec f   libvcruntime:undname.obj
 0001:00016767       ?getMemoryWithBuffer@_HeapManager@@QAEPAXI@Z 10017767 f   libvcruntime:undname.obj
 0001:000167d1       ?getMemoryWithoutBuffer@_HeapManager@@QAEPAXI@Z 100177d1 f   libvcruntime:undname.obj
 0001:000167f1       ?getNoexcept@UnDecorator@@CA?AVDName@@XZ 100177f1 f   libvcruntime:undname.obj
 0001:00016839       ?getNumberOfDimensions@UnDecorator@@CAHXZ 10017839 f   libvcruntime:undname.obj
 0001:00016890       ?getOperatorName@UnDecorator@@CA?AVDName@@_NPA_N@Z 10017890 f i libvcruntime:undname.obj
 0001:0001701a       ?getPointerToMember@UnDecorator@@CA?AVDName@@XZ 1001801a f   libvcruntime:undname.obj
 0001:000170d5       ?getPointerType@UnDecorator@@CA?AVDName@@ABV2@0@Z 100180d5 f i libvcruntime:undname.obj
 0001:000170f0       ?getPointerTypeArray@UnDecorator@@CA?AVDName@@ABV2@0@Z 100180f0 f i libvcruntime:undname.obj
 0001:0001710b       ?getPrimaryDataType@UnDecorator@@CA?AVDName@@ABV2@@Z 1001810b f   libvcruntime:undname.obj
 0001:0001735a       ?getPtrRefDataType@UnDecorator@@CA?AVDName@@ABV2@H@Z 1001835a f   libvcruntime:undname.obj
 0001:000174c7       ?getPtrRefType@UnDecorator@@CA?AVDName@@ABV2@0W4IndirectionKind@@@Z 100184c7 f   libvcruntime:undname.obj
 0001:000175d8       ?getReferenceType@UnDecorator@@CA?AVDName@@ABV2@0W4IndirectionKind@@@Z 100185d8 f i libvcruntime:undname.obj
 0001:000175f4       ?getRestrictionSpec@UnDecorator@@CA?AVDName@@XZ 100185f4 f   libvcruntime:undname.obj
 0001:00017710       ?getReturnType@UnDecorator@@CA?AVDName@@PAV2@@Z 10018710 f   libvcruntime:undname.obj
 0001:0001773f       ?getScope@UnDecorator@@CA?AVDName@@XZ 1001873f f   libvcruntime:undname.obj
 0001:00017af1       ?getScopedName@UnDecorator@@CA?AVDName@@XZ 10018af1 f   libvcruntime:undname.obj
 0001:00017bdc       ?getSignedDimension@UnDecorator@@CA?AVDName@@XZ 10018bdc f   libvcruntime:undname.obj
 0001:00017c2d       ?getStorageConvention@UnDecorator@@CA?AVDName@@XZ 10018c2d f i libvcruntime:undname.obj
 0001:00017c3e       ?getString@DName@@QBEPADPAD0@Z 10018c3e f i libvcruntime:undname.obj
 0001:00017c6b       ?getString@DName@@QBEPADPADH@Z 10018c6b f i libvcruntime:undname.obj
 0001:00017cc0       ?getString@DNameStatusNode@@UBEPADPAD0@Z 10018cc0 f i libvcruntime:undname.obj
 0001:00017d06       ?getString@charNode@@UBEPADPAD0@Z 10018d06 f i libvcruntime:undname.obj
 0001:00017d1b       ?getString@pDNameNode@@UBEPADPAD0@Z 10018d1b f i libvcruntime:undname.obj
 0001:00017d32       ?getString@pairNode@@UBEPADPAD0@Z 10018d32 f i libvcruntime:undname.obj
 0001:00017d78       ?getString@pcharNode@@UBEPADPAD0@Z 10018d78 f i libvcruntime:undname.obj
 0001:00017d93       ?getStringEncoding@UnDecorator@@CA?AVDName@@W4PrefixKind@@H@Z 10018d93 f   libvcruntime:undname.obj
 0001:00017e41       ?getStringHelper@@YAPADPADPBD1H@Z 10018e41 f i libvcruntime:undname.obj
 0001:00017e6b       ?getStringObject@UnDecorator@@CA?AVDName@@XZ 10018e6b f   libvcruntime:undname.obj
 0001:00017ec2       ?getSymbolName@UnDecorator@@CA?AVDName@@XZ 10018ec2 f i libvcruntime:undname.obj
 0001:00017f0c       ?getTemplateArgumentList@UnDecorator@@CA?AVDName@@XZ 10018f0c f   libvcruntime:undname.obj
 0001:000180c8       ?getTemplateName@UnDecorator@@CA?AVDName@@_N@Z 100190c8 f   libvcruntime:undname.obj
 0001:00018229       ?getTemplateNonTypeArgument@UnDecorator@@CA?AVDName@@XZ 10019229 f   libvcruntime:undname.obj
 0001:000185cd       ?getTemplateTypeArgument@UnDecorator@@CA?AVDName@@XZ 100195cd f   libvcruntime:undname.obj
 0001:000186d3       ?getThisType@UnDecorator@@CA?AVDName@@XZ 100196d3 f i libvcruntime:undname.obj
 0001:00018702       ?getThrowTypes@UnDecorator@@CA?AVDName@@XZ 10019702 f   libvcruntime:undname.obj
 0001:00018721       ?getTypeEncoding@UnDecorator@@CAHXZ 10019721 f i libvcruntime:undname.obj
 0001:00018a85       ?getUndecoratedName@UnDecorator@@QAEPADPADH@Z 10019a85 f i libvcruntime:undname.obj
 0001:00018ba4       ?getUnionObject@UnDecorator@@CA?AVDName@@XZ 10019ba4 f   libvcruntime:undname.obj
 0001:00018c53       ?getVCallThunkType@UnDecorator@@CA?AVDName@@XZ 10019c53 f i libvcruntime:undname.obj
 0001:00018ca9       ?getValue@UnDecorator@@CA?AV?$optional@_K@std@@XZ 10019ca9 f   libvcruntime:undname.obj
 0001:00018d17       ?getValueObject@UnDecorator@@CA?AVDName@@XZ 10019d17 f   libvcruntime:undname.obj
 0001:00018e3c       ?getVbTableType@UnDecorator@@CA?AVDName@@ABV2@@Z 10019e3c f i libvcruntime:undname.obj
 0001:00018e51       ?getVdispMapType@UnDecorator@@CA?AVDName@@ABV2@@Z 10019e51 f i libvcruntime:undname.obj
 0001:00018eb2       ?getVfTableType@UnDecorator@@CA?AVDName@@ABV2@@Z 10019eb2 f i libvcruntime:undname.obj
 0001:00019008       ?getZName@UnDecorator@@CA?AVDName@@_N0@Z 1001a008 f   libvcruntime:undname.obj
 0001:00019218       ?get_current_character_and_increment_buffer@UnDecorator@@CADXZ 1001a218 f i libvcruntime:undname.obj
 0001:0001922c       ?haveTemplateParameters@UnDecorator@@SAHXZ 1001a22c f i libvcruntime:undname.obj
 0001:00019237       ?increment_buffer@UnDecorator@@CA_NI@Z 1001a237 f i libvcruntime:undname.obj
 0001:0001925f       ?increment_buffer_no_check@UnDecorator@@CAXI@Z 1001a25f f i libvcruntime:undname.obj
 0001:0001926d       ?increment_buffer_no_check@UnDecorator@@CAXXZ 1001a26d f i libvcruntime:undname.obj
 0001:00019274       ?isArray@DName@@QBEHXZ     1001a274 f i libvcruntime:undname.obj
 0001:0001927e       ?isComArray@DName@@QBEHXZ  1001a27e f i libvcruntime:undname.obj
 0001:00019288       ?isEmpty@DName@@QBEHXZ     1001a288 f i libvcruntime:undname.obj
 0001:00019290       ?isFull@Replicator@@QBEHXZ 1001a290 f i libvcruntime:undname.obj
 0001:00019299       ?isNoTE@DName@@QBEHXZ      1001a299 f i libvcruntime:undname.obj
 0001:000192a3       ?isPinPtr@DName@@QBEHXZ    1001a2a3 f i libvcruntime:undname.obj
 0001:000192ad       ?isPtrRef@DName@@QBEHXZ    1001a2ad f i libvcruntime:undname.obj
 0001:000192b7       ?isUDC@DName@@QBEHXZ       1001a2b7 f i libvcruntime:undname.obj
 0001:000192c8       ?isUDTThunk@DName@@QBEHXZ  1001a2c8 f i libvcruntime:undname.obj
 0001:000192d9       ?isVCallThunk@DName@@QBEHXZ 1001a2d9 f i libvcruntime:undname.obj
 0001:000192e3       ?isValid@DName@@QBEHXZ     1001a2e3 f i libvcruntime:undname.obj
 0001:000192ed       ?length@DName@@QBEHXZ      1001a2ed f i libvcruntime:undname.obj
 0001:0001930c       ?length@DNameStatusNode@@UBEHXZ 1001a30c f i libvcruntime:undname.obj
 0001:00019310       ?length@charNode@@UBEHXZ   1001a310 f i libvcruntime:undname.obj
 0001:00019314       ?length@pDNameNode@@UBEHXZ 1001a314 f i libvcruntime:undname.obj
 0001:00019322       ?length@pairNode@@UBEHXZ   1001a322 f i libvcruntime:undname.obj
 0001:0001936b       ?length@pcharNode@@UBEHXZ  1001a36b f i libvcruntime:undname.obj
 0001:0001936f       ?make@DNameStatusNode@@SAPBV1@W4DNameStatus@@@Z 1001a36f f i libvcruntime:undname.obj
 0001:0001938b       ?parseDecoratedName@UnDecorator@@CA?AVDName@@XZ 1001a38b f   libvcruntime:undname.obj
 0001:00019486       ?raw_length@DNameStatusNode@@UBEHXZ 1001a486 f i libvcruntime:undname.obj
 0001:0001948a       ?raw_length@charNode@@UBEHXZ 1001a48a f i libvcruntime:undname.obj
 0001:0001948e       ?raw_length@pDNameNode@@UBEHXZ 1001a48e f i libvcruntime:undname.obj
 0001:00019492       ?raw_length@pairNode@@UBEHXZ 1001a492 f i libvcruntime:undname.obj
 0001:00019496       ?raw_length@pcharNode@@UBEHXZ 1001a496 f i libvcruntime:undname.obj
 0001:0001949a       ?setIsArray@DName@@QAEXXZ  1001a49a f i libvcruntime:undname.obj
 0001:000194a2       ?setIsComArray@DName@@QAEXXZ 1001a4a2 f i libvcruntime:undname.obj
 0001:000194aa       ?setIsNoTE@DName@@QAEXXZ   1001a4aa f i libvcruntime:undname.obj
 0001:000194b2       ?setIsPinPtr@DName@@QAEXXZ 1001a4b2 f i libvcruntime:undname.obj
 0001:000194ba       ?setIsUDC@DName@@QAEXXZ    1001a4ba f i libvcruntime:undname.obj
 0001:000194c7       ?setIsVCallThunk@DName@@QAEXXZ 1001a4c7 f i libvcruntime:undname.obj
 0001:000194cf       ?setPtrRef@DName@@QAEAAV1@XZ 1001a4cf f i libvcruntime:undname.obj
 0001:000194d9       ?status@DName@@QBE?AW4DNameStatus@@XZ 1001a4d9 f i libvcruntime:undname.obj
 0001:00019545       ___unDName                 1001a545 f   libvcruntime:undname.obj
 0001:00019568       ___unDNameEx               1001a568 f   libvcruntime:undname.obj
 0001:00019607       __vsprintf_s_l             1001a607 f i libvcruntime:undname.obj
 0001:00019634       _sprintf_s                 1001a634 f i libvcruntime:undname.obj
 0001:00019650       _unDNameGenerateCHPE       1001a650 f   libvcruntime:undname.obj
 0001:000196ed       ??$__crt_interlocked_exchange_pointer@UHINSTANCE__@@PAU1@@@YAPAUHINSTANCE__@@PDSAU0@QAU0@@Z 1001a6ed f i libvcruntime:winapi_downlevel.obj
 0001:000196fa       ??$__crt_interlocked_exchange_pointer@UHINSTANCE__@@PAX@@YAPAUHINSTANCE__@@PDSAU0@QAX@Z 1001a6fa f i libvcruntime:winapi_downlevel.obj
 0001:00019707       ??$__crt_interlocked_exchange_pointer@XPAX@@YAPAXPDSAXQAX@Z 1001a707 f i libvcruntime:winapi_downlevel.obj
 0001:00019714       ??$__crt_interlocked_read_pointer@UHINSTANCE__@@@@YAPAUHINSTANCE__@@PDSAU0@@Z 1001a714 f i libvcruntime:winapi_downlevel.obj
 0001:0001971e       ??$__crt_interlocked_read_pointer@X@@YAPAXPDSAX@Z 1001a71e f i libvcruntime:winapi_downlevel.obj
 0001:0001994d       ___vcrt_FlsAlloc           1001a94d f   libvcruntime:winapi_downlevel.obj
 0001:00019988       ___vcrt_FlsFree            1001a988 f   libvcruntime:winapi_downlevel.obj
 0001:000199c3       ___vcrt_FlsGetValue        1001a9c3 f   libvcruntime:winapi_downlevel.obj
 0001:000199fe       ___vcrt_FlsSetValue        1001a9fe f   libvcruntime:winapi_downlevel.obj
 0001:00019a3c       ___vcrt_InitializeCriticalSectionEx 1001aa3c f   libvcruntime:winapi_downlevel.obj
 0001:00019a83       ?GetCurrentState@__FrameHandler3@@SAHPAUEHRegistrationNode@@PAXPBU_s_FuncInfo@@@Z 1001aa83 f   libvcruntime:ehstate.obj
 0001:00019aa0       ?SetState@__FrameHandler3@@SAXPAUEHRegistrationNode@@PBU_s_FuncInfo@@H@Z 1001aaa0 f   libvcruntime:ehstate.obj
 0001:00019ab0       __global_unwind2           1001aab0 f   libvcruntime:exsup.obj
 0001:00019b30       __local_unwind2            1001ab30 f   libvcruntime:exsup.obj
 0001:00019bd0       __abnormal_termination     1001abd0 f   libvcruntime:exsup.obj
 0001:00019c00       __NLG_Notify1              1001ac00 f   libvcruntime:exsup.obj
 0001:00019c10       __NLG_Notify               1001ac10 f   libvcruntime:exsup.obj
 0001:00019c27       __NLG_Dispatch             1001ac27     libvcruntime:exsup.obj
 0001:00019c27       __NLG_Dispatch2            1001ac27     libvcruntime:exsup.obj
 0001:00019c30       __NLG_Call                 1001ac30 f   libvcruntime:exsup.obj
 0001:00019c32       __NLG_Return2              1001ac32     libvcruntime:exsup.obj
 0001:00019c33       ??$__crt_fast_decode_pointer@P6AXPB_W00II@Z@@YAP6AXPB_W00II@ZQ6AX000II@Z@Z 1001ac33 f i libucrt:invalid_parameter.obj
 0001:00019c4e       ??$__crt_fast_encode_pointer@P6AXPB_W00II@Z@@YAP6AXPB_W00II@ZQ6AX000II@Z@Z 1001ac4e f i libucrt:invalid_parameter.obj
 0001:00019c6d       ??$initialize_from_array@$$BY00Q6AXPB_W00II@Z@?$dual_state_global@P6AXPB_W00II@Z@__crt_state_management@@QAAXAAY00Q6AXPB_W00II@Z@Z 1001ac6d f i libucrt:invalid_parameter.obj
 0001:00019c7e       ??0?$cached@H@__crt_cached_ptd_host@@QAE@XZ 1001ac7e f i libucrt:invalid_parameter.obj
 0001:00019c85       ??0?$cached@K@__crt_cached_ptd_host@@QAE@XZ 1001ac85 f i libucrt:invalid_parameter.obj
 0001:00019c8c       ??0__crt_cached_ptd_host@@QAE@QAU__crt_locale_pointers@@@Z 1001ac8c f i libucrt:invalid_parameter.obj
 0001:00019cd4       ??0__crt_scoped_get_last_error_reset@@QAE@XZ 1001acd4 f i libucrt:invalid_parameter.obj
 0001:00019ce5       ??1__crt_cached_ptd_host@@QAE@XZ 1001ace5 f i libucrt:invalid_parameter.obj
 0001:00019d21       ??1__crt_scoped_get_last_error_reset@@QAE@XZ 1001ad21 f i libucrt:invalid_parameter.obj
 0001:00019d2a       ?__crt_rotate_pointer_value@@YAIIH@Z 1001ad2a f i libucrt:invalid_parameter.obj
 0001:00019d39       ?check_synchronize_global_state_index@__crt_cached_ptd_host@@AAEIABV__crt_scoped_get_last_error_reset@@@Z 1001ad39 f i libucrt:invalid_parameter.obj
 0001:00019d51       ?check_synchronize_global_state_index@__crt_cached_ptd_host@@AAEIXZ 1001ad51 f i libucrt:invalid_parameter.obj
 0001:00019d7a       ?check_synchronize_per_thread_data@__crt_cached_ptd_host@@AAEPAU__acrt_ptd@@XZ 1001ad7a f i libucrt:invalid_parameter.obj
 0001:00019d97       ?dangerous_get_state_array@?$dual_state_global@P6AXPB_W00II@Z@__crt_state_management@@QAEPAP6AXPB_W00II@ZXZ 1001ad97 f i libucrt:invalid_parameter.obj
 0001:00019d9a       ?force_synchronize_global_state_index@__crt_cached_ptd_host@@AAEIABV__crt_scoped_get_last_error_reset@@@Z 1001ad9a f i libucrt:invalid_parameter.obj
 0001:00019da7       ?force_synchronize_per_thread_data@__crt_cached_ptd_host@@AAEPAU__acrt_ptd@@XZ 1001ada7 f i libucrt:invalid_parameter.obj
 0001:00019ded       ?get_current_global_state_index@__crt_cached_ptd_host@@QAEIXZ 1001aded f i libucrt:invalid_parameter.obj
 0001:00019df2       ?get_current_state_index@__crt_state_management@@YAIABV__crt_scoped_get_last_error_reset@@@Z 1001adf2 f i libucrt:invalid_parameter.obj
 0001:00019df5       ?get_current_state_index@__crt_state_management@@YAIXZ 1001adf5 f i libucrt:invalid_parameter.obj
 0001:00019df8       ?get_raw_ptd@__crt_cached_ptd_host@@QAEPAU__acrt_ptd@@XZ 1001adf8 f i libucrt:invalid_parameter.obj
 0001:00019e15       ?get_raw_ptd_noexit@__crt_cached_ptd_host@@QAEPAU__acrt_ptd@@XZ 1001ae15 f i libucrt:invalid_parameter.obj
 0001:00019e20       ?try_synchronize_per_thread_data@__crt_cached_ptd_host@@AAEPAU__acrt_ptd@@XZ 1001ae20 f i libucrt:invalid_parameter.obj
 0001:00019e2b       ?unsafe_value@?$cached@H@__crt_cached_ptd_host@@QAEHXZ 1001ae2b f i libucrt:invalid_parameter.obj
 0001:00019e2e       ?unsafe_value@?$cached@K@__crt_cached_ptd_host@@QAEKXZ 1001ae2e f i libucrt:invalid_parameter.obj
 0001:00019e31       ?valid@?$cached@H@__crt_cached_ptd_host@@QBE_NXZ 1001ae31 f i libucrt:invalid_parameter.obj
 0001:00019e35       ?valid@?$cached@K@__crt_cached_ptd_host@@QBE_NXZ 1001ae35 f i libucrt:invalid_parameter.obj
 0001:00019e39       ?value@?$dual_state_global@P6AXPB_W00II@Z@__crt_state_management@@QAEAAP6AXPB_W00II@ZAAV__crt_cached_ptd_host@@@Z 1001ae39 f i libucrt:invalid_parameter.obj
 0001:00019e51       ?value@?$dual_state_global@P6AXPB_W00II@Z@__crt_state_management@@QAEAAP6AXPB_W00II@ZXZ 1001ae51 f i libucrt:invalid_parameter.obj
 0001:00019e54       ___acrt_call_reportfault   1001ae54 f   libucrt:invalid_parameter.obj
 0001:00019f8d       ___acrt_enable_global_locale_sync 1001af8d f i libucrt:invalid_parameter.obj
 0001:00019fa2       ___acrt_initialize_invalid_parameter_handler 1001afa2 f   libucrt:invalid_parameter.obj
 0001:00019fb1       ___acrt_locale_changed     1001afb1 f i libucrt:invalid_parameter.obj
 0001:00019fbc       __get_invalid_parameter_handler 1001afbc f   libucrt:invalid_parameter.obj
 0001:00019fd3       __get_thread_local_invalid_parameter_handler 1001afd3 f   libucrt:invalid_parameter.obj
 0001:00019fe4       __invalid_parameter        1001afe4 f   libucrt:invalid_parameter.obj
 0001:0001a01b       __invalid_parameter_internal 1001b01b f   libucrt:invalid_parameter.obj
 0001:0001a098       __invalid_parameter_noinfo 1001b098 f   libucrt:invalid_parameter.obj
 0001:0001a0a8       __invalid_parameter_noinfo_noreturn 1001b0a8 f   libucrt:invalid_parameter.obj
 0001:0001a0c5       __invoke_watson            1001b0c5 f   libucrt:invalid_parameter.obj
 0001:0001a0f9       __set_invalid_parameter_handler 1001b0f9 f   libucrt:invalid_parameter.obj
 0001:0001a129       __set_thread_local_invalid_parameter_handler 1001b129 f   libucrt:invalid_parameter.obj
 0001:0001a146       ?get_doserrno@__crt_cached_ptd_host@@QAE@XZ 1001b146 f i libucrt:errno.obj
 0001:0001a14a       ?get_errno@__crt_cached_ptd_host@@QAE@XZ 1001b14a f i libucrt:errno.obj
 0001:0001a14e       ?set@?$cached@H@__crt_cached_ptd_host@@QAEHH@Z 1001b14e f i libucrt:errno.obj
 0001:0001a160       ?set@?$cached@K@__crt_cached_ptd_host@@QAEKK@Z 1001b160 f i libucrt:errno.obj
 0001:0001a172       ___acrt_errno_from_os_error 1001b172 f   libucrt:errno.obj
 0001:0001a1b5       ___acrt_errno_map_os_error 1001b1b5 f   libucrt:errno.obj
 0001:0001a1d8       ___acrt_errno_map_os_error_ptd 1001b1d8 f   libucrt:errno.obj
 0001:0001a1fc       ___doserrno                1001b1fc f   libucrt:errno.obj
 0001:0001a20f       __errno                    1001b20f f   libucrt:errno.obj
 0001:0001a222       __get_doserrno             1001b222 f   libucrt:errno.obj
 0001:0001a247       __get_errno                1001b247 f   libucrt:errno.obj
 0001:0001a26c       __set_doserrno             1001b26c f   libucrt:errno.obj
 0001:0001a28d       __set_errno                1001b28d f   libucrt:errno.obj
 0001:0001a312       _wcscpy_s                  1001b312 f   libucrt:wcscpy_s.obj
 0001:0001a444       _wcsncpy_s                 1001b444 f   libucrt:wcsncpy_s.obj
 0001:0001ac4a       ??1?$__crt_simd_cleanup_guard@$00@@QAE@XZ 1001bc4a f i libucrt:strnlen.obj
 0001:0001ac4e       ??1?$__crt_simd_cleanup_guard@$0A@@@QAE@XZ 1001bc4e f i libucrt:strnlen.obj
 0001:0001ac51       ?compare_equals@?$__crt_simd_traits@$00E@@SA?AT__m256i@@T2@0@Z 1001bc51 f i libucrt:strnlen.obj
 0001:0001ac56       ?compare_equals@?$__crt_simd_traits@$00G@@SA?AT__m256i@@T2@0@Z 1001bc56 f i libucrt:strnlen.obj
 0001:0001ac5b       ?compare_equals@?$__crt_simd_traits@$0A@E@@SA?AT__m128i@@T2@0@Z 1001bc5b f i libucrt:strnlen.obj
 0001:0001ac60       ?compare_equals@?$__crt_simd_traits@$0A@G@@SA?AT__m128i@@T2@0@Z 1001bc60 f i libucrt:strnlen.obj
 0001:0001ac65       ?compute_byte_mask@?$__crt_simd_pack_traits@$00@@SAHT__m256i@@@Z 1001bc65 f i libucrt:strnlen.obj
 0001:0001ac6a       ?compute_byte_mask@?$__crt_simd_pack_traits@$0A@@@SAHT__m128i@@@Z 1001bc6a f i libucrt:strnlen.obj
 0001:0001ac6f       ?get_zero_pack@?$__crt_simd_pack_traits@$00@@SA?AT__m256i@@XZ 1001bc6f f i libucrt:strnlen.obj
 0001:0001ac74       ?get_zero_pack@?$__crt_simd_pack_traits@$0A@@@SA?AT__m128i@@XZ 1001bc74 f i libucrt:strnlen.obj
 0001:0001ac78       _strnlen                   1001bc78 f   libucrt:strnlen.obj
 0001:0001ad9a       _wcslen                    1001bd9a f   libucrt:strnlen.obj
 0001:0001aec2       _wcsnlen                   1001bec2 f   libucrt:strnlen.obj
 0001:0001b072       _wcsncmp                   1001c072 f   libucrt:wcsncmp.obj
 0001:0001b0ac       ??$?0ABV?$stream_output_adapter@D@__crt_stdio_output@@AB_KABQBDAAV__crt_cached_ptd_host@@ABQAD@?$format_validation_base@DV?$stream_output_adapter@D@__crt_stdio_output@@@__crt_stdio_output@@IAE@ABV?$stream_output_adapter@D@1@AB_KABQBDAAV__crt_cached_ptd_host@@ABQAD@Z 1001c0ac f i libucrt:output.obj
 0001:0001b0cf       ??$?0ABV?$stream_output_adapter@D@__crt_stdio_output@@AB_KABQBDAAV__crt_cached_ptd_host@@ABQAD@?$positional_parameter_base@DV?$stream_output_adapter@D@__crt_stdio_output@@@__crt_stdio_output@@IAE@ABV?$stream_output_adapter@D@1@AB_KABQBDAAV__crt_cached_ptd_host@@ABQAD@Z 1001c0cf f i libucrt:output.obj
 0001:0001b117       ??$?0ABV?$stream_output_adapter@D@__crt_stdio_output@@AB_KABQBDAAV__crt_cached_ptd_host@@ABQAD@?$standard_base@DV?$stream_output_adapter@D@__crt_stdio_output@@@__crt_stdio_output@@IAE@ABV?$stream_output_adapter@D@1@AB_KABQBDAAV__crt_cached_ptd_host@@ABQAD@Z 1001c117 f i libucrt:output.obj
 0001:0001b14a       ??$?0ABV?$stream_output_adapter@_W@__crt_stdio_output@@AB_KABQB_WAAV__crt_cached_ptd_host@@ABQAD@?$format_validation_base@_WV?$stream_output_adapter@_W@__crt_stdio_output@@@__crt_stdio_output@@IAE@ABV?$stream_output_adapter@_W@1@AB_KABQB_WAAV__crt_cached_ptd_host@@ABQAD@Z 1001c14a f i libucrt:output.obj
 0001:0001b16d       ??$?0ABV?$stream_output_adapter@_W@__crt_stdio_output@@AB_KABQB_WAAV__crt_cached_ptd_host@@ABQAD@?$positional_parameter_base@_WV?$stream_output_adapter@_W@__crt_stdio_output@@@__crt_stdio_output@@IAE@ABV?$stream_output_adapter@_W@1@AB_KABQB_WAAV__crt_cached_ptd_host@@ABQAD@Z 1001c16d f i libucrt:output.obj
 0001:0001b1b5       ??$?0ABV?$stream_output_adapter@_W@__crt_stdio_output@@AB_KABQB_WAAV__crt_cached_ptd_host@@ABQAD@?$standard_base@_WV?$stream_output_adapter@_W@__crt_stdio_output@@@__crt_stdio_output@@IAE@ABV?$stream_output_adapter@_W@1@AB_KABQB_WAAV__crt_cached_ptd_host@@ABQAD@Z 1001c1b5 f i libucrt:output.obj
 0001:0001b1e8       ??$?0ABV?$string_output_adapter@D@__crt_stdio_output@@AB_KABQBDAAV__crt_cached_ptd_host@@ABQAD@?$format_validation_base@DV?$string_output_adapter@D@__crt_stdio_output@@@__crt_stdio_output@@IAE@ABV?$string_output_adapter@D@1@AB_KABQBDAAV__crt_cached_ptd_host@@ABQAD@Z 1001c1e8 f i libucrt:output.obj
 0001:0001b20b       ??$?0ABV?$string_output_adapter@D@__crt_stdio_output@@AB_KABQBDAAV__crt_cached_ptd_host@@ABQAD@?$positional_parameter_base@DV?$string_output_adapter@D@__crt_stdio_output@@@__crt_stdio_output@@IAE@ABV?$string_output_adapter@D@1@AB_KABQBDAAV__crt_cached_ptd_host@@ABQAD@Z 1001c20b f i libucrt:output.obj
 0001:0001b253       ??$?0ABV?$string_output_adapter@D@__crt_stdio_output@@AB_KABQBDAAV__crt_cached_ptd_host@@ABQAD@?$standard_base@DV?$string_output_adapter@D@__crt_stdio_output@@@__crt_stdio_output@@IAE@ABV?$string_output_adapter@D@1@AB_KABQBDAAV__crt_cached_ptd_host@@ABQAD@Z 1001c253 f i libucrt:output.obj
 0001:0001b286       ??$?0ABV?$string_output_adapter@_W@__crt_stdio_output@@AB_KABQB_WAAV__crt_cached_ptd_host@@ABQAD@?$format_validation_base@_WV?$string_output_adapter@_W@__crt_stdio_output@@@__crt_stdio_output@@IAE@ABV?$string_output_adapter@_W@1@AB_KABQB_WAAV__crt_cached_ptd_host@@ABQAD@Z 1001c286 f i libucrt:output.obj
 0001:0001b2a9       ??$?0ABV?$string_output_adapter@_W@__crt_stdio_output@@AB_KABQB_WAAV__crt_cached_ptd_host@@ABQAD@?$positional_parameter_base@_WV?$string_output_adapter@_W@__crt_stdio_output@@@__crt_stdio_output@@IAE@ABV?$string_output_adapter@_W@1@AB_KABQB_WAAV__crt_cached_ptd_host@@ABQAD@Z 1001c2a9 f i libucrt:output.obj
 0001:0001b2f1       ??$?0ABV?$string_output_adapter@_W@__crt_stdio_output@@AB_KABQB_WAAV__crt_cached_ptd_host@@ABQAD@?$standard_base@_WV?$string_output_adapter@_W@__crt_stdio_output@@@__crt_stdio_output@@IAE@ABV?$string_output_adapter@_W@1@AB_KABQB_WAAV__crt_cached_ptd_host@@ABQAD@Z 1001c2f1 f i libucrt:output.obj
 0001:0001b62a       ??$__crt_interlocked_read@J@@YAJPDJ@Z 1001c62a f i libucrt:output.obj
 0001:0001b637       ??$_tcstol_internal@DPAPAD$0A@@@YAJAAV__crt_cached_ptd_host@@QBDQAPADH@Z 1001c637 f i libucrt:output.obj
 0001:0001b662       ??$_tcstol_internal@_WPAPA_W$0A@@@YAJAAV__crt_cached_ptd_host@@QB_WQAPA_WH@Z 1001c662 f i libucrt:output.obj
 0001:0001c5bc       ??$count@D@formatting_buffer@__crt_stdio_output@@QBEIXZ 1001d5bc f i libucrt:output.obj
 0001:0001c5d4       ??$count@_W@formatting_buffer@__crt_stdio_output@@QBEIXZ 1001d5d4 f i libucrt:output.obj
 0001:0001c5ed       ??$data@D@formatting_buffer@__crt_stdio_output@@QAEPADXZ 1001d5ed f i libucrt:output.obj
 0001:0001c5fa       ??$data@_W@formatting_buffer@__crt_stdio_output@@QAEPA_WXZ 1001d5fa f i libucrt:output.obj
 0001:0001c607       ??$ensure_buffer_is_big_enough@D@formatting_buffer@__crt_stdio_output@@QAE_NIAAV__crt_cached_ptd_host@@@Z 1001d607 f i libucrt:output.obj
 0001:0001c688       ??$ensure_buffer_is_big_enough@_W@formatting_buffer@__crt_stdio_output@@QAE_NIAAV__crt_cached_ptd_host@@@Z 1001d688 f i libucrt:output.obj
 0001:0001c70a       ??$extract_argument_from_va_list@C_J@?$positional_parameter_base@DV?$stream_output_adapter@D@__crt_stdio_output@@@__crt_stdio_output@@IAE_NAA_J@Z 1001d70a f i libucrt:output.obj
 0001:0001c799       ??$extract_argument_from_va_list@C_J@?$positional_parameter_base@DV?$string_output_adapter@D@__crt_stdio_output@@@__crt_stdio_output@@IAE_NAA_J@Z 1001d799 f i libucrt:output.obj
 0001:0001c828       ??$extract_argument_from_va_list@C_J@?$positional_parameter_base@_WV?$stream_output_adapter@_W@__crt_stdio_output@@@__crt_stdio_output@@IAE_NAA_J@Z 1001d828 f i libucrt:output.obj
 0001:0001c8b8       ??$extract_argument_from_va_list@C_J@?$positional_parameter_base@_WV?$string_output_adapter@_W@__crt_stdio_output@@@__crt_stdio_output@@IAE_NAA_J@Z 1001d8b8 f i libucrt:output.obj
 0001:0001c948       ??$extract_argument_from_va_list@C_J@?$standard_base@DV?$stream_output_adapter@D@__crt_stdio_output@@@__crt_stdio_output@@IAE_NAA_J@Z 1001d948 f i libucrt:output.obj
 0001:0001c968       ??$extract_argument_from_va_list@C_J@?$standard_base@DV?$string_output_adapter@D@__crt_stdio_output@@@__crt_stdio_output@@IAE_NAA_J@Z 1001d968 f i libucrt:output.obj
 0001:0001c988       ??$extract_argument_from_va_list@C_J@?$standard_base@_WV?$stream_output_adapter@_W@__crt_stdio_output@@@__crt_stdio_output@@IAE_NAA_J@Z 1001d988 f i libucrt:output.obj
 0001:0001c9a8       ??$extract_argument_from_va_list@C_J@?$standard_base@_WV?$string_output_adapter@_W@__crt_stdio_output@@@__crt_stdio_output@@IAE_NAA_J@Z 1001d9a8 f i libucrt:output.obj
 0001:0001c9c8       ??$extract_argument_from_va_list@E_J@?$positional_parameter_base@DV?$stream_output_adapter@D@__crt_stdio_output@@@__crt_stdio_output@@IAE_NAA_J@Z 1001d9c8 f i libucrt:output.obj
 0001:0001ca57       ??$extract_argument_from_va_list@E_J@?$positional_parameter_base@DV?$string_output_adapter@D@__crt_stdio_output@@@__crt_stdio_output@@IAE_NAA_J@Z 1001da57 f i libucrt:output.obj
 0001:0001cae6       ??$extract_argument_from_va_list@E_J@?$positional_parameter_base@_WV?$stream_output_adapter@_W@__crt_stdio_output@@@__crt_stdio_output@@IAE_NAA_J@Z 1001dae6 f i libucrt:output.obj
 0001:0001cb76       ??$extract_argument_from_va_list@E_J@?$positional_parameter_base@_WV?$string_output_adapter@_W@__crt_stdio_output@@@__crt_stdio_output@@IAE_NAA_J@Z 1001db76 f i libucrt:output.obj
 0001:0001cc06       ??$extract_argument_from_va_list@E_J@?$standard_base@DV?$stream_output_adapter@D@__crt_stdio_output@@@__crt_stdio_output@@IAE_NAA_J@Z 1001dc06 f i libucrt:output.obj
 0001:0001cc26       ??$extract_argument_from_va_list@E_J@?$standard_base@DV?$string_output_adapter@D@__crt_stdio_output@@@__crt_stdio_output@@IAE_NAA_J@Z 1001dc26 f i libucrt:output.obj
 0001:0001cc46       ??$extract_argument_from_va_list@E_J@?$standard_base@_WV?$stream_output_adapter@_W@__crt_stdio_output@@@__crt_stdio_output@@IAE_NAA_J@Z 1001dc46 f i libucrt:output.obj
 0001:0001cc66       ??$extract_argument_from_va_list@E_J@?$standard_base@_WV?$string_output_adapter@_W@__crt_stdio_output@@@__crt_stdio_output@@IAE_NAA_J@Z 1001dc66 f i libucrt:output.obj
 0001:0001cc86       ??$extract_argument_from_va_list@F_J@?$positional_parameter_base@DV?$stream_output_adapter@D@__crt_stdio_output@@@__crt_stdio_output@@IAE_NAA_J@Z 1001dc86 f i libucrt:output.obj
 0001:0001cd15       ??$extract_argument_from_va_list@F_J@?$positional_parameter_base@DV?$string_output_adapter@D@__crt_stdio_output@@@__crt_stdio_output@@IAE_NAA_J@Z 1001dd15 f i libucrt:output.obj
 0001:0001cda4       ??$extract_argument_from_va_list@F_J@?$positional_parameter_base@_WV?$stream_output_adapter@_W@__crt_stdio_output@@@__crt_stdio_output@@IAE_NAA_J@Z 1001dda4 f i libucrt:output.obj
 0001:0001ce34       ??$extract_argument_from_va_list@F_J@?$positional_parameter_base@_WV?$string_output_adapter@_W@__crt_stdio_output@@@__crt_stdio_output@@IAE_NAA_J@Z 1001de34 f i libucrt:output.obj
 0001:0001cec4       ??$extract_argument_from_va_list@F_J@?$standard_base@DV?$stream_output_adapter@D@__crt_stdio_output@@@__crt_stdio_output@@IAE_NAA_J@Z 1001dec4 f i libucrt:output.obj
 0001:0001cee4       ??$extract_argument_from_va_list@F_J@?$standard_base@DV?$string_output_adapter@D@__crt_stdio_output@@@__crt_stdio_output@@IAE_NAA_J@Z 1001dee4 f i libucrt:output.obj
 0001:0001cf04       ??$extract_argument_from_va_list@F_J@?$standard_base@_WV?$stream_output_adapter@_W@__crt_stdio_output@@@__crt_stdio_output@@IAE_NAA_J@Z 1001df04 f i libucrt:output.obj
 0001:0001cf24       ??$extract_argument_from_va_list@F_J@?$standard_base@_WV?$string_output_adapter@_W@__crt_stdio_output@@@__crt_stdio_output@@IAE_NAA_J@Z 1001df24 f i libucrt:output.obj
 0001:0001cf44       ??$extract_argument_from_va_list@GD@?$positional_parameter_base@DV?$stream_output_adapter@D@__crt_stdio_output@@@__crt_stdio_output@@IAE_NAAD@Z 1001df44 f i libucrt:output.obj
 0001:0001cfd2       ??$extract_argument_from_va_list@GD@?$positional_parameter_base@DV?$string_output_adapter@D@__crt_stdio_output@@@__crt_stdio_output@@IAE_NAAD@Z 1001dfd2 f i libucrt:output.obj
 0001:0001d060       ??$extract_argument_from_va_list@GD@?$standard_base@DV?$stream_output_adapter@D@__crt_stdio_output@@@__crt_stdio_output@@IAE_NAAD@Z 1001e060 f i libucrt:output.obj
 0001:0001d07b       ??$extract_argument_from_va_list@GD@?$standard_base@DV?$string_output_adapter@D@__crt_stdio_output@@@__crt_stdio_output@@IAE_NAAD@Z 1001e07b f i libucrt:output.obj
 0001:0001d096       ??$extract_argument_from_va_list@G_J@?$positional_parameter_base@DV?$stream_output_adapter@D@__crt_stdio_output@@@__crt_stdio_output@@IAE_NAA_J@Z 1001e096 f i libucrt:output.obj
 0001:0001d125       ??$extract_argument_from_va_list@G_J@?$positional_parameter_base@DV?$string_output_adapter@D@__crt_stdio_output@@@__crt_stdio_output@@IAE_NAA_J@Z 1001e125 f i libucrt:output.obj
 0001:0001d1b4       ??$extract_argument_from_va_list@G_J@?$positional_parameter_base@_WV?$stream_output_adapter@_W@__crt_stdio_output@@@__crt_stdio_output@@IAE_NAA_J@Z 1001e1b4 f i libucrt:output.obj
 0001:0001d244       ??$extract_argument_from_va_list@G_J@?$positional_parameter_base@_WV?$string_output_adapter@_W@__crt_stdio_output@@@__crt_stdio_output@@IAE_NAA_J@Z 1001e244 f i libucrt:output.obj
 0001:0001d2d4       ??$extract_argument_from_va_list@G_J@?$standard_base@DV?$stream_output_adapter@D@__crt_stdio_output@@@__crt_stdio_output@@IAE_NAA_J@Z 1001e2d4 f i libucrt:output.obj
 0001:0001d2f4       ??$extract_argument_from_va_list@G_J@?$standard_base@DV?$string_output_adapter@D@__crt_stdio_output@@@__crt_stdio_output@@IAE_NAA_J@Z 1001e2f4 f i libucrt:output.obj
 0001:0001d314       ??$extract_argument_from_va_list@G_J@?$standard_base@_WV?$stream_output_adapter@_W@__crt_stdio_output@@@__crt_stdio_output@@IAE_NAA_J@Z 1001e314 f i libucrt:output.obj
 0001:0001d334       ??$extract_argument_from_va_list@G_J@?$standard_base@_WV?$string_output_adapter@_W@__crt_stdio_output@@@__crt_stdio_output@@IAE_NAA_J@Z 1001e334 f i libucrt:output.obj
 0001:0001d354       ??$extract_argument_from_va_list@H_J@?$positional_parameter_base@DV?$stream_output_adapter@D@__crt_stdio_output@@@__crt_stdio_output@@IAE_NAA_J@Z 1001e354 f i libucrt:output.obj
 0001:0001d3dd       ??$extract_argument_from_va_list@H_J@?$positional_parameter_base@DV?$string_output_adapter@D@__crt_stdio_output@@@__crt_stdio_output@@IAE_NAA_J@Z 1001e3dd f i libucrt:output.obj
 0001:0001d466       ??$extract_argument_from_va_list@H_J@?$positional_parameter_base@_WV?$stream_output_adapter@_W@__crt_stdio_output@@@__crt_stdio_output@@IAE_NAA_J@Z 1001e466 f i libucrt:output.obj
 0001:0001d4f0       ??$extract_argument_from_va_list@H_J@?$positional_parameter_base@_WV?$string_output_adapter@_W@__crt_stdio_output@@@__crt_stdio_output@@IAE_NAA_J@Z 1001e4f0 f i libucrt:output.obj
 0001:0001d57a       ??$extract_argument_from_va_list@H_J@?$standard_base@DV?$stream_output_adapter@D@__crt_stdio_output@@@__crt_stdio_output@@IAE_NAA_J@Z 1001e57a f i libucrt:output.obj
 0001:0001d599       ??$extract_argument_from_va_list@H_J@?$standard_base@DV?$string_output_adapter@D@__crt_stdio_output@@@__crt_stdio_output@@IAE_NAA_J@Z 1001e599 f i libucrt:output.obj
 0001:0001d5b8       ??$extract_argument_from_va_list@H_J@?$standard_base@_WV?$stream_output_adapter@_W@__crt_stdio_output@@@__crt_stdio_output@@IAE_NAA_J@Z 1001e5b8 f i libucrt:output.obj
 0001:0001d5d7       ??$extract_argument_from_va_list@H_J@?$standard_base@_WV?$string_output_adapter@_W@__crt_stdio_output@@@__crt_stdio_output@@IAE_NAA_J@Z 1001e5d7 f i libucrt:output.obj
 0001:0001d5f6       ??$extract_argument_from_va_list@I_J@?$positional_parameter_base@DV?$stream_output_adapter@D@__crt_stdio_output@@@__crt_stdio_output@@IAE_NAA_J@Z 1001e5f6 f i libucrt:output.obj
 0001:0001d68c       ??$extract_argument_from_va_list@I_J@?$positional_parameter_base@DV?$string_output_adapter@D@__crt_stdio_output@@@__crt_stdio_output@@IAE_NAA_J@Z 1001e68c f i libucrt:output.obj
 0001:0001d722       ??$extract_argument_from_va_list@I_J@?$positional_parameter_base@_WV?$stream_output_adapter@_W@__crt_stdio_output@@@__crt_stdio_output@@IAE_NAA_J@Z 1001e722 f i libucrt:output.obj
 0001:0001d7b9       ??$extract_argument_from_va_list@I_J@?$positional_parameter_base@_WV?$string_output_adapter@_W@__crt_stdio_output@@@__crt_stdio_output@@IAE_NAA_J@Z 1001e7b9 f i libucrt:output.obj
 0001:0001d850       ??$extract_argument_from_va_list@I_J@?$standard_base@DV?$stream_output_adapter@D@__crt_stdio_output@@@__crt_stdio_output@@IAE_NAA_J@Z 1001e850 f i libucrt:output.obj
 0001:0001d86f       ??$extract_argument_from_va_list@I_J@?$standard_base@DV?$string_output_adapter@D@__crt_stdio_output@@@__crt_stdio_output@@IAE_NAA_J@Z 1001e86f f i libucrt:output.obj
 0001:0001d88e       ??$extract_argument_from_va_list@I_J@?$standard_base@_WV?$stream_output_adapter@_W@__crt_stdio_output@@@__crt_stdio_output@@IAE_NAA_J@Z 1001e88e f i libucrt:output.obj
 0001:0001d8ad       ??$extract_argument_from_va_list@I_J@?$standard_base@_WV?$string_output_adapter@_W@__crt_stdio_output@@@__crt_stdio_output@@IAE_NAA_J@Z 1001e8ad f i libucrt:output.obj
 0001:0001d8cc       ??$extract_argument_from_va_list@PADPAD@?$positional_parameter_base@DV?$stream_output_adapter@D@__crt_stdio_output@@@__crt_stdio_output@@IAE_NAAPAD@Z 1001e8cc f i libucrt:output.obj
 0001:0001d95a       ??$extract_argument_from_va_list@PADPAD@?$positional_parameter_base@DV?$string_output_adapter@D@__crt_stdio_output@@@__crt_stdio_output@@IAE_NAAPAD@Z 1001e95a f i libucrt:output.obj
 0001:0001d9e8       ??$extract_argument_from_va_list@PADPAD@?$positional_parameter_base@_WV?$stream_output_adapter@_W@__crt_stdio_output@@@__crt_stdio_output@@IAE_NAAPAD@Z 1001e9e8 f i libucrt:output.obj
 0001:0001da77       ??$extract_argument_from_va_list@PADPAD@?$positional_parameter_base@_WV?$string_output_adapter@_W@__crt_stdio_output@@@__crt_stdio_output@@IAE_NAAPAD@Z 1001ea77 f i libucrt:output.obj
 0001:0001db06       ??$extract_argument_from_va_list@PADPAD@?$standard_base@DV?$stream_output_adapter@D@__crt_stdio_output@@@__crt_stdio_output@@IAE_NAAPAD@Z 1001eb06 f i libucrt:output.obj
 0001:0001db23       ??$extract_argument_from_va_list@PADPAD@?$standard_base@DV?$string_output_adapter@D@__crt_stdio_output@@@__crt_stdio_output@@IAE_NAAPAD@Z 1001eb23 f i libucrt:output.obj
 0001:0001db40       ??$extract_argument_from_va_list@PADPAD@?$standard_base@_WV?$stream_output_adapter@_W@__crt_stdio_output@@@__crt_stdio_output@@IAE_NAAPAD@Z 1001eb40 f i libucrt:output.obj
 0001:0001db5d       ??$extract_argument_from_va_list@PADPAD@?$standard_base@_WV?$string_output_adapter@_W@__crt_stdio_output@@@__crt_stdio_output@@IAE_NAAPAD@Z 1001eb5d f i libucrt:output.obj
 0001:0001db7a       ??$extract_argument_from_va_list@PAUansi_string@?1??type_case_Z@?$output_processor@DV?$stream_output_adapter@D@__crt_stdio_output@@V?$format_validation_base@DV?$stream_output_adapter@D@__crt_stdio_output@@@2@@__crt_stdio_output@@AAE_NXZ@PAU1?1??234@AAE_NXZ@@?$standard_base@DV?$stream_output_adapter@D@__crt_stdio_output@@@__crt_stdio_output@@IAE_NAAPAUansi_string@?1??type_case_Z@?$output_processor@DV?$stream_output_adapter@D@__crt_stdio_output@@V?$format_validation_base@DV?$stream_output_adapter@D@__crt_stdio_output@@@2@@1@AAE_NXZ@@Z 1001eb7a f i libucrt:output.obj
 0001:0001db97       ??$extract_argument_from_va_list@PAUansi_string@?1??type_case_Z@?$output_processor@DV?$stream_output_adapter@D@__crt_stdio_output@@V?$positional_parameter_base@DV?$stream_output_adapter@D@__crt_stdio_output@@@2@@__crt_stdio_output@@AAE_NXZ@PAU1?1??234@AAE_NXZ@@?$positional_parameter_base@DV?$stream_output_adapter@D@__crt_stdio_output@@@__crt_stdio_output@@IAE_NAAPAUansi_string@?1??type_case_Z@?$output_processor@DV?$stream_output_adapter@D@__crt_stdio_output@@V?$positional_parameter_base@DV?$stream_output_adapter@D@__crt_stdio_output@@@2@@1@AAE_NXZ@@Z 1001eb97 f i libucrt:output.obj
 0001:0001dc25       ??$extract_argument_from_va_list@PAUansi_string@?1??type_case_Z@?$output_processor@DV?$stream_output_adapter@D@__crt_stdio_output@@V?$positional_parameter_base@DV?$stream_output_adapter@D@__crt_stdio_output@@@2@@__crt_stdio_output@@AAE_NXZ@PAU1?1??234@AAE_NXZ@@?$standard_base@DV?$stream_output_adapter@D@__crt_stdio_output@@@__crt_stdio_output@@IAE_NAAPAUansi_string@?1??type_case_Z@?$output_processor@DV?$stream_output_adapter@D@__crt_stdio_output@@V?$positional_parameter_base@DV?$stream_output_adapter@D@__crt_stdio_output@@@2@@1@AAE_NXZ@@Z 1001ec25 f i libucrt:output.obj
 0001:0001dc42       ??$extract_argument_from_va_list@PAUansi_string@?1??type_case_Z@?$output_processor@DV?$stream_output_adapter@D@__crt_stdio_output@@V?$standard_base@DV?$stream_output_adapter@D@__crt_stdio_output@@@2@@__crt_stdio_output@@AAE_NXZ@PAU1?1??234@AAE_NXZ@@?$standard_base@DV?$stream_output_adapter@D@__crt_stdio_output@@@__crt_stdio_output@@IAE_NAAPAUansi_string@?1??type_case_Z@?$output_processor@DV?$stream_output_adapter@D@__crt_stdio_output@@V?$standard_base@DV?$stream_output_adapter@D@__crt_stdio_output@@@2@@1@AAE_NXZ@@Z 1001ec42 f i libucrt:output.obj
 0001:0001dc5f       ??$extract_argument_from_va_list@PAUansi_string@?1??type_case_Z@?$output_processor@DV?$string_output_adapter@D@__crt_stdio_output@@V?$format_validation_base@DV?$string_output_adapter@D@__crt_stdio_output@@@2@@__crt_stdio_output@@AAE_NXZ@PAU1?1??234@AAE_NXZ@@?$standard_base@DV?$string_output_adapter@D@__crt_stdio_output@@@__crt_stdio_output@@IAE_NAAPAUansi_string@?1??type_case_Z@?$output_processor@DV?$string_output_adapter@D@__crt_stdio_output@@V?$format_validation_base@DV?$string_output_adapter@D@__crt_stdio_output@@@2@@1@AAE_NXZ@@Z 1001ec5f f i libucrt:output.obj
 0001:0001dc7c       ??$extract_argument_from_va_list@PAUansi_string@?1??type_case_Z@?$output_processor@DV?$string_output_adapter@D@__crt_stdio_output@@V?$positional_parameter_base@DV?$string_output_adapter@D@__crt_stdio_output@@@2@@__crt_stdio_output@@AAE_NXZ@PAU1?1??234@AAE_NXZ@@?$positional_parameter_base@DV?$string_output_adapter@D@__crt_stdio_output@@@__crt_stdio_output@@IAE_NAAPAUansi_string@?1??type_case_Z@?$output_processor@DV?$string_output_adapter@D@__crt_stdio_output@@V?$positional_parameter_base@DV?$string_output_adapter@D@__crt_stdio_output@@@2@@1@AAE_NXZ@@Z 1001ec7c f i libucrt:output.obj
 0001:0001dd0a       ??$extract_argument_from_va_list@PAUansi_string@?1??type_case_Z@?$output_processor@DV?$string_output_adapter@D@__crt_stdio_output@@V?$positional_parameter_base@DV?$string_output_adapter@D@__crt_stdio_output@@@2@@__crt_stdio_output@@AAE_NXZ@PAU1?1??234@AAE_NXZ@@?$standard_base@DV?$string_output_adapter@D@__crt_stdio_output@@@__crt_stdio_output@@IAE_NAAPAUansi_string@?1??type_case_Z@?$output_processor@DV?$string_output_adapter@D@__crt_stdio_output@@V?$positional_parameter_base@DV?$string_output_adapter@D@__crt_stdio_output@@@2@@1@AAE_NXZ@@Z 1001ed0a f i libucrt:output.obj
 0001:0001dd27       ??$extract_argument_from_va_list@PAUansi_string@?1??type_case_Z@?$output_processor@DV?$string_output_adapter@D@__crt_stdio_output@@V?$standard_base@DV?$string_output_adapter@D@__crt_stdio_output@@@2@@__crt_stdio_output@@AAE_NXZ@PAU1?1??234@AAE_NXZ@@?$standard_base@DV?$string_output_adapter@D@__crt_stdio_output@@@__crt_stdio_output@@IAE_NAAPAUansi_string@?1??type_case_Z@?$output_processor@DV?$string_output_adapter@D@__crt_stdio_output@@V?$standard_base@DV?$string_output_adapter@D@__crt_stdio_output@@@2@@1@AAE_NXZ@@Z 1001ed27 f i libucrt:output.obj
 0001:0001dd44       ??$extract_argument_from_va_list@PAUansi_string@?1??type_case_Z@?$output_processor@_WV?$stream_output_adapter@_W@__crt_stdio_output@@V?$format_validation_base@_WV?$stream_output_adapter@_W@__crt_stdio_output@@@2@@__crt_stdio_output@@AAE_NXZ@PAU1?1??234@AAE_NXZ@@?$standard_base@_WV?$stream_output_adapter@_W@__crt_stdio_output@@@__crt_stdio_output@@IAE_NAAPAUansi_string@?1??type_case_Z@?$output_processor@_WV?$stream_output_adapter@_W@__crt_stdio_output@@V?$format_validation_base@_WV?$stream_output_adapter@_W@__crt_stdio_output@@@2@@1@AAE_NXZ@@Z 1001ed44 f i libucrt:output.obj
 0001:0001dd61       ??$extract_argument_from_va_list@PAUansi_string@?1??type_case_Z@?$output_processor@_WV?$stream_output_adapter@_W@__crt_stdio_output@@V?$positional_parameter_base@_WV?$stream_output_adapter@_W@__crt_stdio_output@@@2@@__crt_stdio_output@@AAE_NXZ@PAU1?1??234@AAE_NXZ@@?$positional_parameter_base@_WV?$stream_output_adapter@_W@__crt_stdio_output@@@__crt_stdio_output@@IAE_NAAPAUansi_string@?1??type_case_Z@?$output_processor@_WV?$stream_output_adapter@_W@__crt_stdio_output@@V?$positional_parameter_base@_WV?$stream_output_adapter@_W@__crt_stdio_output@@@2@@1@AAE_NXZ@@Z 1001ed61 f i libucrt:output.obj
 0001:0001ddf0       ??$extract_argument_from_va_list@PAUansi_string@?1??type_case_Z@?$output_processor@_WV?$stream_output_adapter@_W@__crt_stdio_output@@V?$positional_parameter_base@_WV?$stream_output_adapter@_W@__crt_stdio_output@@@2@@__crt_stdio_output@@AAE_NXZ@PAU1?1??234@AAE_NXZ@@?$standard_base@_WV?$stream_output_adapter@_W@__crt_stdio_output@@@__crt_stdio_output@@IAE_NAAPAUansi_string@?1??type_case_Z@?$output_processor@_WV?$stream_output_adapter@_W@__crt_stdio_output@@V?$positional_parameter_base@_WV?$stream_output_adapter@_W@__crt_stdio_output@@@2@@1@AAE_NXZ@@Z 1001edf0 f i libucrt:output.obj
 0001:0001de0d       ??$extract_argument_from_va_list@PAUansi_string@?1??type_case_Z@?$output_processor@_WV?$stream_output_adapter@_W@__crt_stdio_output@@V?$standard_base@_WV?$stream_output_adapter@_W@__crt_stdio_output@@@2@@__crt_stdio_output@@AAE_NXZ@PAU1?1??234@AAE_NXZ@@?$standard_base@_WV?$stream_output_adapter@_W@__crt_stdio_output@@@__crt_stdio_output@@IAE_NAAPAUansi_string@?1??type_case_Z@?$output_processor@_WV?$stream_output_adapter@_W@__crt_stdio_output@@V?$standard_base@_WV?$stream_output_adapter@_W@__crt_stdio_output@@@2@@1@AAE_NXZ@@Z 1001ee0d f i libucrt:output.obj
 0001:0001de2a       ??$extract_argument_from_va_list@PAUansi_string@?1??type_case_Z@?$output_processor@_WV?$string_output_adapter@_W@__crt_stdio_output@@V?$format_validation_base@_WV?$string_output_adapter@_W@__crt_stdio_output@@@2@@__crt_stdio_output@@AAE_NXZ@PAU1?1??234@AAE_NXZ@@?$standard_base@_WV?$string_output_adapter@_W@__crt_stdio_output@@@__crt_stdio_output@@IAE_NAAPAUansi_string@?1??type_case_Z@?$output_processor@_WV?$string_output_adapter@_W@__crt_stdio_output@@V?$format_validation_base@_WV?$string_output_adapter@_W@__crt_stdio_output@@@2@@1@AAE_NXZ@@Z 1001ee2a f i libucrt:output.obj
 0001:0001de47       ??$extract_argument_from_va_list@PAUansi_string@?1??type_case_Z@?$output_processor@_WV?$string_output_adapter@_W@__crt_stdio_output@@V?$positional_parameter_base@_WV?$string_output_adapter@_W@__crt_stdio_output@@@2@@__crt_stdio_output@@AAE_NXZ@PAU1?1??234@AAE_NXZ@@?$positional_parameter_base@_WV?$string_output_adapter@_W@__crt_stdio_output@@@__crt_stdio_output@@IAE_NAAPAUansi_string@?1??type_case_Z@?$output_processor@_WV?$string_output_adapter@_W@__crt_stdio_output@@V?$positional_parameter_base@_WV?$string_output_adapter@_W@__crt_stdio_output@@@2@@1@AAE_NXZ@@Z 1001ee47 f i libucrt:output.obj
 0001:0001ded6       ??$extract_argument_from_va_list@PAUansi_string@?1??type_case_Z@?$output_processor@_WV?$string_output_adapter@_W@__crt_stdio_output@@V?$positional_parameter_base@_WV?$string_output_adapter@_W@__crt_stdio_output@@@2@@__crt_stdio_output@@AAE_NXZ@PAU1?1??234@AAE_NXZ@@?$standard_base@_WV?$string_output_adapter@_W@__crt_stdio_output@@@__crt_stdio_output@@IAE_NAAPAUansi_string@?1??type_case_Z@?$output_processor@_WV?$string_output_adapter@_W@__crt_stdio_output@@V?$positional_parameter_base@_WV?$string_output_adapter@_W@__crt_stdio_output@@@2@@1@AAE_NXZ@@Z 1001eed6 f i libucrt:output.obj
 0001:0001def3       ??$extract_argument_from_va_list@PAUansi_string@?1??type_case_Z@?$output_processor@_WV?$string_output_adapter@_W@__crt_stdio_output@@V?$standard_base@_WV?$string_output_adapter@_W@__crt_stdio_output@@@2@@__crt_stdio_output@@AAE_NXZ@PAU1?1??234@AAE_NXZ@@?$standard_base@_WV?$string_output_adapter@_W@__crt_stdio_output@@@__crt_stdio_output@@IAE_NAAPAUansi_string@?1??type_case_Z@?$output_processor@_WV?$string_output_adapter@_W@__crt_stdio_output@@V?$standard_base@_WV?$string_output_adapter@_W@__crt_stdio_output@@@2@@1@AAE_NXZ@@Z 1001eef3 f i libucrt:output.obj
 0001:0001df10       ??$extract_argument_from_va_list@PAXPAX@?$positional_parameter_base@DV?$stream_output_adapter@D@__crt_stdio_output@@@__crt_stdio_output@@IAE_NAAPAX@Z 1001ef10 f i libucrt:output.obj
 0001:0001df9e       ??$extract_argument_from_va_list@PAXPAX@?$positional_parameter_base@DV?$string_output_adapter@D@__crt_stdio_output@@@__crt_stdio_output@@IAE_NAAPAX@Z 1001ef9e f i libucrt:output.obj
 0001:0001e02c       ??$extract_argument_from_va_list@PAXPAX@?$positional_parameter_base@_WV?$stream_output_adapter@_W@__crt_stdio_output@@@__crt_stdio_output@@IAE_NAAPAX@Z 1001f02c f i libucrt:output.obj
 0001:0001e0bb       ??$extract_argument_from_va_list@PAXPAX@?$positional_parameter_base@_WV?$string_output_adapter@_W@__crt_stdio_output@@@__crt_stdio_output@@IAE_NAAPAX@Z 1001f0bb f i libucrt:output.obj
 0001:0001e14a       ??$extract_argument_from_va_list@PAXPAX@?$standard_base@DV?$stream_output_adapter@D@__crt_stdio_output@@@__crt_stdio_output@@IAE_NAAPAX@Z 1001f14a f i libucrt:output.obj
 0001:0001e167       ??$extract_argument_from_va_list@PAXPAX@?$standard_base@DV?$string_output_adapter@D@__crt_stdio_output@@@__crt_stdio_output@@IAE_NAAPAX@Z 1001f167 f i libucrt:output.obj
 0001:0001e184       ??$extract_argument_from_va_list@PAXPAX@?$standard_base@_WV?$stream_output_adapter@_W@__crt_stdio_output@@@__crt_stdio_output@@IAE_NAAPAX@Z 1001f184 f i libucrt:output.obj
 0001:0001e1a1       ??$extract_argument_from_va_list@PAXPAX@?$standard_base@_WV?$string_output_adapter@_W@__crt_stdio_output@@@__crt_stdio_output@@IAE_NAAPAX@Z 1001f1a1 f i libucrt:output.obj
 0001:0001e1be       ??$extract_argument_from_va_list@U_CRT_DOUBLE@@U1@@?$positional_parameter_base@DV?$stream_output_adapter@D@__crt_stdio_output@@@__crt_stdio_output@@IAE_NAAU_CRT_DOUBLE@@@Z 1001f1be f i libucrt:output.obj
 0001:0001e254       ??$extract_argument_from_va_list@U_CRT_DOUBLE@@U1@@?$positional_parameter_base@DV?$string_output_adapter@D@__crt_stdio_output@@@__crt_stdio_output@@IAE_NAAU_CRT_DOUBLE@@@Z 1001f254 f i libucrt:output.obj
 0001:0001e2ea       ??$extract_argument_from_va_list@U_CRT_DOUBLE@@U1@@?$positional_parameter_base@_WV?$stream_output_adapter@_W@__crt_stdio_output@@@__crt_stdio_output@@IAE_NAAU_CRT_DOUBLE@@@Z 1001f2ea f i libucrt:output.obj
 0001:0001e381       ??$extract_argument_from_va_list@U_CRT_DOUBLE@@U1@@?$positional_parameter_base@_WV?$string_output_adapter@_W@__crt_stdio_output@@@__crt_stdio_output@@IAE_NAAU_CRT_DOUBLE@@@Z 1001f381 f i libucrt:output.obj
 0001:0001e418       ??$extract_argument_from_va_list@U_CRT_DOUBLE@@U1@@?$standard_base@DV?$stream_output_adapter@D@__crt_stdio_output@@@__crt_stdio_output@@IAE_NAAU_CRT_DOUBLE@@@Z 1001f418 f i libucrt:output.obj
 0001:0001e439       ??$extract_argument_from_va_list@U_CRT_DOUBLE@@U1@@?$standard_base@DV?$string_output_adapter@D@__crt_stdio_output@@@__crt_stdio_output@@IAE_NAAU_CRT_DOUBLE@@@Z 1001f439 f i libucrt:output.obj
 0001:0001e45a       ??$extract_argument_from_va_list@U_CRT_DOUBLE@@U1@@?$standard_base@_WV?$stream_output_adapter@_W@__crt_stdio_output@@@__crt_stdio_output@@IAE_NAAU_CRT_DOUBLE@@@Z 1001f45a f i libucrt:output.obj
 0001:0001e47b       ??$extract_argument_from_va_list@U_CRT_DOUBLE@@U1@@?$standard_base@_WV?$string_output_adapter@_W@__crt_stdio_output@@@__crt_stdio_output@@IAE_NAAU_CRT_DOUBLE@@@Z 1001f47b f i libucrt:output.obj
 0001:0001e49c       ??$extract_argument_from_va_list@_J_J@?$positional_parameter_base@DV?$stream_output_adapter@D@__crt_stdio_output@@@__crt_stdio_output@@IAE_NAA_J@Z 1001f49c f i libucrt:output.obj
 0001:0001e536       ??$extract_argument_from_va_list@_J_J@?$positional_parameter_base@DV?$string_output_adapter@D@__crt_stdio_output@@@__crt_stdio_output@@IAE_NAA_J@Z 1001f536 f i libucrt:output.obj
 0001:0001e5d0       ??$extract_argument_from_va_list@_J_J@?$positional_parameter_base@_WV?$stream_output_adapter@_W@__crt_stdio_output@@@__crt_stdio_output@@IAE_NAA_J@Z 1001f5d0 f i libucrt:output.obj
 0001:0001e66b       ??$extract_argument_from_va_list@_J_J@?$positional_parameter_base@_WV?$string_output_adapter@_W@__crt_stdio_output@@@__crt_stdio_output@@IAE_NAA_J@Z 1001f66b f i libucrt:output.obj
 0001:0001e706       ??$extract_argument_from_va_list@_J_J@?$standard_base@DV?$stream_output_adapter@D@__crt_stdio_output@@@__crt_stdio_output@@IAE_NAA_J@Z 1001f706 f i libucrt:output.obj
 0001:0001e727       ??$extract_argument_from_va_list@_J_J@?$standard_base@DV?$string_output_adapter@D@__crt_stdio_output@@@__crt_stdio_output@@IAE_NAA_J@Z 1001f727 f i libucrt:output.obj
 0001:0001e748       ??$extract_argument_from_va_list@_J_J@?$standard_base@_WV?$stream_output_adapter@_W@__crt_stdio_output@@@__crt_stdio_output@@IAE_NAA_J@Z 1001f748 f i libucrt:output.obj
 0001:0001e769       ??$extract_argument_from_va_list@_J_J@?$standard_base@_WV?$string_output_adapter@_W@__crt_stdio_output@@@__crt_stdio_output@@IAE_NAA_J@Z 1001f769 f i libucrt:output.obj
 0001:0001e78a       ??$extract_argument_from_va_list@_K_J@?$positional_parameter_base@DV?$stream_output_adapter@D@__crt_stdio_output@@@__crt_stdio_output@@IAE_NAA_J@Z 1001f78a f i libucrt:output.obj
 0001:0001e824       ??$extract_argument_from_va_list@_K_J@?$positional_parameter_base@DV?$string_output_adapter@D@__crt_stdio_output@@@__crt_stdio_output@@IAE_NAA_J@Z 1001f824 f i libucrt:output.obj
 0001:0001e8be       ??$extract_argument_from_va_list@_K_J@?$positional_parameter_base@_WV?$stream_output_adapter@_W@__crt_stdio_output@@@__crt_stdio_output@@IAE_NAA_J@Z 1001f8be f i libucrt:output.obj
 0001:0001e959       ??$extract_argument_from_va_list@_K_J@?$positional_parameter_base@_WV?$string_output_adapter@_W@__crt_stdio_output@@@__crt_stdio_output@@IAE_NAA_J@Z 1001f959 f i libucrt:output.obj
 0001:0001e9f4       ??$extract_argument_from_va_list@_K_J@?$standard_base@DV?$stream_output_adapter@D@__crt_stdio_output@@@__crt_stdio_output@@IAE_NAA_J@Z 1001f9f4 f i libucrt:output.obj
 0001:0001ea15       ??$extract_argument_from_va_list@_K_J@?$standard_base@DV?$string_output_adapter@D@__crt_stdio_output@@@__crt_stdio_output@@IAE_NAA_J@Z 1001fa15 f i libucrt:output.obj
 0001:0001ea36       ??$extract_argument_from_va_list@_K_J@?$standard_base@_WV?$stream_output_adapter@_W@__crt_stdio_output@@@__crt_stdio_output@@IAE_NAA_J@Z 1001fa36 f i libucrt:output.obj
 0001:0001ea57       ??$extract_argument_from_va_list@_K_J@?$standard_base@_WV?$string_output_adapter@_W@__crt_stdio_output@@@__crt_stdio_output@@IAE_NAA_J@Z 1001fa57 f i libucrt:output.obj
 0001:0001ea78       ??$extract_argument_from_va_list@_W_W@?$positional_parameter_base@DV?$stream_output_adapter@D@__crt_stdio_output@@@__crt_stdio_output@@IAE_NAA_W@Z 1001fa78 f i libucrt:output.obj
 0001:0001eb0a       ??$extract_argument_from_va_list@_W_W@?$positional_parameter_base@DV?$string_output_adapter@D@__crt_stdio_output@@@__crt_stdio_output@@IAE_NAA_W@Z 1001fb0a f i libucrt:output.obj
 0001:0001eb9c       ??$extract_argument_from_va_list@_W_W@?$positional_parameter_base@_WV?$stream_output_adapter@_W@__crt_stdio_output@@@__crt_stdio_output@@IAE_NAA_W@Z 1001fb9c f i libucrt:output.obj
 0001:0001ec2f       ??$extract_argument_from_va_list@_W_W@?$positional_parameter_base@_WV?$string_output_adapter@_W@__crt_stdio_output@@@__crt_stdio_output@@IAE_NAA_W@Z 1001fc2f f i libucrt:output.obj
 0001:0001ecc2       ??$extract_argument_from_va_list@_W_W@?$standard_base@DV?$stream_output_adapter@D@__crt_stdio_output@@@__crt_stdio_output@@IAE_NAA_W@Z 1001fcc2 f i libucrt:output.obj
 0001:0001ecdf       ??$extract_argument_from_va_list@_W_W@?$standard_base@DV?$string_output_adapter@D@__crt_stdio_output@@@__crt_stdio_output@@IAE_NAA_W@Z 1001fcdf f i libucrt:output.obj
 0001:0001ecfc       ??$extract_argument_from_va_list@_W_W@?$standard_base@_WV?$stream_output_adapter@_W@__crt_stdio_output@@@__crt_stdio_output@@IAE_NAA_W@Z 1001fcfc f i libucrt:output.obj
 0001:0001ed19       ??$extract_argument_from_va_list@_W_W@?$standard_base@_WV?$string_output_adapter@_W@__crt_stdio_output@@@__crt_stdio_output@@IAE_NAA_W@Z 1001fd19 f i libucrt:output.obj
 0001:0001ed36       ??$get_parameter_type@D@?$positional_parameter_base@DV?$stream_output_adapter@D@__crt_stdio_output@@@__crt_stdio_output@@CA?AW4parameter_type@01@PAD@Z 1001fd36 f i libucrt:output.obj
 0001:0001ed3a       ??$get_parameter_type@D@?$positional_parameter_base@DV?$string_output_adapter@D@__crt_stdio_output@@@__crt_stdio_output@@CA?AW4parameter_type@01@PAD@Z 1001fd3a f i libucrt:output.obj
 0001:0001ed3e       ??$get_parameter_type@D@?$positional_parameter_base@_WV?$stream_output_adapter@_W@__crt_stdio_output@@@__crt_stdio_output@@CA?AW4parameter_type@01@PAD@Z 1001fd3e f i libucrt:output.obj
 0001:0001ed42       ??$get_parameter_type@D@?$positional_parameter_base@_WV?$string_output_adapter@_W@__crt_stdio_output@@@__crt_stdio_output@@CA?AW4parameter_type@01@PAD@Z 1001fd42 f i libucrt:output.obj
 0001:0001ed46       ??$get_parameter_type@Uansi_string@?1??type_case_Z@?$output_processor@DV?$stream_output_adapter@D@__crt_stdio_output@@V?$positional_parameter_base@DV?$stream_output_adapter@D@__crt_stdio_output@@@2@@__crt_stdio_output@@AAE_NXZ@@?$positional_parameter_base@DV?$stream_output_adapter@D@__crt_stdio_output@@@__crt_stdio_output@@CA?AW4parameter_type@01@PAUansi_string@?1??type_case_Z@?$output_processor@DV?$stream_output_adapter@D@__crt_stdio_output@@V?$positional_parameter_base@DV?$stream_output_adapter@D@__crt_stdio_output@@@2@@1@AAE_NXZ@@Z 1001fd46 f i libucrt:output.obj
 0001:0001ed4a       ??$get_parameter_type@Uansi_string@?1??type_case_Z@?$output_processor@DV?$string_output_adapter@D@__crt_stdio_output@@V?$positional_parameter_base@DV?$string_output_adapter@D@__crt_stdio_output@@@2@@__crt_stdio_output@@AAE_NXZ@@?$positional_parameter_base@DV?$string_output_adapter@D@__crt_stdio_output@@@__crt_stdio_output@@CA?AW4parameter_type@01@PAUansi_string@?1??type_case_Z@?$output_processor@DV?$string_output_adapter@D@__crt_stdio_output@@V?$positional_parameter_base@DV?$string_output_adapter@D@__crt_stdio_output@@@2@@1@AAE_NXZ@@Z 1001fd4a f i libucrt:output.obj
 0001:0001ed4e       ??$get_parameter_type@Uansi_string@?1??type_case_Z@?$output_processor@_WV?$stream_output_adapter@_W@__crt_stdio_output@@V?$positional_parameter_base@_WV?$stream_output_adapter@_W@__crt_stdio_output@@@2@@__crt_stdio_output@@AAE_NXZ@@?$positional_parameter_base@_WV?$stream_output_adapter@_W@__crt_stdio_output@@@__crt_stdio_output@@CA?AW4parameter_type@01@PAUansi_string@?1??type_case_Z@?$output_processor@_WV?$stream_output_adapter@_W@__crt_stdio_output@@V?$positional_parameter_base@_WV?$stream_output_adapter@_W@__crt_stdio_output@@@2@@1@AAE_NXZ@@Z 1001fd4e f i libucrt:output.obj
 0001:0001ed52       ??$get_parameter_type@Uansi_string@?1??type_case_Z@?$output_processor@_WV?$string_output_adapter@_W@__crt_stdio_output@@V?$positional_parameter_base@_WV?$string_output_adapter@_W@__crt_stdio_output@@@2@@__crt_stdio_output@@AAE_NXZ@@?$positional_parameter_base@_WV?$string_output_adapter@_W@__crt_stdio_output@@@__crt_stdio_output@@CA?AW4parameter_type@01@PAUansi_string@?1??type_case_Z@?$output_processor@_WV?$string_output_adapter@_W@__crt_stdio_output@@V?$positional_parameter_base@_WV?$string_output_adapter@_W@__crt_stdio_output@@@2@@1@AAE_NXZ@@Z 1001fd52 f i libucrt:output.obj
 0001:0001ed56       ??$get_parameter_type@X@?$positional_parameter_base@DV?$stream_output_adapter@D@__crt_stdio_output@@@__crt_stdio_output@@CA?AW4parameter_type@01@PAX@Z 1001fd56 f i libucrt:output.obj
 0001:0001ed5a       ??$get_parameter_type@X@?$positional_parameter_base@DV?$string_output_adapter@D@__crt_stdio_output@@@__crt_stdio_output@@CA?AW4parameter_type@01@PAX@Z 1001fd5a f i libucrt:output.obj
 0001:0001ed5e       ??$get_parameter_type@X@?$positional_parameter_base@_WV?$stream_output_adapter@_W@__crt_stdio_output@@@__crt_stdio_output@@CA?AW4parameter_type@01@PAX@Z 1001fd5e f i libucrt:output.obj
 0001:0001ed62       ??$get_parameter_type@X@?$positional_parameter_base@_WV?$string_output_adapter@_W@__crt_stdio_output@@@__crt_stdio_output@@CA?AW4parameter_type@01@PAX@Z 1001fd62 f i libucrt:output.obj
 0001:0001ed66       ??$is_character_specifier@D@?$positional_parameter_base@DV?$stream_output_adapter@D@__crt_stdio_output@@@__crt_stdio_output@@CA_ND@Z 1001fd66 f i libucrt:output.obj
 0001:0001ed7e       ??$is_character_specifier@D@?$positional_parameter_base@DV?$string_output_adapter@D@__crt_stdio_output@@@__crt_stdio_output@@CA_ND@Z 1001fd7e f i libucrt:output.obj
 0001:0001ed96       ??$is_character_specifier@_W@?$positional_parameter_base@_WV?$stream_output_adapter@_W@__crt_stdio_output@@@__crt_stdio_output@@CA_N_W@Z 1001fd96 f i libucrt:output.obj
 0001:0001edb1       ??$is_character_specifier@_W@?$positional_parameter_base@_WV?$string_output_adapter@_W@__crt_stdio_output@@@__crt_stdio_output@@CA_N_W@Z 1001fdb1 f i libucrt:output.obj
 0001:0001edcc       ??$is_integral_specifier@D@?$positional_parameter_base@DV?$stream_output_adapter@D@__crt_stdio_output@@@__crt_stdio_output@@CA_ND@Z 1001fdcc f i libucrt:output.obj
 0001:0001edf8       ??$is_integral_specifier@D@?$positional_parameter_base@DV?$string_output_adapter@D@__crt_stdio_output@@@__crt_stdio_output@@CA_ND@Z 1001fdf8 f i libucrt:output.obj
 0001:0001ee24       ??$is_integral_specifier@_W@?$positional_parameter_base@_WV?$stream_output_adapter@_W@__crt_stdio_output@@@__crt_stdio_output@@CA_N_W@Z 1001fe24 f i libucrt:output.obj
 0001:0001ee5f       ??$is_integral_specifier@_W@?$positional_parameter_base@_WV?$string_output_adapter@_W@__crt_stdio_output@@@__crt_stdio_output@@CA_N_W@Z 1001fe5f f i libucrt:output.obj
 0001:0001ee9a       ??$is_overflow_condition@K@__crt_strtox@@YA_NIK@Z 1001fe9a f i libucrt:output.obj
 0001:0001eece       ??$is_pointer_specifier@D@?$positional_parameter_base@DV?$stream_output_adapter@D@__crt_stdio_output@@@__crt_stdio_output@@CA_ND@Z 1001fece f i libucrt:output.obj
 0001:0001eedc       ??$is_pointer_specifier@D@?$positional_parameter_base@DV?$string_output_adapter@D@__crt_stdio_output@@@__crt_stdio_output@@CA_ND@Z 1001fedc f i libucrt:output.obj
 0001:0001eeea       ??$is_pointer_specifier@_W@?$positional_parameter_base@_WV?$stream_output_adapter@_W@__crt_stdio_output@@@__crt_stdio_output@@CA_N_W@Z 1001feea f i libucrt:output.obj
 0001:0001eef9       ??$is_pointer_specifier@_W@?$positional_parameter_base@_WV?$string_output_adapter@_W@__crt_stdio_output@@@__crt_stdio_output@@CA_N_W@Z 1001fef9 f i libucrt:output.obj
 0001:0001ef08       ??$is_string_specifier@D@?$positional_parameter_base@DV?$stream_output_adapter@D@__crt_stdio_output@@@__crt_stdio_output@@CA_ND@Z 1001ff08 f i libucrt:output.obj
 0001:0001ef20       ??$is_string_specifier@D@?$positional_parameter_base@DV?$string_output_adapter@D@__crt_stdio_output@@@__crt_stdio_output@@CA_ND@Z 1001ff20 f i libucrt:output.obj
 0001:0001ef38       ??$is_string_specifier@_W@?$positional_parameter_base@_WV?$stream_output_adapter@_W@__crt_stdio_output@@@__crt_stdio_output@@CA_N_W@Z 1001ff38 f i libucrt:output.obj
 0001:0001ef53       ??$is_string_specifier@_W@?$positional_parameter_base@_WV?$string_output_adapter@_W@__crt_stdio_output@@@__crt_stdio_output@@CA_N_W@Z 1001ff53 f i libucrt:output.obj
 0001:0001ef6e       ??$is_wide_character_specifier@D@__crt_stdio_output@@YA_N_KDW4length_modifier@0@@Z 1001ff6e f i libucrt:output.obj
 0001:0001ef9f       ??$is_wide_character_specifier@_W@__crt_stdio_output@@YA_N_K_WW4length_modifier@0@@Z 1001ff9f f i libucrt:output.obj
 0001:0001efed       ??$make_c_string_character_source@DPAPAD@__crt_strtox@@YA?AV?$c_string_character_source@D@0@QBDQAPAD@Z 1001ffed f i libucrt:output.obj
 0001:0001f008       ??$make_c_string_character_source@_WPAPA_W@__crt_strtox@@YA?AV?$c_string_character_source@_W@0@QB_WQAPA_W@Z 10020008 f i libucrt:output.obj
 0001:0001f023       ??$parse_integer@KV?$c_string_character_source@D@__crt_strtox@@$0A@@__crt_strtox@@YAKAAV__crt_cached_ptd_host@@V?$c_string_character_source@D@0@H_N@Z 10020023 f i libucrt:output.obj
 0001:0001f232       ??$parse_integer@KV?$c_string_character_source@_W@__crt_strtox@@$0A@@__crt_strtox@@YAKAAV__crt_cached_ptd_host@@V?$c_string_character_source@_W@0@H_N@Z 10020232 f i libucrt:output.obj
 0001:0001f805       ??$peek_va_arg@C@__crt_stdio_output@@YACPAD@Z 10020805 f i libucrt:output.obj
 0001:0001f811       ??$peek_va_arg@E@__crt_stdio_output@@YAEPAD@Z 10020811 f i libucrt:output.obj
 0001:0001f81d       ??$peek_va_arg@F@__crt_stdio_output@@YAFPAD@Z 1002081d f i libucrt:output.obj
 0001:0001f82a       ??$peek_va_arg@G@__crt_stdio_output@@YAGPAD@Z 1002082a f i libucrt:output.obj
 0001:0001f837       ??$peek_va_arg@H@__crt_stdio_output@@YAHPAD@Z 10020837 f i libucrt:output.obj
 0001:0001f843       ??$peek_va_arg@I@__crt_stdio_output@@YAIPAD@Z 10020843 f i libucrt:output.obj
 0001:0001f84f       ??$peek_va_arg@PAD@__crt_stdio_output@@YAPADPAD@Z 1002084f f i libucrt:output.obj
 0001:0001f85b       ??$peek_va_arg@PAUansi_string@?1??type_case_Z@?$output_processor@DV?$stream_output_adapter@D@__crt_stdio_output@@V?$positional_parameter_base@DV?$stream_output_adapter@D@__crt_stdio_output@@@2@@__crt_stdio_output@@AAE_NXZ@@__crt_stdio_output@@YAPAUansi_string@?1??type_case_Z@?$output_processor@DV?$stream_output_adapter@D@__crt_stdio_output@@V?$positional_parameter_base@DV?$stream_output_adapter@D@__crt_stdio_output@@@2@@0@AAE_NXZ@PAD@Z 1002085b f i libucrt:output.obj
 0001:0001f867       ??$peek_va_arg@PAUansi_string@?1??type_case_Z@?$output_processor@DV?$string_output_adapter@D@__crt_stdio_output@@V?$positional_parameter_base@DV?$string_output_adapter@D@__crt_stdio_output@@@2@@__crt_stdio_output@@AAE_NXZ@@__crt_stdio_output@@YAPAUansi_string@?1??type_case_Z@?$output_processor@DV?$string_output_adapter@D@__crt_stdio_output@@V?$positional_parameter_base@DV?$string_output_adapter@D@__crt_stdio_output@@@2@@0@AAE_NXZ@PAD@Z 10020867 f i libucrt:output.obj
 0001:0001f873       ??$peek_va_arg@PAUansi_string@?1??type_case_Z@?$output_processor@_WV?$stream_output_adapter@_W@__crt_stdio_output@@V?$positional_parameter_base@_WV?$stream_output_adapter@_W@__crt_stdio_output@@@2@@__crt_stdio_output@@AAE_NXZ@@__crt_stdio_output@@YAPAUansi_string@?1??type_case_Z@?$output_processor@_WV?$stream_output_adapter@_W@__crt_stdio_output@@V?$positional_parameter_base@_WV?$stream_output_adapter@_W@__crt_stdio_output@@@2@@0@AAE_NXZ@PAD@Z 10020873 f i libucrt:output.obj
 0001:0001f87f       ??$peek_va_arg@PAUansi_string@?1??type_case_Z@?$output_processor@_WV?$string_output_adapter@_W@__crt_stdio_output@@V?$positional_parameter_base@_WV?$string_output_adapter@_W@__crt_stdio_output@@@2@@__crt_stdio_output@@AAE_NXZ@@__crt_stdio_output@@YAPAUansi_string@?1??type_case_Z@?$output_processor@_WV?$string_output_adapter@_W@__crt_stdio_output@@V?$positional_parameter_base@_WV?$string_output_adapter@_W@__crt_stdio_output@@@2@@0@AAE_NXZ@PAD@Z 1002087f f i libucrt:output.obj
 0001:0001f88b       ??$peek_va_arg@PAX@__crt_stdio_output@@YAPAXPAD@Z 1002088b f i libucrt:output.obj
 0001:0001f897       ??$peek_va_arg@U_CRT_DOUBLE@@@__crt_stdio_output@@YA?AU_CRT_DOUBLE@@PAD@Z 10020897 f i libucrt:output.obj
 0001:0001f8a6       ??$peek_va_arg@_J@__crt_stdio_output@@YA_JPAD@Z 100208a6 f i libucrt:output.obj
 0001:0001f8b5       ??$peek_va_arg@_K@__crt_stdio_output@@YA_KPAD@Z 100208b5 f i libucrt:output.obj
 0001:0001f8c4       ??$peek_va_arg@_W@__crt_stdio_output@@YA_WPAD@Z 100208c4 f i libucrt:output.obj
 0001:0001f8d1       ??$puttc_nolock_internal@ABDPAU_iobuf@@AAV__crt_cached_ptd_host@@@?$__crt_char_traits@D@@SAHABD$$QAPAU_iobuf@@AAV__crt_cached_ptd_host@@@Z 100208d1 f i libucrt:output.obj
 0001:0001f8ef       ??$puttc_nolock_internal@AB_WPAU_iobuf@@AAV__crt_cached_ptd_host@@@?$__crt_char_traits@_W@@SAGAB_W$$QAPAU_iobuf@@AAV__crt_cached_ptd_host@@@Z 100208ef f i libucrt:output.obj
 0001:0001f90d       ??$read_va_arg@C@__crt_stdio_output@@YACAAPAD@Z 1002090d f i libucrt:output.obj
 0001:0001f920       ??$read_va_arg@E@__crt_stdio_output@@YAEAAPAD@Z 10020920 f i libucrt:output.obj
 0001:0001f933       ??$read_va_arg@F@__crt_stdio_output@@YAFAAPAD@Z 10020933 f i libucrt:output.obj
 0001:0001f947       ??$read_va_arg@G@__crt_stdio_output@@YAGAAPAD@Z 10020947 f i libucrt:output.obj
 0001:0001f95b       ??$read_va_arg@H@__crt_stdio_output@@YAHAAPAD@Z 1002095b f i libucrt:output.obj
 0001:0001f96e       ??$read_va_arg@I@__crt_stdio_output@@YAIAAPAD@Z 1002096e f i libucrt:output.obj
 0001:0001f981       ??$read_va_arg@PAD@__crt_stdio_output@@YAPADAAPAD@Z 10020981 f i libucrt:output.obj
 0001:0001f994       ??$read_va_arg@PAUansi_string@?1??type_case_Z@?$output_processor@DV?$stream_output_adapter@D@__crt_stdio_output@@V?$format_validation_base@DV?$stream_output_adapter@D@__crt_stdio_output@@@2@@__crt_stdio_output@@AAE_NXZ@@__crt_stdio_output@@YAPAUansi_string@?1??type_case_Z@?$output_processor@DV?$stream_output_adapter@D@__crt_stdio_output@@V?$format_validation_base@DV?$stream_output_adapter@D@__crt_stdio_output@@@2@@0@AAE_NXZ@AAPAD@Z 10020994 f i libucrt:output.obj
 0001:0001f9a7       ??$read_va_arg@PAUansi_string@?1??type_case_Z@?$output_processor@DV?$stream_output_adapter@D@__crt_stdio_output@@V?$positional_parameter_base@DV?$stream_output_adapter@D@__crt_stdio_output@@@2@@__crt_stdio_output@@AAE_NXZ@@__crt_stdio_output@@YAPAUansi_string@?1??type_case_Z@?$output_processor@DV?$stream_output_adapter@D@__crt_stdio_output@@V?$positional_parameter_base@DV?$stream_output_adapter@D@__crt_stdio_output@@@2@@0@AAE_NXZ@AAPAD@Z 100209a7 f i libucrt:output.obj
 0001:0001f9ba       ??$read_va_arg@PAUansi_string@?1??type_case_Z@?$output_processor@DV?$stream_output_adapter@D@__crt_stdio_output@@V?$standard_base@DV?$stream_output_adapter@D@__crt_stdio_output@@@2@@__crt_stdio_output@@AAE_NXZ@@__crt_stdio_output@@YAPAUansi_string@?1??type_case_Z@?$output_processor@DV?$stream_output_adapter@D@__crt_stdio_output@@V?$standard_base@DV?$stream_output_adapter@D@__crt_stdio_output@@@2@@0@AAE_NXZ@AAPAD@Z 100209ba f i libucrt:output.obj
 0001:0001f9cd       ??$read_va_arg@PAUansi_string@?1??type_case_Z@?$output_processor@DV?$string_output_adapter@D@__crt_stdio_output@@V?$format_validation_base@DV?$string_output_adapter@D@__crt_stdio_output@@@2@@__crt_stdio_output@@AAE_NXZ@@__crt_stdio_output@@YAPAUansi_string@?1??type_case_Z@?$output_processor@DV?$string_output_adapter@D@__crt_stdio_output@@V?$format_validation_base@DV?$string_output_adapter@D@__crt_stdio_output@@@2@@0@AAE_NXZ@AAPAD@Z 100209cd f i libucrt:output.obj
 0001:0001f9e0       ??$read_va_arg@PAUansi_string@?1??type_case_Z@?$output_processor@DV?$string_output_adapter@D@__crt_stdio_output@@V?$positional_parameter_base@DV?$string_output_adapter@D@__crt_stdio_output@@@2@@__crt_stdio_output@@AAE_NXZ@@__crt_stdio_output@@YAPAUansi_string@?1??type_case_Z@?$output_processor@DV?$string_output_adapter@D@__crt_stdio_output@@V?$positional_parameter_base@DV?$string_output_adapter@D@__crt_stdio_output@@@2@@0@AAE_NXZ@AAPAD@Z 100209e0 f i libucrt:output.obj
 0001:0001f9f3       ??$read_va_arg@PAUansi_string@?1??type_case_Z@?$output_processor@DV?$string_output_adapter@D@__crt_stdio_output@@V?$standard_base@DV?$string_output_adapter@D@__crt_stdio_output@@@2@@__crt_stdio_output@@AAE_NXZ@@__crt_stdio_output@@YAPAUansi_string@?1??type_case_Z@?$output_processor@DV?$string_output_adapter@D@__crt_stdio_output@@V?$standard_base@DV?$string_output_adapter@D@__crt_stdio_output@@@2@@0@AAE_NXZ@AAPAD@Z 100209f3 f i libucrt:output.obj
 0001:0001fa06       ??$read_va_arg@PAUansi_string@?1??type_case_Z@?$output_processor@_WV?$stream_output_adapter@_W@__crt_stdio_output@@V?$format_validation_base@_WV?$stream_output_adapter@_W@__crt_stdio_output@@@2@@__crt_stdio_output@@AAE_NXZ@@__crt_stdio_output@@YAPAUansi_string@?1??type_case_Z@?$output_processor@_WV?$stream_output_adapter@_W@__crt_stdio_output@@V?$format_validation_base@_WV?$stream_output_adapter@_W@__crt_stdio_output@@@2@@0@AAE_NXZ@AAPAD@Z 10020a06 f i libucrt:output.obj
 0001:0001fa19       ??$read_va_arg@PAUansi_string@?1??type_case_Z@?$output_processor@_WV?$stream_output_adapter@_W@__crt_stdio_output@@V?$positional_parameter_base@_WV?$stream_output_adapter@_W@__crt_stdio_output@@@2@@__crt_stdio_output@@AAE_NXZ@@__crt_stdio_output@@YAPAUansi_string@?1??type_case_Z@?$output_processor@_WV?$stream_output_adapter@_W@__crt_stdio_output@@V?$positional_parameter_base@_WV?$stream_output_adapter@_W@__crt_stdio_output@@@2@@0@AAE_NXZ@AAPAD@Z 10020a19 f i libucrt:output.obj
 0001:0001fa2c       ??$read_va_arg@PAUansi_string@?1??type_case_Z@?$output_processor@_WV?$stream_output_adapter@_W@__crt_stdio_output@@V?$standard_base@_WV?$stream_output_adapter@_W@__crt_stdio_output@@@2@@__crt_stdio_output@@AAE_NXZ@@__crt_stdio_output@@YAPAUansi_string@?1??type_case_Z@?$output_processor@_WV?$stream_output_adapter@_W@__crt_stdio_output@@V?$standard_base@_WV?$stream_output_adapter@_W@__crt_stdio_output@@@2@@0@AAE_NXZ@AAPAD@Z 10020a2c f i libucrt:output.obj
 0001:0001fa3f       ??$read_va_arg@PAUansi_string@?1??type_case_Z@?$output_processor@_WV?$string_output_adapter@_W@__crt_stdio_output@@V?$format_validation_base@_WV?$string_output_adapter@_W@__crt_stdio_output@@@2@@__crt_stdio_output@@AAE_NXZ@@__crt_stdio_output@@YAPAUansi_string@?1??type_case_Z@?$output_processor@_WV?$string_output_adapter@_W@__crt_stdio_output@@V?$format_validation_base@_WV?$string_output_adapter@_W@__crt_stdio_output@@@2@@0@AAE_NXZ@AAPAD@Z 10020a3f f i libucrt:output.obj
 0001:0001fa52       ??$read_va_arg@PAUansi_string@?1??type_case_Z@?$output_processor@_WV?$string_output_adapter@_W@__crt_stdio_output@@V?$positional_parameter_base@_WV?$string_output_adapter@_W@__crt_stdio_output@@@2@@__crt_stdio_output@@AAE_NXZ@@__crt_stdio_output@@YAPAUansi_string@?1??type_case_Z@?$output_processor@_WV?$string_output_adapter@_W@__crt_stdio_output@@V?$positional_parameter_base@_WV?$string_output_adapter@_W@__crt_stdio_output@@@2@@0@AAE_NXZ@AAPAD@Z 10020a52 f i libucrt:output.obj
 0001:0001fa65       ??$read_va_arg@PAUansi_string@?1??type_case_Z@?$output_processor@_WV?$string_output_adapter@_W@__crt_stdio_output@@V?$standard_base@_WV?$string_output_adapter@_W@__crt_stdio_output@@@2@@__crt_stdio_output@@AAE_NXZ@@__crt_stdio_output@@YAPAUansi_string@?1??type_case_Z@?$output_processor@_WV?$string_output_adapter@_W@__crt_stdio_output@@V?$standard_base@_WV?$string_output_adapter@_W@__crt_stdio_output@@@2@@0@AAE_NXZ@AAPAD@Z 10020a65 f i libucrt:output.obj
 0001:0001fa78       ??$read_va_arg@PAX@__crt_stdio_output@@YAPAXAAPAD@Z 10020a78 f i libucrt:output.obj
 0001:0001fa8b       ??$read_va_arg@U_CRT_DOUBLE@@@__crt_stdio_output@@YA?AU_CRT_DOUBLE@@AAPAD@Z 10020a8b f i libucrt:output.obj
 0001:0001faa1       ??$read_va_arg@_J@__crt_stdio_output@@YA_JAAPAD@Z 10020aa1 f i libucrt:output.obj
 0001:0001fab7       ??$read_va_arg@_K@__crt_stdio_output@@YA_KAAPAD@Z 10020ab7 f i libucrt:output.obj
 0001:0001facd       ??$read_va_arg@_W@__crt_stdio_output@@YA_WAAPAD@Z 10020acd f i libucrt:output.obj
 0001:0001fae1       ??$scratch_count@D@formatting_buffer@__crt_stdio_output@@QBEIXZ 10020ae1 f i libucrt:output.obj
 0001:0001fae6       ??$scratch_data@D@formatting_buffer@__crt_stdio_output@@QAEPADXZ 10020ae6 f i libucrt:output.obj
 0001:0001fb04       ??$type_case_integer@$07@?$output_processor@DV?$stream_output_adapter@D@__crt_stdio_output@@V?$format_validation_base@DV?$stream_output_adapter@D@__crt_stdio_output@@@2@@__crt_stdio_output@@AAE_N_N@Z 10020b04 f i libucrt:output.obj
 0001:0001fc91       ??$type_case_integer@$07@?$output_processor@DV?$stream_output_adapter@D@__crt_stdio_output@@V?$positional_parameter_base@DV?$stream_output_adapter@D@__crt_stdio_output@@@2@@__crt_stdio_output@@AAE_N_N@Z 10020c91 f i libucrt:output.obj
 0001:0001fe2d       ??$type_case_integer@$07@?$output_processor@DV?$stream_output_adapter@D@__crt_stdio_output@@V?$standard_base@DV?$stream_output_adapter@D@__crt_stdio_output@@@2@@__crt_stdio_output@@AAE_N_N@Z 10020e2d f i libucrt:output.obj
 0001:0001ffba       ??$type_case_integer@$07@?$output_processor@DV?$string_output_adapter@D@__crt_stdio_output@@V?$format_validation_base@DV?$string_output_adapter@D@__crt_stdio_output@@@2@@__crt_stdio_output@@AAE_N_N@Z 10020fba f i libucrt:output.obj
 0001:00020147       ??$type_case_integer@$07@?$output_processor@DV?$string_output_adapter@D@__crt_stdio_output@@V?$positional_parameter_base@DV?$string_output_adapter@D@__crt_stdio_output@@@2@@__crt_stdio_output@@AAE_N_N@Z 10021147 f i libucrt:output.obj
 0001:000202e3       ??$type_case_integer@$07@?$output_processor@DV?$string_output_adapter@D@__crt_stdio_output@@V?$standard_base@DV?$string_output_adapter@D@__crt_stdio_output@@@2@@__crt_stdio_output@@AAE_N_N@Z 100212e3 f i libucrt:output.obj
 0001:00020470       ??$type_case_integer@$07@?$output_processor@_WV?$stream_output_adapter@_W@__crt_stdio_output@@V?$format_validation_base@_WV?$stream_output_adapter@_W@__crt_stdio_output@@@2@@__crt_stdio_output@@AAE_N_N@Z 10021470 f i libucrt:output.obj
 0001:00020602       ??$type_case_integer@$07@?$output_processor@_WV?$stream_output_adapter@_W@__crt_stdio_output@@V?$positional_parameter_base@_WV?$stream_output_adapter@_W@__crt_stdio_output@@@2@@__crt_stdio_output@@AAE_N_N@Z 10021602 f i libucrt:output.obj
 0001:000207a2       ??$type_case_integer@$07@?$output_processor@_WV?$stream_output_adapter@_W@__crt_stdio_output@@V?$standard_base@_WV?$stream_output_adapter@_W@__crt_stdio_output@@@2@@__crt_stdio_output@@AAE_N_N@Z 100217a2 f i libucrt:output.obj
 0001:00020934       ??$type_case_integer@$07@?$output_processor@_WV?$string_output_adapter@_W@__crt_stdio_output@@V?$format_validation_base@_WV?$string_output_adapter@_W@__crt_stdio_output@@@2@@__crt_stdio_output@@AAE_N_N@Z 10021934 f i libucrt:output.obj
 0001:00020ac6       ??$type_case_integer@$07@?$output_processor@_WV?$string_output_adapter@_W@__crt_stdio_output@@V?$positional_parameter_base@_WV?$string_output_adapter@_W@__crt_stdio_output@@@2@@__crt_stdio_output@@AAE_N_N@Z 10021ac6 f i libucrt:output.obj
 0001:00020c66       ??$type_case_integer@$07@?$output_processor@_WV?$string_output_adapter@_W@__crt_stdio_output@@V?$standard_base@_WV?$string_output_adapter@_W@__crt_stdio_output@@@2@@__crt_stdio_output@@AAE_N_N@Z 10021c66 f i libucrt:output.obj
 0001:00020df8       ??$type_case_integer@$09@?$output_processor@DV?$stream_output_adapter@D@__crt_stdio_output@@V?$format_validation_base@DV?$stream_output_adapter@D@__crt_stdio_output@@@2@@__crt_stdio_output@@AAE_N_N@Z 10021df8 f i libucrt:output.obj
 0001:00020f85       ??$type_case_integer@$09@?$output_processor@DV?$stream_output_adapter@D@__crt_stdio_output@@V?$positional_parameter_base@DV?$stream_output_adapter@D@__crt_stdio_output@@@2@@__crt_stdio_output@@AAE_N_N@Z 10021f85 f i libucrt:output.obj
 0001:00021121       ??$type_case_integer@$09@?$output_processor@DV?$stream_output_adapter@D@__crt_stdio_output@@V?$standard_base@DV?$stream_output_adapter@D@__crt_stdio_output@@@2@@__crt_stdio_output@@AAE_N_N@Z 10022121 f i libucrt:output.obj
 0001:000212ae       ??$type_case_integer@$09@?$output_processor@DV?$string_output_adapter@D@__crt_stdio_output@@V?$format_validation_base@DV?$string_output_adapter@D@__crt_stdio_output@@@2@@__crt_stdio_output@@AAE_N_N@Z 100222ae f i libucrt:output.obj
 0001:0002143b       ??$type_case_integer@$09@?$output_processor@DV?$string_output_adapter@D@__crt_stdio_output@@V?$positional_parameter_base@DV?$string_output_adapter@D@__crt_stdio_output@@@2@@__crt_stdio_output@@AAE_N_N@Z 1002243b f i libucrt:output.obj
 0001:000215d7       ??$type_case_integer@$09@?$output_processor@DV?$string_output_adapter@D@__crt_stdio_output@@V?$standard_base@DV?$string_output_adapter@D@__crt_stdio_output@@@2@@__crt_stdio_output@@AAE_N_N@Z 100225d7 f i libucrt:output.obj
 0001:00021764       ??$type_case_integer@$09@?$output_processor@_WV?$stream_output_adapter@_W@__crt_stdio_output@@V?$format_validation_base@_WV?$stream_output_adapter@_W@__crt_stdio_output@@@2@@__crt_stdio_output@@AAE_N_N@Z 10022764 f i libucrt:output.obj
 0001:000218f6       ??$type_case_integer@$09@?$output_processor@_WV?$stream_output_adapter@_W@__crt_stdio_output@@V?$positional_parameter_base@_WV?$stream_output_adapter@_W@__crt_stdio_output@@@2@@__crt_stdio_output@@AAE_N_N@Z 100228f6 f i libucrt:output.obj
 0001:00021a96       ??$type_case_integer@$09@?$output_processor@_WV?$stream_output_adapter@_W@__crt_stdio_output@@V?$standard_base@_WV?$stream_output_adapter@_W@__crt_stdio_output@@@2@@__crt_stdio_output@@AAE_N_N@Z 10022a96 f i libucrt:output.obj
 0001:00021c28       ??$type_case_integer@$09@?$output_processor@_WV?$string_output_adapter@_W@__crt_stdio_output@@V?$format_validation_base@_WV?$string_output_adapter@_W@__crt_stdio_output@@@2@@__crt_stdio_output@@AAE_N_N@Z 10022c28 f i libucrt:output.obj
 0001:00021dba       ??$type_case_integer@$09@?$output_processor@_WV?$string_output_adapter@_W@__crt_stdio_output@@V?$positional_parameter_base@_WV?$string_output_adapter@_W@__crt_stdio_output@@@2@@__crt_stdio_output@@AAE_N_N@Z 10022dba f i libucrt:output.obj
 0001:00021f5a       ??$type_case_integer@$09@?$output_processor@_WV?$string_output_adapter@_W@__crt_stdio_output@@V?$standard_base@_WV?$string_output_adapter@_W@__crt_stdio_output@@@2@@__crt_stdio_output@@AAE_N_N@Z 10022f5a f i libucrt:output.obj
 0001:000220ec       ??$type_case_integer@$0BA@@?$output_processor@DV?$stream_output_adapter@D@__crt_stdio_output@@V?$format_validation_base@DV?$stream_output_adapter@D@__crt_stdio_output@@@2@@__crt_stdio_output@@AAE_N_N@Z 100230ec f i libucrt:output.obj
 0001:00022279       ??$type_case_integer@$0BA@@?$output_processor@DV?$stream_output_adapter@D@__crt_stdio_output@@V?$positional_parameter_base@DV?$stream_output_adapter@D@__crt_stdio_output@@@2@@__crt_stdio_output@@AAE_N_N@Z 10023279 f i libucrt:output.obj
 0001:00022415       ??$type_case_integer@$0BA@@?$output_processor@DV?$stream_output_adapter@D@__crt_stdio_output@@V?$standard_base@DV?$stream_output_adapter@D@__crt_stdio_output@@@2@@__crt_stdio_output@@AAE_N_N@Z 10023415 f i libucrt:output.obj
 0001:000225a2       ??$type_case_integer@$0BA@@?$output_processor@DV?$string_output_adapter@D@__crt_stdio_output@@V?$format_validation_base@DV?$string_output_adapter@D@__crt_stdio_output@@@2@@__crt_stdio_output@@AAE_N_N@Z 100235a2 f i libucrt:output.obj
 0001:0002272f       ??$type_case_integer@$0BA@@?$output_processor@DV?$string_output_adapter@D@__crt_stdio_output@@V?$positional_parameter_base@DV?$string_output_adapter@D@__crt_stdio_output@@@2@@__crt_stdio_output@@AAE_N_N@Z 1002372f f i libucrt:output.obj
 0001:000228cb       ??$type_case_integer@$0BA@@?$output_processor@DV?$string_output_adapter@D@__crt_stdio_output@@V?$standard_base@DV?$string_output_adapter@D@__crt_stdio_output@@@2@@__crt_stdio_output@@AAE_N_N@Z 100238cb f i libucrt:output.obj
 0001:00022a58       ??$type_case_integer@$0BA@@?$output_processor@_WV?$stream_output_adapter@_W@__crt_stdio_output@@V?$format_validation_base@_WV?$stream_output_adapter@_W@__crt_stdio_output@@@2@@__crt_stdio_output@@AAE_N_N@Z 10023a58 f i libucrt:output.obj
 0001:00022bea       ??$type_case_integer@$0BA@@?$output_processor@_WV?$stream_output_adapter@_W@__crt_stdio_output@@V?$positional_parameter_base@_WV?$stream_output_adapter@_W@__crt_stdio_output@@@2@@__crt_stdio_output@@AAE_N_N@Z 10023bea f i libucrt:output.obj
 0001:00022d8a       ??$type_case_integer@$0BA@@?$output_processor@_WV?$stream_output_adapter@_W@__crt_stdio_output@@V?$standard_base@_WV?$stream_output_adapter@_W@__crt_stdio_output@@@2@@__crt_stdio_output@@AAE_N_N@Z 10023d8a f i libucrt:output.obj
 0001:00022f1c       ??$type_case_integer@$0BA@@?$output_processor@_WV?$string_output_adapter@_W@__crt_stdio_output@@V?$format_validation_base@_WV?$string_output_adapter@_W@__crt_stdio_output@@@2@@__crt_stdio_output@@AAE_N_N@Z 10023f1c f i libucrt:output.obj
 0001:000230ae       ??$type_case_integer@$0BA@@?$output_processor@_WV?$string_output_adapter@_W@__crt_stdio_output@@V?$positional_parameter_base@_WV?$string_output_adapter@_W@__crt_stdio_output@@@2@@__crt_stdio_output@@AAE_N_N@Z 100240ae f i libucrt:output.obj
 0001:0002324e       ??$type_case_integer@$0BA@@?$output_processor@_WV?$string_output_adapter@_W@__crt_stdio_output@@V?$standard_base@_WV?$string_output_adapter@_W@__crt_stdio_output@@@2@@__crt_stdio_output@@AAE_N_N@Z 1002424e f i libucrt:output.obj
 0001:000233e0       ??$type_case_integer_parse_into_buffer@I$07@?$output_processor@DV?$stream_output_adapter@D@__crt_stdio_output@@V?$format_validation_base@DV?$stream_output_adapter@D@__crt_stdio_output@@@2@@__crt_stdio_output@@AAEXI_N@Z 100243e0 f i libucrt:output.obj
 0001:00023443       ??$type_case_integer_parse_into_buffer@I$07@?$output_processor@DV?$stream_output_adapter@D@__crt_stdio_output@@V?$positional_parameter_base@DV?$stream_output_adapter@D@__crt_stdio_output@@@2@@__crt_stdio_output@@AAEXI_N@Z 10024443 f i libucrt:output.obj
 0001:000234a6       ??$type_case_integer_parse_into_buffer@I$07@?$output_processor@DV?$stream_output_adapter@D@__crt_stdio_output@@V?$standard_base@DV?$stream_output_adapter@D@__crt_stdio_output@@@2@@__crt_stdio_output@@AAEXI_N@Z 100244a6 f i libucrt:output.obj
 0001:00023509       ??$type_case_integer_parse_into_buffer@I$07@?$output_processor@DV?$string_output_adapter@D@__crt_stdio_output@@V?$format_validation_base@DV?$string_output_adapter@D@__crt_stdio_output@@@2@@__crt_stdio_output@@AAEXI_N@Z 10024509 f i libucrt:output.obj
 0001:0002356c       ??$type_case_integer_parse_into_buffer@I$07@?$output_processor@DV?$string_output_adapter@D@__crt_stdio_output@@V?$positional_parameter_base@DV?$string_output_adapter@D@__crt_stdio_output@@@2@@__crt_stdio_output@@AAEXI_N@Z 1002456c f i libucrt:output.obj
 0001:000235cf       ??$type_case_integer_parse_into_buffer@I$07@?$output_processor@DV?$string_output_adapter@D@__crt_stdio_output@@V?$standard_base@DV?$string_output_adapter@D@__crt_stdio_output@@@2@@__crt_stdio_output@@AAEXI_N@Z 100245cf f i libucrt:output.obj
 0001:00023632       ??$type_case_integer_parse_into_buffer@I$07@?$output_processor@_WV?$stream_output_adapter@_W@__crt_stdio_output@@V?$format_validation_base@_WV?$stream_output_adapter@_W@__crt_stdio_output@@@2@@__crt_stdio_output@@AAEXI_N@Z 10024632 f i libucrt:output.obj
 0001:000236a5       ??$type_case_integer_parse_into_buffer@I$07@?$output_processor@_WV?$stream_output_adapter@_W@__crt_stdio_output@@V?$positional_parameter_base@_WV?$stream_output_adapter@_W@__crt_stdio_output@@@2@@__crt_stdio_output@@AAEXI_N@Z 100246a5 f i libucrt:output.obj
 0001:00023718       ??$type_case_integer_parse_into_buffer@I$07@?$output_processor@_WV?$stream_output_adapter@_W@__crt_stdio_output@@V?$standard_base@_WV?$stream_output_adapter@_W@__crt_stdio_output@@@2@@__crt_stdio_output@@AAEXI_N@Z 10024718 f i libucrt:output.obj
 0001:0002378b       ??$type_case_integer_parse_into_buffer@I$07@?$output_processor@_WV?$string_output_adapter@_W@__crt_stdio_output@@V?$format_validation_base@_WV?$string_output_adapter@_W@__crt_stdio_output@@@2@@__crt_stdio_output@@AAEXI_N@Z 1002478b f i libucrt:output.obj
 0001:000237fe       ??$type_case_integer_parse_into_buffer@I$07@?$output_processor@_WV?$string_output_adapter@_W@__crt_stdio_output@@V?$positional_parameter_base@_WV?$string_output_adapter@_W@__crt_stdio_output@@@2@@__crt_stdio_output@@AAEXI_N@Z 100247fe f i libucrt:output.obj
 0001:00023871       ??$type_case_integer_parse_into_buffer@I$07@?$output_processor@_WV?$string_output_adapter@_W@__crt_stdio_output@@V?$standard_base@_WV?$string_output_adapter@_W@__crt_stdio_output@@@2@@__crt_stdio_output@@AAEXI_N@Z 10024871 f i libucrt:output.obj
 0001:000238e4       ??$type_case_integer_parse_into_buffer@I$09@?$output_processor@DV?$stream_output_adapter@D@__crt_stdio_output@@V?$format_validation_base@DV?$stream_output_adapter@D@__crt_stdio_output@@@2@@__crt_stdio_output@@AAEXI_N@Z 100248e4 f i libucrt:output.obj
 0001:0002396b       ??$type_case_integer_parse_into_buffer@I$09@?$output_processor@DV?$stream_output_adapter@D@__crt_stdio_output@@V?$positional_parameter_base@DV?$stream_output_adapter@D@__crt_stdio_output@@@2@@__crt_stdio_output@@AAEXI_N@Z 1002496b f i libucrt:output.obj
 0001:000239f2       ??$type_case_integer_parse_into_buffer@I$09@?$output_processor@DV?$stream_output_adapter@D@__crt_stdio_output@@V?$standard_base@DV?$stream_output_adapter@D@__crt_stdio_output@@@2@@__crt_stdio_output@@AAEXI_N@Z 100249f2 f i libucrt:output.obj
 0001:00023a79       ??$type_case_integer_parse_into_buffer@I$09@?$output_processor@DV?$string_output_adapter@D@__crt_stdio_output@@V?$format_validation_base@DV?$string_output_adapter@D@__crt_stdio_output@@@2@@__crt_stdio_output@@AAEXI_N@Z 10024a79 f i libucrt:output.obj
 0001:00023b00       ??$type_case_integer_parse_into_buffer@I$09@?$output_processor@DV?$string_output_adapter@D@__crt_stdio_output@@V?$positional_parameter_base@DV?$string_output_adapter@D@__crt_stdio_output@@@2@@__crt_stdio_output@@AAEXI_N@Z 10024b00 f i libucrt:output.obj
 0001:00023b87       ??$type_case_integer_parse_into_buffer@I$09@?$output_processor@DV?$string_output_adapter@D@__crt_stdio_output@@V?$standard_base@DV?$string_output_adapter@D@__crt_stdio_output@@@2@@__crt_stdio_output@@AAEXI_N@Z 10024b87 f i libucrt:output.obj
 0001:00023c0e       ??$type_case_integer_parse_into_buffer@I$09@?$output_processor@_WV?$stream_output_adapter@_W@__crt_stdio_output@@V?$format_validation_base@_WV?$stream_output_adapter@_W@__crt_stdio_output@@@2@@__crt_stdio_output@@AAEXI_N@Z 10024c0e f i libucrt:output.obj
 0001:00023caa       ??$type_case_integer_parse_into_buffer@I$09@?$output_processor@_WV?$stream_output_adapter@_W@__crt_stdio_output@@V?$positional_parameter_base@_WV?$stream_output_adapter@_W@__crt_stdio_output@@@2@@__crt_stdio_output@@AAEXI_N@Z 10024caa f i libucrt:output.obj
 0001:00023d46       ??$type_case_integer_parse_into_buffer@I$09@?$output_processor@_WV?$stream_output_adapter@_W@__crt_stdio_output@@V?$standard_base@_WV?$stream_output_adapter@_W@__crt_stdio_output@@@2@@__crt_stdio_output@@AAEXI_N@Z 10024d46 f i libucrt:output.obj
 0001:00023de2       ??$type_case_integer_parse_into_buffer@I$09@?$output_processor@_WV?$string_output_adapter@_W@__crt_stdio_output@@V?$format_validation_base@_WV?$string_output_adapter@_W@__crt_stdio_output@@@2@@__crt_stdio_output@@AAEXI_N@Z 10024de2 f i libucrt:output.obj
 0001:00023e7e       ??$type_case_integer_parse_into_buffer@I$09@?$output_processor@_WV?$string_output_adapter@_W@__crt_stdio_output@@V?$positional_parameter_base@_WV?$string_output_adapter@_W@__crt_stdio_output@@@2@@__crt_stdio_output@@AAEXI_N@Z 10024e7e f i libucrt:output.obj
 0001:00023f1a       ??$type_case_integer_parse_into_buffer@I$09@?$output_processor@_WV?$string_output_adapter@_W@__crt_stdio_output@@V?$standard_base@_WV?$string_output_adapter@_W@__crt_stdio_output@@@2@@__crt_stdio_output@@AAEXI_N@Z 10024f1a f i libucrt:output.obj
 0001:00023fb6       ??$type_case_integer_parse_into_buffer@I$0BA@@?$output_processor@DV?$stream_output_adapter@D@__crt_stdio_output@@V?$format_validation_base@DV?$stream_output_adapter@D@__crt_stdio_output@@@2@@__crt_stdio_output@@AAEXI_N@Z 10024fb6 f i libucrt:output.obj
 0001:00024033       ??$type_case_integer_parse_into_buffer@I$0BA@@?$output_processor@DV?$stream_output_adapter@D@__crt_stdio_output@@V?$positional_parameter_base@DV?$stream_output_adapter@D@__crt_stdio_output@@@2@@__crt_stdio_output@@AAEXI_N@Z 10025033 f i libucrt:output.obj
 0001:000240b0       ??$type_case_integer_parse_into_buffer@I$0BA@@?$output_processor@DV?$stream_output_adapter@D@__crt_stdio_output@@V?$standard_base@DV?$stream_output_adapter@D@__crt_stdio_output@@@2@@__crt_stdio_output@@AAEXI_N@Z 100250b0 f i libucrt:output.obj
 0001:0002412d       ??$type_case_integer_parse_into_buffer@I$0BA@@?$output_processor@DV?$string_output_adapter@D@__crt_stdio_output@@V?$format_validation_base@DV?$string_output_adapter@D@__crt_stdio_output@@@2@@__crt_stdio_output@@AAEXI_N@Z 1002512d f i libucrt:output.obj
 0001:000241aa       ??$type_case_integer_parse_into_buffer@I$0BA@@?$output_processor@DV?$string_output_adapter@D@__crt_stdio_output@@V?$positional_parameter_base@DV?$string_output_adapter@D@__crt_stdio_output@@@2@@__crt_stdio_output@@AAEXI_N@Z 100251aa f i libucrt:output.obj
 0001:00024227       ??$type_case_integer_parse_into_buffer@I$0BA@@?$output_processor@DV?$string_output_adapter@D@__crt_stdio_output@@V?$standard_base@DV?$string_output_adapter@D@__crt_stdio_output@@@2@@__crt_stdio_output@@AAEXI_N@Z 10025227 f i libucrt:output.obj
 0001:000242a4       ??$type_case_integer_parse_into_buffer@I$0BA@@?$output_processor@_WV?$stream_output_adapter@_W@__crt_stdio_output@@V?$format_validation_base@_WV?$stream_output_adapter@_W@__crt_stdio_output@@@2@@__crt_stdio_output@@AAEXI_N@Z 100252a4 f i libucrt:output.obj
 0001:0002432e       ??$type_case_integer_parse_into_buffer@I$0BA@@?$output_processor@_WV?$stream_output_adapter@_W@__crt_stdio_output@@V?$positional_parameter_base@_WV?$stream_output_adapter@_W@__crt_stdio_output@@@2@@__crt_stdio_output@@AAEXI_N@Z 1002532e f i libucrt:output.obj
 0001:000243b8       ??$type_case_integer_parse_into_buffer@I$0BA@@?$output_processor@_WV?$stream_output_adapter@_W@__crt_stdio_output@@V?$standard_base@_WV?$stream_output_adapter@_W@__crt_stdio_output@@@2@@__crt_stdio_output@@AAEXI_N@Z 100253b8 f i libucrt:output.obj
 0001:00024442       ??$type_case_integer_parse_into_buffer@I$0BA@@?$output_processor@_WV?$string_output_adapter@_W@__crt_stdio_output@@V?$format_validation_base@_WV?$string_output_adapter@_W@__crt_stdio_output@@@2@@__crt_stdio_output@@AAEXI_N@Z 10025442 f i libucrt:output.obj
 0001:000244cc       ??$type_case_integer_parse_into_buffer@I$0BA@@?$output_processor@_WV?$string_output_adapter@_W@__crt_stdio_output@@V?$positional_parameter_base@_WV?$string_output_adapter@_W@__crt_stdio_output@@@2@@__crt_stdio_output@@AAEXI_N@Z 100254cc f i libucrt:output.obj
 0001:00024556       ??$type_case_integer_parse_into_buffer@I$0BA@@?$output_processor@_WV?$string_output_adapter@_W@__crt_stdio_output@@V?$standard_base@_WV?$string_output_adapter@_W@__crt_stdio_output@@@2@@__crt_stdio_output@@AAEXI_N@Z 10025556 f i libucrt:output.obj
 0001:000245e0       ??$type_case_integer_parse_into_buffer@_K$07@?$output_processor@DV?$stream_output_adapter@D@__crt_stdio_output@@V?$format_validation_base@DV?$stream_output_adapter@D@__crt_stdio_output@@@2@@__crt_stdio_output@@AAEX_K_N@Z 100255e0 f i libucrt:output.obj
 0001:00024658       ??$type_case_integer_parse_into_buffer@_K$07@?$output_processor@DV?$stream_output_adapter@D@__crt_stdio_output@@V?$positional_parameter_base@DV?$stream_output_adapter@D@__crt_stdio_output@@@2@@__crt_stdio_output@@AAEX_K_N@Z 10025658 f i libucrt:output.obj
 0001:000246d0       ??$type_case_integer_parse_into_buffer@_K$07@?$output_processor@DV?$stream_output_adapter@D@__crt_stdio_output@@V?$standard_base@DV?$stream_output_adapter@D@__crt_stdio_output@@@2@@__crt_stdio_output@@AAEX_K_N@Z 100256d0 f i libucrt:output.obj
 0001:00024748       ??$type_case_integer_parse_into_buffer@_K$07@?$output_processor@DV?$string_output_adapter@D@__crt_stdio_output@@V?$format_validation_base@DV?$string_output_adapter@D@__crt_stdio_output@@@2@@__crt_stdio_output@@AAEX_K_N@Z 10025748 f i libucrt:output.obj
 0001:000247c0       ??$type_case_integer_parse_into_buffer@_K$07@?$output_processor@DV?$string_output_adapter@D@__crt_stdio_output@@V?$positional_parameter_base@DV?$string_output_adapter@D@__crt_stdio_output@@@2@@__crt_stdio_output@@AAEX_K_N@Z 100257c0 f i libucrt:output.obj
 0001:00024838       ??$type_case_integer_parse_into_buffer@_K$07@?$output_processor@DV?$string_output_adapter@D@__crt_stdio_output@@V?$standard_base@DV?$string_output_adapter@D@__crt_stdio_output@@@2@@__crt_stdio_output@@AAEX_K_N@Z 10025838 f i libucrt:output.obj
 0001:000248b0       ??$type_case_integer_parse_into_buffer@_K$07@?$output_processor@_WV?$stream_output_adapter@_W@__crt_stdio_output@@V?$format_validation_base@_WV?$stream_output_adapter@_W@__crt_stdio_output@@@2@@__crt_stdio_output@@AAEX_K_N@Z 100258b0 f i libucrt:output.obj
 0001:00024937       ??$type_case_integer_parse_into_buffer@_K$07@?$output_processor@_WV?$stream_output_adapter@_W@__crt_stdio_output@@V?$positional_parameter_base@_WV?$stream_output_adapter@_W@__crt_stdio_output@@@2@@__crt_stdio_output@@AAEX_K_N@Z 10025937 f i libucrt:output.obj
 0001:000249be       ??$type_case_integer_parse_into_buffer@_K$07@?$output_processor@_WV?$stream_output_adapter@_W@__crt_stdio_output@@V?$standard_base@_WV?$stream_output_adapter@_W@__crt_stdio_output@@@2@@__crt_stdio_output@@AAEX_K_N@Z 100259be f i libucrt:output.obj
 0001:00024a45       ??$type_case_integer_parse_into_buffer@_K$07@?$output_processor@_WV?$string_output_adapter@_W@__crt_stdio_output@@V?$format_validation_base@_WV?$string_output_adapter@_W@__crt_stdio_output@@@2@@__crt_stdio_output@@AAEX_K_N@Z 10025a45 f i libucrt:output.obj
 0001:00024acc       ??$type_case_integer_parse_into_buffer@_K$07@?$output_processor@_WV?$string_output_adapter@_W@__crt_stdio_output@@V?$positional_parameter_base@_WV?$string_output_adapter@_W@__crt_stdio_output@@@2@@__crt_stdio_output@@AAEX_K_N@Z 10025acc f i libucrt:output.obj
 0001:00024b53       ??$type_case_integer_parse_into_buffer@_K$07@?$output_processor@_WV?$string_output_adapter@_W@__crt_stdio_output@@V?$standard_base@_WV?$string_output_adapter@_W@__crt_stdio_output@@@2@@__crt_stdio_output@@AAEX_K_N@Z 10025b53 f i libucrt:output.obj
 0001:00024bda       ??$type_case_integer_parse_into_buffer@_K$09@?$output_processor@DV?$stream_output_adapter@D@__crt_stdio_output@@V?$format_validation_base@DV?$stream_output_adapter@D@__crt_stdio_output@@@2@@__crt_stdio_output@@AAEX_K_N@Z 10025bda f i libucrt:output.obj
 0001:00024c81       ??$type_case_integer_parse_into_buffer@_K$09@?$output_processor@DV?$stream_output_adapter@D@__crt_stdio_output@@V?$positional_parameter_base@DV?$stream_output_adapter@D@__crt_stdio_output@@@2@@__crt_stdio_output@@AAEX_K_N@Z 10025c81 f i libucrt:output.obj
 0001:00024d28       ??$type_case_integer_parse_into_buffer@_K$09@?$output_processor@DV?$stream_output_adapter@D@__crt_stdio_output@@V?$standard_base@DV?$stream_output_adapter@D@__crt_stdio_output@@@2@@__crt_stdio_output@@AAEX_K_N@Z 10025d28 f i libucrt:output.obj
 0001:00024dcf       ??$type_case_integer_parse_into_buffer@_K$09@?$output_processor@DV?$string_output_adapter@D@__crt_stdio_output@@V?$format_validation_base@DV?$string_output_adapter@D@__crt_stdio_output@@@2@@__crt_stdio_output@@AAEX_K_N@Z 10025dcf f i libucrt:output.obj
 0001:00024e76       ??$type_case_integer_parse_into_buffer@_K$09@?$output_processor@DV?$string_output_adapter@D@__crt_stdio_output@@V?$positional_parameter_base@DV?$string_output_adapter@D@__crt_stdio_output@@@2@@__crt_stdio_output@@AAEX_K_N@Z 10025e76 f i libucrt:output.obj
 0001:00024f1d       ??$type_case_integer_parse_into_buffer@_K$09@?$output_processor@DV?$string_output_adapter@D@__crt_stdio_output@@V?$standard_base@DV?$string_output_adapter@D@__crt_stdio_output@@@2@@__crt_stdio_output@@AAEX_K_N@Z 10025f1d f i libucrt:output.obj
 0001:00024fc4       ??$type_case_integer_parse_into_buffer@_K$09@?$output_processor@_WV?$stream_output_adapter@_W@__crt_stdio_output@@V?$format_validation_base@_WV?$stream_output_adapter@_W@__crt_stdio_output@@@2@@__crt_stdio_output@@AAEX_K_N@Z 10025fc4 f i libucrt:output.obj
 0001:00025081       ??$type_case_integer_parse_into_buffer@_K$09@?$output_processor@_WV?$stream_output_adapter@_W@__crt_stdio_output@@V?$positional_parameter_base@_WV?$stream_output_adapter@_W@__crt_stdio_output@@@2@@__crt_stdio_output@@AAEX_K_N@Z 10026081 f i libucrt:output.obj
 0001:0002513e       ??$type_case_integer_parse_into_buffer@_K$09@?$output_processor@_WV?$stream_output_adapter@_W@__crt_stdio_output@@V?$standard_base@_WV?$stream_output_adapter@_W@__crt_stdio_output@@@2@@__crt_stdio_output@@AAEX_K_N@Z 1002613e f i libucrt:output.obj
 0001:000251fb       ??$type_case_integer_parse_into_buffer@_K$09@?$output_processor@_WV?$string_output_adapter@_W@__crt_stdio_output@@V?$format_validation_base@_WV?$string_output_adapter@_W@__crt_stdio_output@@@2@@__crt_stdio_output@@AAEX_K_N@Z 100261fb f i libucrt:output.obj
 0001:000252b8       ??$type_case_integer_parse_into_buffer@_K$09@?$output_processor@_WV?$string_output_adapter@_W@__crt_stdio_output@@V?$positional_parameter_base@_WV?$string_output_adapter@_W@__crt_stdio_output@@@2@@__crt_stdio_output@@AAEX_K_N@Z 100262b8 f i libucrt:output.obj
 0001:00025375       ??$type_case_integer_parse_into_buffer@_K$09@?$output_processor@_WV?$string_output_adapter@_W@__crt_stdio_output@@V?$standard_base@_WV?$string_output_adapter@_W@__crt_stdio_output@@@2@@__crt_stdio_output@@AAEX_K_N@Z 10026375 f i libucrt:output.obj
 0001:00025432       ??$type_case_integer_parse_into_buffer@_K$0BA@@?$output_processor@DV?$stream_output_adapter@D@__crt_stdio_output@@V?$format_validation_base@DV?$stream_output_adapter@D@__crt_stdio_output@@@2@@__crt_stdio_output@@AAEX_K_N@Z 10026432 f i libucrt:output.obj
 0001:000254bc       ??$type_case_integer_parse_into_buffer@_K$0BA@@?$output_processor@DV?$stream_output_adapter@D@__crt_stdio_output@@V?$positional_parameter_base@DV?$stream_output_adapter@D@__crt_stdio_output@@@2@@__crt_stdio_output@@AAEX_K_N@Z 100264bc f i libucrt:output.obj
 0001:00025546       ??$type_case_integer_parse_into_buffer@_K$0BA@@?$output_processor@DV?$stream_output_adapter@D@__crt_stdio_output@@V?$standard_base@DV?$stream_output_adapter@D@__crt_stdio_output@@@2@@__crt_stdio_output@@AAEX_K_N@Z 10026546 f i libucrt:output.obj
 0001:000255d0       ??$type_case_integer_parse_into_buffer@_K$0BA@@?$output_processor@DV?$string_output_adapter@D@__crt_stdio_output@@V?$format_validation_base@DV?$string_output_adapter@D@__crt_stdio_output@@@2@@__crt_stdio_output@@AAEX_K_N@Z 100265d0 f i libucrt:output.obj
 0001:0002565a       ??$type_case_integer_parse_into_buffer@_K$0BA@@?$output_processor@DV?$string_output_adapter@D@__crt_stdio_output@@V?$positional_parameter_base@DV?$string_output_adapter@D@__crt_stdio_output@@@2@@__crt_stdio_output@@AAEX_K_N@Z 1002665a f i libucrt:output.obj
 0001:000256e4       ??$type_case_integer_parse_into_buffer@_K$0BA@@?$output_processor@DV?$string_output_adapter@D@__crt_stdio_output@@V?$standard_base@DV?$string_output_adapter@D@__crt_stdio_output@@@2@@__crt_stdio_output@@AAEX_K_N@Z 100266e4 f i libucrt:output.obj
 0001:0002576e       ??$type_case_integer_parse_into_buffer@_K$0BA@@?$output_processor@_WV?$stream_output_adapter@_W@__crt_stdio_output@@V?$format_validation_base@_WV?$stream_output_adapter@_W@__crt_stdio_output@@@2@@__crt_stdio_output@@AAEX_K_N@Z 1002676e f i libucrt:output.obj
 0001:00025804       ??$type_case_integer_parse_into_buffer@_K$0BA@@?$output_processor@_WV?$stream_output_adapter@_W@__crt_stdio_output@@V?$positional_parameter_base@_WV?$stream_output_adapter@_W@__crt_stdio_output@@@2@@__crt_stdio_output@@AAEX_K_N@Z 10026804 f i libucrt:output.obj
 0001:0002589a       ??$type_case_integer_parse_into_buffer@_K$0BA@@?$output_processor@_WV?$stream_output_adapter@_W@__crt_stdio_output@@V?$standard_base@_WV?$stream_output_adapter@_W@__crt_stdio_output@@@2@@__crt_stdio_output@@AAEX_K_N@Z 1002689a f i libucrt:output.obj
 0001:00025930       ??$type_case_integer_parse_into_buffer@_K$0BA@@?$output_processor@_WV?$string_output_adapter@_W@__crt_stdio_output@@V?$format_validation_base@_WV?$string_output_adapter@_W@__crt_stdio_output@@@2@@__crt_stdio_output@@AAEX_K_N@Z 10026930 f i libucrt:output.obj
 0001:000259c6       ??$type_case_integer_parse_into_buffer@_K$0BA@@?$output_processor@_WV?$string_output_adapter@_W@__crt_stdio_output@@V?$positional_parameter_base@_WV?$string_output_adapter@_W@__crt_stdio_output@@@2@@__crt_stdio_output@@AAEX_K_N@Z 100269c6 f i libucrt:output.obj
 0001:00025a5c       ??$type_case_integer_parse_into_buffer@_K$0BA@@?$output_processor@_WV?$string_output_adapter@_W@__crt_stdio_output@@V?$standard_base@_WV?$string_output_adapter@_W@__crt_stdio_output@@@2@@__crt_stdio_output@@AAEX_K_N@Z 10026a5c f i libucrt:output.obj
 0001:00025af2       ??$write_multiple_characters@V?$stream_output_adapter@D@__crt_stdio_output@@D@__crt_stdio_output@@YAXABV?$stream_output_adapter@D@0@DHQAHAAV__crt_cached_ptd_host@@@Z 10026af2 f i libucrt:output.obj
 0001:00025b21       ??$write_multiple_characters@V?$stream_output_adapter@_W@__crt_stdio_output@@D@__crt_stdio_output@@YAXABV?$stream_output_adapter@_W@0@DHQAHAAV__crt_cached_ptd_host@@@Z 10026b21 f i libucrt:output.obj
 0001:00025b55       ??$write_multiple_characters@V?$string_output_adapter@D@__crt_stdio_output@@D@__crt_stdio_output@@YAXABV?$string_output_adapter@D@0@DHQAHAAV__crt_cached_ptd_host@@@Z 10026b55 f i libucrt:output.obj
 0001:00025bb8       ??$write_multiple_characters@V?$string_output_adapter@_W@__crt_stdio_output@@D@__crt_stdio_output@@YAXABV?$string_output_adapter@_W@0@DHQAHAAV__crt_cached_ptd_host@@@Z 10026bb8 f i libucrt:output.obj
 0001:00025de7       ??0?$c_string_character_source@D@__crt_strtox@@QAE@QBDQAPBD@Z 10026de7 f i libucrt:output.obj
 0001:00025e03       ??0?$c_string_character_source@_W@__crt_strtox@@QAE@QB_WQAPB_W@Z 10026e03 f i libucrt:output.obj
 0001:00025e1f       ??0?$common_data@D@__crt_stdio_output@@IAE@AAV__crt_cached_ptd_host@@@Z 10026e1f f i libucrt:output.obj
 0001:00025e66       ??0?$common_data@_W@__crt_stdio_output@@IAE@AAV__crt_cached_ptd_host@@@Z 10026e66 f i libucrt:output.obj
 0001:00025eb2       ??0?$output_adapter_data@DV?$stream_output_adapter@D@__crt_stdio_output@@@__crt_stdio_output@@IAE@ABV?$stream_output_adapter@D@1@_KQBDAAV__crt_cached_ptd_host@@QAD@Z 10026eb2 f i libucrt:output.obj
 0001:00025f19       ??0?$output_adapter_data@DV?$string_output_adapter@D@__crt_stdio_output@@@__crt_stdio_output@@IAE@ABV?$string_output_adapter@D@1@_KQBDAAV__crt_cached_ptd_host@@QAD@Z 10026f19 f i libucrt:output.obj
 0001:00025f80       ??0?$output_adapter_data@_WV?$stream_output_adapter@_W@__crt_stdio_output@@@__crt_stdio_output@@IAE@ABV?$stream_output_adapter@_W@1@_KQB_WAAV__crt_cached_ptd_host@@QAD@Z 10026f80 f i libucrt:output.obj
 0001:00025fec       ??0?$output_adapter_data@_WV?$string_output_adapter@_W@__crt_stdio_output@@@__crt_stdio_output@@IAE@ABV?$string_output_adapter@_W@1@_KQB_WAAV__crt_cached_ptd_host@@QAD@Z 10026fec f i libucrt:output.obj
 0001:00026058       ??0?$output_processor@DV?$stream_output_adapter@D@__crt_stdio_output@@V?$format_validation_base@DV?$stream_output_adapter@D@__crt_stdio_output@@@2@@__crt_stdio_output@@QAE@ABV?$stream_output_adapter@D@1@_KQBDAAV__crt_cached_ptd_host@@QAD@Z 10027058 f i libucrt:output.obj
 0001:00026085       ??0?$output_processor@DV?$stream_output_adapter@D@__crt_stdio_output@@V?$positional_parameter_base@DV?$stream_output_adapter@D@__crt_stdio_output@@@2@@__crt_stdio_output@@QAE@ABV?$stream_output_adapter@D@1@_KQBDAAV__crt_cached_ptd_host@@QAD@Z 10027085 f i libucrt:output.obj
 0001:000260ab       ??0?$output_processor@DV?$stream_output_adapter@D@__crt_stdio_output@@V?$standard_base@DV?$stream_output_adapter@D@__crt_stdio_output@@@2@@__crt_stdio_output@@QAE@ABV?$stream_output_adapter@D@1@_KQBDAAV__crt_cached_ptd_host@@QAD@Z 100270ab f i libucrt:output.obj
 0001:000260d8       ??0?$output_processor@DV?$string_output_adapter@D@__crt_stdio_output@@V?$format_validation_base@DV?$string_output_adapter@D@__crt_stdio_output@@@2@@__crt_stdio_output@@QAE@ABV?$string_output_adapter@D@1@_KQBDAAV__crt_cached_ptd_host@@QAD@Z 100270d8 f i libucrt:output.obj
 0001:00026105       ??0?$output_processor@DV?$string_output_adapter@D@__crt_stdio_output@@V?$positional_parameter_base@DV?$string_output_adapter@D@__crt_stdio_output@@@2@@__crt_stdio_output@@QAE@ABV?$string_output_adapter@D@1@_KQBDAAV__crt_cached_ptd_host@@QAD@Z 10027105 f i libucrt:output.obj
 0001:0002612b       ??0?$output_processor@DV?$string_output_adapter@D@__crt_stdio_output@@V?$standard_base@DV?$string_output_adapter@D@__crt_stdio_output@@@2@@__crt_stdio_output@@QAE@ABV?$string_output_adapter@D@1@_KQBDAAV__crt_cached_ptd_host@@QAD@Z 1002712b f i libucrt:output.obj
 0001:00026158       ??0?$output_processor@_WV?$stream_output_adapter@_W@__crt_stdio_output@@V?$format_validation_base@_WV?$stream_output_adapter@_W@__crt_stdio_output@@@2@@__crt_stdio_output@@QAE@ABV?$stream_output_adapter@_W@1@_KQB_WAAV__crt_cached_ptd_host@@QAD@Z 10027158 f i libucrt:output.obj
 0001:00026185       ??0?$output_processor@_WV?$stream_output_adapter@_W@__crt_stdio_output@@V?$positional_parameter_base@_WV?$stream_output_adapter@_W@__crt_stdio_output@@@2@@__crt_stdio_output@@QAE@ABV?$stream_output_adapter@_W@1@_KQB_WAAV__crt_cached_ptd_host@@QAD@Z 10027185 f i libucrt:output.obj
 0001:000261ab       ??0?$output_processor@_WV?$stream_output_adapter@_W@__crt_stdio_output@@V?$standard_base@_WV?$stream_output_adapter@_W@__crt_stdio_output@@@2@@__crt_stdio_output@@QAE@ABV?$stream_output_adapter@_W@1@_KQB_WAAV__crt_cached_ptd_host@@QAD@Z 100271ab f i libucrt:output.obj
 0001:000261d8       ??0?$output_processor@_WV?$string_output_adapter@_W@__crt_stdio_output@@V?$format_validation_base@_WV?$string_output_adapter@_W@__crt_stdio_output@@@2@@__crt_stdio_output@@QAE@ABV?$string_output_adapter@_W@1@_KQB_WAAV__crt_cached_ptd_host@@QAD@Z 100271d8 f i libucrt:output.obj
 0001:00026205       ??0?$output_processor@_WV?$string_output_adapter@_W@__crt_stdio_output@@V?$positional_parameter_base@_WV?$string_output_adapter@_W@__crt_stdio_output@@@2@@__crt_stdio_output@@QAE@ABV?$string_output_adapter@_W@1@_KQB_WAAV__crt_cached_ptd_host@@QAD@Z 10027205 f i libucrt:output.obj
 0001:0002622b       ??0?$output_processor@_WV?$string_output_adapter@_W@__crt_stdio_output@@V?$standard_base@_WV?$string_output_adapter@_W@__crt_stdio_output@@@2@@__crt_stdio_output@@QAE@ABV?$string_output_adapter@_W@1@_KQB_WAAV__crt_cached_ptd_host@@QAD@Z 1002722b f i libucrt:output.obj
 0001:00026258       ??0?$stream_output_adapter@D@__crt_stdio_output@@QAE@QAU_iobuf@@@Z 10027258 f i libucrt:output.obj
 0001:00026268       ??0?$stream_output_adapter@_W@__crt_stdio_output@@QAE@QAU_iobuf@@@Z 10027268 f i libucrt:output.obj
 0001:00026278       ??0?$string_output_adapter@D@__crt_stdio_output@@QAE@QAU?$string_output_adapter_context@D@1@@Z 10027278 f i libucrt:output.obj
 0001:00026288       ??0?$string_output_adapter@_W@__crt_stdio_output@@QAE@QAU?$string_output_adapter_context@_W@1@@Z 10027288 f i libucrt:output.obj
 0001:00026298       ??0__acrt_stdio_temporary_buffering_guard@@QAE@QAU_iobuf@@AAV__crt_cached_ptd_host@@@Z 10027298 f i libucrt:output.obj
 0001:000262bc       ??0__crt_stdio_stream@@QAE@QAU_iobuf@@@Z 100272bc f i libucrt:output.obj
 0001:000262cc       ??0formatting_buffer@__crt_stdio_output@@QAE@XZ 100272cc f i libucrt:output.obj
 0001:000262dd       ??0guard@?$cached@H@__crt_cached_ptd_host@@QAE@AAU12@@Z 100272dd f i libucrt:output.obj
 0001:000262fc       ??1?$c_string_character_source@D@__crt_strtox@@QAE@XZ 100272fc f i libucrt:output.obj
 0001:00026308       ??1?$c_string_character_source@_W@__crt_strtox@@QAE@XZ 10027308 f i libucrt:output.obj
 0001:00026314       ??1?$common_data@D@__crt_stdio_output@@QAE@XZ 10027314 f i libucrt:output.obj
 0001:0002631c       ??1?$common_data@_W@__crt_stdio_output@@QAE@XZ 1002731c f i libucrt:output.obj
 0001:00026324       ??1?$format_validation_base@DV?$stream_output_adapter@D@__crt_stdio_output@@@__crt_stdio_output@@QAE@XZ 10027324 f i libucrt:output.obj
 0001:0002632c       ??1?$format_validation_base@DV?$string_output_adapter@D@__crt_stdio_output@@@__crt_stdio_output@@QAE@XZ 1002732c f i libucrt:output.obj
 0001:00026334       ??1?$format_validation_base@_WV?$stream_output_adapter@_W@__crt_stdio_output@@@__crt_stdio_output@@QAE@XZ 10027334 f i libucrt:output.obj
 0001:0002633c       ??1?$format_validation_base@_WV?$string_output_adapter@_W@__crt_stdio_output@@@__crt_stdio_output@@QAE@XZ 1002733c f i libucrt:output.obj
 0001:00026344       ??1?$output_adapter_data@DV?$stream_output_adapter@D@__crt_stdio_output@@@__crt_stdio_output@@QAE@XZ 10027344 f i libucrt:output.obj
 0001:0002634c       ??1?$output_adapter_data@DV?$string_output_adapter@D@__crt_stdio_output@@@__crt_stdio_output@@QAE@XZ 1002734c f i libucrt:output.obj
 0001:00026354       ??1?$output_adapter_data@_WV?$stream_output_adapter@_W@__crt_stdio_output@@@__crt_stdio_output@@QAE@XZ 10027354 f i libucrt:output.obj
 0001:0002635c       ??1?$output_adapter_data@_WV?$string_output_adapter@_W@__crt_stdio_output@@@__crt_stdio_output@@QAE@XZ 1002735c f i libucrt:output.obj
 0001:00026364       ??1?$output_processor@DV?$stream_output_adapter@D@__crt_stdio_output@@V?$format_validation_base@DV?$stream_output_adapter@D@__crt_stdio_output@@@2@@__crt_stdio_output@@QAE@XZ 10027364 f i libucrt:output.obj
 0001:0002636c       ??1?$output_processor@DV?$stream_output_adapter@D@__crt_stdio_output@@V?$positional_parameter_base@DV?$stream_output_adapter@D@__crt_stdio_output@@@2@@__crt_stdio_output@@QAE@XZ 1002736c f i libucrt:output.obj
 0001:00026374       ??1?$output_processor@DV?$stream_output_adapter@D@__crt_stdio_output@@V?$standard_base@DV?$stream_output_adapter@D@__crt_stdio_output@@@2@@__crt_stdio_output@@QAE@XZ 10027374 f i libucrt:output.obj
 0001:0002637c       ??1?$output_processor@DV?$string_output_adapter@D@__crt_stdio_output@@V?$format_validation_base@DV?$string_output_adapter@D@__crt_stdio_output@@@2@@__crt_stdio_output@@QAE@XZ 1002737c f i libucrt:output.obj
 0001:00026384       ??1?$output_processor@DV?$string_output_adapter@D@__crt_stdio_output@@V?$positional_parameter_base@DV?$string_output_adapter@D@__crt_stdio_output@@@2@@__crt_stdio_output@@QAE@XZ 10027384 f i libucrt:output.obj
 0001:0002638c       ??1?$output_processor@DV?$string_output_adapter@D@__crt_stdio_output@@V?$standard_base@DV?$string_output_adapter@D@__crt_stdio_output@@@2@@__crt_stdio_output@@QAE@XZ 1002738c f i libucrt:output.obj
 0001:00026394       ??1?$output_processor@_WV?$stream_output_adapter@_W@__crt_stdio_output@@V?$format_validation_base@_WV?$stream_output_adapter@_W@__crt_stdio_output@@@2@@__crt_stdio_output@@QAE@XZ 10027394 f i libucrt:output.obj
 0001:0002639c       ??1?$output_processor@_WV?$stream_output_adapter@_W@__crt_stdio_output@@V?$positional_parameter_base@_WV?$stream_output_adapter@_W@__crt_stdio_output@@@2@@__crt_stdio_output@@QAE@XZ 1002739c f i libucrt:output.obj
 0001:000263a4       ??1?$output_processor@_WV?$stream_output_adapter@_W@__crt_stdio_output@@V?$standard_base@_WV?$stream_output_adapter@_W@__crt_stdio_output@@@2@@__crt_stdio_output@@QAE@XZ 100273a4 f i libucrt:output.obj
 0001:000263ac       ??1?$output_processor@_WV?$string_output_adapter@_W@__crt_stdio_output@@V?$format_validation_base@_WV?$string_output_adapter@_W@__crt_stdio_output@@@2@@__crt_stdio_output@@QAE@XZ 100273ac f i libucrt:output.obj
 0001:000263b4       ??1?$output_processor@_WV?$string_output_adapter@_W@__crt_stdio_output@@V?$positional_parameter_base@_WV?$string_output_adapter@_W@__crt_stdio_output@@@2@@__crt_stdio_output@@QAE@XZ 100273b4 f i libucrt:output.obj
 0001:000263bc       ??1?$output_processor@_WV?$string_output_adapter@_W@__crt_stdio_output@@V?$standard_base@_WV?$string_output_adapter@_W@__crt_stdio_output@@@2@@__crt_stdio_output@@QAE@XZ 100273bc f i libucrt:output.obj
 0001:000263c4       ??1?$positional_parameter_base@DV?$stream_output_adapter@D@__crt_stdio_output@@@__crt_stdio_output@@QAE@XZ 100273c4 f i libucrt:output.obj
 0001:000263cc       ??1?$positional_parameter_base@DV?$string_output_adapter@D@__crt_stdio_output@@@__crt_stdio_output@@QAE@XZ 100273cc f i libucrt:output.obj
 0001:000263d4       ??1?$positional_parameter_base@_WV?$stream_output_adapter@_W@__crt_stdio_output@@@__crt_stdio_output@@QAE@XZ 100273d4 f i libucrt:output.obj
 0001:000263dc       ??1?$positional_parameter_base@_WV?$string_output_adapter@_W@__crt_stdio_output@@@__crt_stdio_output@@QAE@XZ 100273dc f i libucrt:output.obj
 0001:000263e4       ??1?$standard_base@DV?$stream_output_adapter@D@__crt_stdio_output@@@__crt_stdio_output@@QAE@XZ 100273e4 f i libucrt:output.obj
 0001:000263ec       ??1?$standard_base@DV?$string_output_adapter@D@__crt_stdio_output@@@__crt_stdio_output@@QAE@XZ 100273ec f i libucrt:output.obj
 0001:000263f4       ??1?$standard_base@_WV?$stream_output_adapter@_W@__crt_stdio_output@@@__crt_stdio_output@@QAE@XZ 100273f4 f i libucrt:output.obj
 0001:000263fc       ??1?$standard_base@_WV?$string_output_adapter@_W@__crt_stdio_output@@@__crt_stdio_output@@QAE@XZ 100273fc f i libucrt:output.obj
 0001:00026404       ??1__acrt_stdio_temporary_buffering_guard@@QAE@XZ 10027404 f i libucrt:output.obj
 0001:00026417       ??1formatting_buffer@__crt_stdio_output@@QAE@XZ 10027417 f i libucrt:output.obj
 0001:00026431       ??1guard@?$cached@H@__crt_cached_ptd_host@@QAE@XZ 10027431 f i libucrt:output.obj
 0001:00026447       ??4?$__crt_unique_heap_ptr@DU__crt_internal_free_policy@@@@QAEAAV0@$$QAV0@@Z 10027447 f i libucrt:output.obj
 0001:0002646b       ??A?$spectre_mitigated_lookup_table@Ustate_transition_pair@__crt_stdio_output@@$0IA@@__crt_stdio_output@@QBEABUstate_transition_pair@1@I@Z 1002746b f i libucrt:output.obj
 0001:0002647d       ??C__crt_stdio_stream@@QBEPAU__crt_stdio_stream_data@@XZ 1002747d f i libucrt:output.obj
 0001:000268e6       ?adjust_hexit@?$output_processor@DV?$stream_output_adapter@D@__crt_stdio_output@@V?$format_validation_base@DV?$stream_output_adapter@D@__crt_stdio_output@@@2@@__crt_stdio_output@@CADH_N@Z 100278e6 f i libucrt:output.obj
 0001:000268fa       ?adjust_hexit@?$output_processor@DV?$stream_output_adapter@D@__crt_stdio_output@@V?$positional_parameter_base@DV?$stream_output_adapter@D@__crt_stdio_output@@@2@@__crt_stdio_output@@CADH_N@Z 100278fa f i libucrt:output.obj
 0001:0002690e       ?adjust_hexit@?$output_processor@DV?$stream_output_adapter@D@__crt_stdio_output@@V?$standard_base@DV?$stream_output_adapter@D@__crt_stdio_output@@@2@@__crt_stdio_output@@CADH_N@Z 1002790e f i libucrt:output.obj
 0001:00026922       ?adjust_hexit@?$output_processor@DV?$string_output_adapter@D@__crt_stdio_output@@V?$format_validation_base@DV?$string_output_adapter@D@__crt_stdio_output@@@2@@__crt_stdio_output@@CADH_N@Z 10027922 f i libucrt:output.obj
 0001:00026936       ?adjust_hexit@?$output_processor@DV?$string_output_adapter@D@__crt_stdio_output@@V?$positional_parameter_base@DV?$string_output_adapter@D@__crt_stdio_output@@@2@@__crt_stdio_output@@CADH_N@Z 10027936 f i libucrt:output.obj
 0001:0002694a       ?adjust_hexit@?$output_processor@DV?$string_output_adapter@D@__crt_stdio_output@@V?$standard_base@DV?$string_output_adapter@D@__crt_stdio_output@@@2@@__crt_stdio_output@@CADH_N@Z 1002794a f i libucrt:output.obj
 0001:0002695e       ?adjust_hexit@?$output_processor@_WV?$stream_output_adapter@_W@__crt_stdio_output@@V?$format_validation_base@_WV?$stream_output_adapter@_W@__crt_stdio_output@@@2@@__crt_stdio_output@@CADH_N@Z 1002795e f i libucrt:output.obj
 0001:00026972       ?adjust_hexit@?$output_processor@_WV?$stream_output_adapter@_W@__crt_stdio_output@@V?$positional_parameter_base@_WV?$stream_output_adapter@_W@__crt_stdio_output@@@2@@__crt_stdio_output@@CADH_N@Z 10027972 f i libucrt:output.obj
 0001:00026986       ?adjust_hexit@?$output_processor@_WV?$stream_output_adapter@_W@__crt_stdio_output@@V?$standard_base@_WV?$stream_output_adapter@_W@__crt_stdio_output@@@2@@__crt_stdio_output@@CADH_N@Z 10027986 f i libucrt:output.obj
 0001:0002699a       ?adjust_hexit@?$output_processor@_WV?$string_output_adapter@_W@__crt_stdio_output@@V?$format_validation_base@_WV?$string_output_adapter@_W@__crt_stdio_output@@@2@@__crt_stdio_output@@CADH_N@Z 1002799a f i libucrt:output.obj
 0001:000269ae       ?adjust_hexit@?$output_processor@_WV?$string_output_adapter@_W@__crt_stdio_output@@V?$positional_parameter_base@_WV?$string_output_adapter@_W@__crt_stdio_output@@@2@@__crt_stdio_output@@CADH_N@Z 100279ae f i libucrt:output.obj
 0001:000269c2       ?adjust_hexit@?$output_processor@_WV?$string_output_adapter@_W@__crt_stdio_output@@V?$standard_base@_WV?$string_output_adapter@_W@__crt_stdio_output@@@2@@__crt_stdio_output@@CADH_N@Z 100279c2 f i libucrt:output.obj
 0001:000269d6       ?advance_to_next_pass@?$positional_parameter_base@DV?$stream_output_adapter@D@__crt_stdio_output@@@__crt_stdio_output@@IAE_NXZ 100279d6 f i libucrt:output.obj
 0001:00026a24       ?advance_to_next_pass@?$positional_parameter_base@DV?$string_output_adapter@D@__crt_stdio_output@@@__crt_stdio_output@@IAE_NXZ 10027a24 f i libucrt:output.obj
 0001:00026a72       ?advance_to_next_pass@?$positional_parameter_base@_WV?$stream_output_adapter@_W@__crt_stdio_output@@@__crt_stdio_output@@IAE_NXZ 10027a72 f i libucrt:output.obj
 0001:00026ac0       ?advance_to_next_pass@?$positional_parameter_base@_WV?$string_output_adapter@_W@__crt_stdio_output@@@__crt_stdio_output@@IAE_NXZ 10027ac0 f i libucrt:output.obj
 0001:00026b0e       ?advance_to_next_pass@?$standard_base@DV?$stream_output_adapter@D@__crt_stdio_output@@@__crt_stdio_output@@IAE_NXZ 10027b0e f i libucrt:output.obj
 0001:00026b1f       ?advance_to_next_pass@?$standard_base@DV?$string_output_adapter@D@__crt_stdio_output@@@__crt_stdio_output@@IAE_NXZ 10027b1f f i libucrt:output.obj
 0001:00026b30       ?advance_to_next_pass@?$standard_base@_WV?$stream_output_adapter@_W@__crt_stdio_output@@@__crt_stdio_output@@IAE_NXZ 10027b30 f i libucrt:output.obj
 0001:00026b41       ?advance_to_next_pass@?$standard_base@_WV?$string_output_adapter@_W@__crt_stdio_output@@@__crt_stdio_output@@IAE_NXZ 10027b41 f i libucrt:output.obj
 0001:00026b52       ?check@?$cached@H@__crt_cached_ptd_host@@QBE_NH@Z 10027b52 f i libucrt:output.obj
 0001:00026b6e       ?create_guard@?$cached@H@__crt_cached_ptd_host@@QAE?AVguard@12@XZ 10027b6e f i libucrt:output.obj
 0001:00026b8b       ?crop_zeroes@__crt_stdio_output@@YAXPADQAU__crt_locale_pointers@@@Z 10027b8b f i libucrt:output.obj
 0001:00026beb       ?disable@guard@?$cached@H@__crt_cached_ptd_host@@QAEXXZ 10027beb f i libucrt:output.obj
 0001:00026bf0       ?enable@guard@?$cached@H@__crt_cached_ptd_host@@QAEXXZ 10027bf0 f i libucrt:output.obj
 0001:00026bf5       ?find_next_state@?$output_processor@DV?$stream_output_adapter@D@__crt_stdio_output@@V?$format_validation_base@DV?$stream_output_adapter@D@__crt_stdio_output@@@2@@__crt_stdio_output@@ABE?AW4state@2@DW432@@Z 10027bf5 f i libucrt:output.obj
 0001:00026c32       ?find_next_state@?$output_processor@DV?$stream_output_adapter@D@__crt_stdio_output@@V?$positional_parameter_base@DV?$stream_output_adapter@D@__crt_stdio_output@@@2@@__crt_stdio_output@@ABE?AW4state@2@DW432@@Z 10027c32 f i libucrt:output.obj
 0001:00026c6f       ?find_next_state@?$output_processor@DV?$stream_output_adapter@D@__crt_stdio_output@@V?$standard_base@DV?$stream_output_adapter@D@__crt_stdio_output@@@2@@__crt_stdio_output@@ABE?AW4state@2@DW432@@Z 10027c6f f i libucrt:output.obj
 0001:00026caa       ?find_next_state@?$output_processor@DV?$string_output_adapter@D@__crt_stdio_output@@V?$format_validation_base@DV?$string_output_adapter@D@__crt_stdio_output@@@2@@__crt_stdio_output@@ABE?AW4state@2@DW432@@Z 10027caa f i libucrt:output.obj
 0001:00026ce7       ?find_next_state@?$output_processor@DV?$string_output_adapter@D@__crt_stdio_output@@V?$positional_parameter_base@DV?$string_output_adapter@D@__crt_stdio_output@@@2@@__crt_stdio_output@@ABE?AW4state@2@DW432@@Z 10027ce7 f i libucrt:output.obj
 0001:00026d24       ?find_next_state@?$output_processor@DV?$string_output_adapter@D@__crt_stdio_output@@V?$standard_base@DV?$string_output_adapter@D@__crt_stdio_output@@@2@@__crt_stdio_output@@ABE?AW4state@2@DW432@@Z 10027d24 f i libucrt:output.obj
 0001:00026d5f       ?find_next_state@?$output_processor@_WV?$stream_output_adapter@_W@__crt_stdio_output@@V?$format_validation_base@_WV?$stream_output_adapter@_W@__crt_stdio_output@@@2@@__crt_stdio_output@@ABE?AW4state@2@_WW432@@Z 10027d5f f i libucrt:output.obj
 0001:00026d9b       ?find_next_state@?$output_processor@_WV?$stream_output_adapter@_W@__crt_stdio_output@@V?$positional_parameter_base@_WV?$stream_output_adapter@_W@__crt_stdio_output@@@2@@__crt_stdio_output@@ABE?AW4state@2@_WW432@@Z 10027d9b f i libucrt:output.obj
 0001:00026dd7       ?find_next_state@?$output_processor@_WV?$stream_output_adapter@_W@__crt_stdio_output@@V?$standard_base@_WV?$stream_output_adapter@_W@__crt_stdio_output@@@2@@__crt_stdio_output@@ABE?AW4state@2@_WW432@@Z 10027dd7 f i libucrt:output.obj
 0001:00026e11       ?find_next_state@?$output_processor@_WV?$string_output_adapter@_W@__crt_stdio_output@@V?$format_validation_base@_WV?$string_output_adapter@_W@__crt_stdio_output@@@2@@__crt_stdio_output@@ABE?AW4state@2@_WW432@@Z 10027e11 f i libucrt:output.obj
 0001:00026e4d       ?find_next_state@?$output_processor@_WV?$string_output_adapter@_W@__crt_stdio_output@@V?$positional_parameter_base@_WV?$string_output_adapter@_W@__crt_stdio_output@@@2@@__crt_stdio_output@@ABE?AW4state@2@_WW432@@Z 10027e4d f i libucrt:output.obj
 0001:00026e89       ?find_next_state@?$output_processor@_WV?$string_output_adapter@_W@__crt_stdio_output@@V?$standard_base@_WV?$string_output_adapter@_W@__crt_stdio_output@@@2@@__crt_stdio_output@@ABE?AW4state@2@_WW432@@Z 10027e89 f i libucrt:output.obj
 0001:00026ec3       ?force_decimal_point@__crt_stdio_output@@YAXPADQAU__crt_locale_pointers@@@Z 10027ec3 f i libucrt:output.obj
 0001:00026f1f       ?get@?$c_string_character_source@D@__crt_strtox@@QAEDXZ 10027f1f f i libucrt:output.obj
 0001:00026f27       ?get@?$c_string_character_source@_W@__crt_strtox@@QAE_WXZ 10027f27 f i libucrt:output.obj
 0001:00026f32       ?get_flags@__crt_stdio_stream@@QBEJXZ 10027f32 f i libucrt:output.obj
 0001:00026f40       ?get_locale@__crt_cached_ptd_host@@QAEPAU__crt_locale_pointers@@XZ 10027f40 f i libucrt:output.obj
 0001:00026f55       ?get_parameter_type@?$positional_parameter_base@DV?$stream_output_adapter@D@__crt_stdio_output@@@__crt_stdio_output@@CA?AW4parameter_type@12@F@Z 10027f55 f i libucrt:output.obj
 0001:00026f59       ?get_parameter_type@?$positional_parameter_base@DV?$stream_output_adapter@D@__crt_stdio_output@@@__crt_stdio_output@@CA?AW4parameter_type@12@G@Z 10027f59 f i libucrt:output.obj
 0001:00026f5d       ?get_parameter_type@?$positional_parameter_base@DV?$stream_output_adapter@D@__crt_stdio_output@@@__crt_stdio_output@@CA?AW4parameter_type@12@H@Z 10027f5d f i libucrt:output.obj
 0001:00026f61       ?get_parameter_type@?$positional_parameter_base@DV?$stream_output_adapter@D@__crt_stdio_output@@@__crt_stdio_output@@CA?AW4parameter_type@12@I@Z 10027f61 f i libucrt:output.obj
 0001:00026f65       ?get_parameter_type@?$positional_parameter_base@DV?$stream_output_adapter@D@__crt_stdio_output@@@__crt_stdio_output@@CA?AW4parameter_type@12@U_CRT_DOUBLE@@@Z 10027f65 f i libucrt:output.obj
 0001:00026f69       ?get_parameter_type@?$positional_parameter_base@DV?$stream_output_adapter@D@__crt_stdio_output@@@__crt_stdio_output@@CA?AW4parameter_type@12@_J@Z 10027f69 f i libucrt:output.obj
 0001:00026f6d       ?get_parameter_type@?$positional_parameter_base@DV?$stream_output_adapter@D@__crt_stdio_output@@@__crt_stdio_output@@CA?AW4parameter_type@12@_K@Z 10027f6d f i libucrt:output.obj
 0001:00026f71       ?get_parameter_type@?$positional_parameter_base@DV?$stream_output_adapter@D@__crt_stdio_output@@@__crt_stdio_output@@CA?AW4parameter_type@12@_W@Z 10027f71 f i libucrt:output.obj
 0001:00026f75       ?get_parameter_type@?$positional_parameter_base@DV?$string_output_adapter@D@__crt_stdio_output@@@__crt_stdio_output@@CA?AW4parameter_type@12@F@Z 10027f75 f i libucrt:output.obj
 0001:00026f79       ?get_parameter_type@?$positional_parameter_base@DV?$string_output_adapter@D@__crt_stdio_output@@@__crt_stdio_output@@CA?AW4parameter_type@12@G@Z 10027f79 f i libucrt:output.obj
 0001:00026f7d       ?get_parameter_type@?$positional_parameter_base@DV?$string_output_adapter@D@__crt_stdio_output@@@__crt_stdio_output@@CA?AW4parameter_type@12@H@Z 10027f7d f i libucrt:output.obj
 0001:00026f81       ?get_parameter_type@?$positional_parameter_base@DV?$string_output_adapter@D@__crt_stdio_output@@@__crt_stdio_output@@CA?AW4parameter_type@12@I@Z 10027f81 f i libucrt:output.obj
 0001:00026f85       ?get_parameter_type@?$positional_parameter_base@DV?$string_output_adapter@D@__crt_stdio_output@@@__crt_stdio_output@@CA?AW4parameter_type@12@U_CRT_DOUBLE@@@Z 10027f85 f i libucrt:output.obj
 0001:00026f89       ?get_parameter_type@?$positional_parameter_base@DV?$string_output_adapter@D@__crt_stdio_output@@@__crt_stdio_output@@CA?AW4parameter_type@12@_J@Z 10027f89 f i libucrt:output.obj
 0001:00026f8d       ?get_parameter_type@?$positional_parameter_base@DV?$string_output_adapter@D@__crt_stdio_output@@@__crt_stdio_output@@CA?AW4parameter_type@12@_K@Z 10027f8d f i libucrt:output.obj
 0001:00026f91       ?get_parameter_type@?$positional_parameter_base@DV?$string_output_adapter@D@__crt_stdio_output@@@__crt_stdio_output@@CA?AW4parameter_type@12@_W@Z 10027f91 f i libucrt:output.obj
 0001:00026f95       ?get_parameter_type@?$positional_parameter_base@_WV?$stream_output_adapter@_W@__crt_stdio_output@@@__crt_stdio_output@@CA?AW4parameter_type@12@F@Z 10027f95 f i libucrt:output.obj
 0001:00026f99       ?get_parameter_type@?$positional_parameter_base@_WV?$stream_output_adapter@_W@__crt_stdio_output@@@__crt_stdio_output@@CA?AW4parameter_type@12@G@Z 10027f99 f i libucrt:output.obj
 0001:00026f9d       ?get_parameter_type@?$positional_parameter_base@_WV?$stream_output_adapter@_W@__crt_stdio_output@@@__crt_stdio_output@@CA?AW4parameter_type@12@H@Z 10027f9d f i libucrt:output.obj
 0001:00026fa1       ?get_parameter_type@?$positional_parameter_base@_WV?$stream_output_adapter@_W@__crt_stdio_output@@@__crt_stdio_output@@CA?AW4parameter_type@12@I@Z 10027fa1 f i libucrt:output.obj
 0001:00026fa5       ?get_parameter_type@?$positional_parameter_base@_WV?$stream_output_adapter@_W@__crt_stdio_output@@@__crt_stdio_output@@CA?AW4parameter_type@12@U_CRT_DOUBLE@@@Z 10027fa5 f i libucrt:output.obj
 0001:00026fa9       ?get_parameter_type@?$positional_parameter_base@_WV?$stream_output_adapter@_W@__crt_stdio_output@@@__crt_stdio_output@@CA?AW4parameter_type@12@_J@Z 10027fa9 f i libucrt:output.obj
 0001:00026fad       ?get_parameter_type@?$positional_parameter_base@_WV?$stream_output_adapter@_W@__crt_stdio_output@@@__crt_stdio_output@@CA?AW4parameter_type@12@_K@Z 10027fad f i libucrt:output.obj
 0001:00026fb1       ?get_parameter_type@?$positional_parameter_base@_WV?$stream_output_adapter@_W@__crt_stdio_output@@@__crt_stdio_output@@CA?AW4parameter_type@12@_W@Z 10027fb1 f i libucrt:output.obj
 0001:00026fb5       ?get_parameter_type@?$positional_parameter_base@_WV?$string_output_adapter@_W@__crt_stdio_output@@@__crt_stdio_output@@CA?AW4parameter_type@12@F@Z 10027fb5 f i libucrt:output.obj
 0001:00026fb9       ?get_parameter_type@?$positional_parameter_base@_WV?$string_output_adapter@_W@__crt_stdio_output@@@__crt_stdio_output@@CA?AW4parameter_type@12@G@Z 10027fb9 f i libucrt:output.obj
 0001:00026fbd       ?get_parameter_type@?$positional_parameter_base@_WV?$string_output_adapter@_W@__crt_stdio_output@@@__crt_stdio_output@@CA?AW4parameter_type@12@H@Z 10027fbd f i libucrt:output.obj
 0001:00026fc1       ?get_parameter_type@?$positional_parameter_base@_WV?$string_output_adapter@_W@__crt_stdio_output@@@__crt_stdio_output@@CA?AW4parameter_type@12@I@Z 10027fc1 f i libucrt:output.obj
 0001:00026fc5       ?get_parameter_type@?$positional_parameter_base@_WV?$string_output_adapter@_W@__crt_stdio_output@@@__crt_stdio_output@@CA?AW4parameter_type@12@U_CRT_DOUBLE@@@Z 10027fc5 f i libucrt:output.obj
 0001:00026fc9       ?get_parameter_type@?$positional_parameter_base@_WV?$string_output_adapter@_W@__crt_stdio_output@@@__crt_stdio_output@@CA?AW4parameter_type@12@_J@Z 10027fc9 f i libucrt:output.obj
 0001:00026fcd       ?get_parameter_type@?$positional_parameter_base@_WV?$string_output_adapter@_W@__crt_stdio_output@@@__crt_stdio_output@@CA?AW4parameter_type@12@_K@Z 10027fcd f i libucrt:output.obj
 0001:00026fd1       ?get_parameter_type@?$positional_parameter_base@_WV?$string_output_adapter@_W@__crt_stdio_output@@@__crt_stdio_output@@CA?AW4parameter_type@12@_W@Z 10027fd1 f i libucrt:output.obj
 0001:00026fd5       ?has_flag@?$output_processor@DV?$stream_output_adapter@D@__crt_stdio_output@@V?$format_validation_base@DV?$stream_output_adapter@D@__crt_stdio_output@@@2@@__crt_stdio_output@@ABE_NI@Z 10027fd5 f i libucrt:output.obj
 0001:00026fe7       ?has_flag@?$output_processor@DV?$stream_output_adapter@D@__crt_stdio_output@@V?$positional_parameter_base@DV?$stream_output_adapter@D@__crt_stdio_output@@@2@@__crt_stdio_output@@ABE_NI@Z 10027fe7 f i libucrt:output.obj
 0001:00026ff9       ?has_flag@?$output_processor@DV?$stream_output_adapter@D@__crt_stdio_output@@V?$standard_base@DV?$stream_output_adapter@D@__crt_stdio_output@@@2@@__crt_stdio_output@@ABE_NI@Z 10027ff9 f i libucrt:output.obj
 0001:0002700b       ?has_flag@?$output_processor@DV?$string_output_adapter@D@__crt_stdio_output@@V?$format_validation_base@DV?$string_output_adapter@D@__crt_stdio_output@@@2@@__crt_stdio_output@@ABE_NI@Z 1002800b f i libucrt:output.obj
 0001:0002701d       ?has_flag@?$output_processor@DV?$string_output_adapter@D@__crt_stdio_output@@V?$positional_parameter_base@DV?$string_output_adapter@D@__crt_stdio_output@@@2@@__crt_stdio_output@@ABE_NI@Z 1002801d f i libucrt:output.obj
 0001:0002702f       ?has_flag@?$output_processor@DV?$string_output_adapter@D@__crt_stdio_output@@V?$standard_base@DV?$string_output_adapter@D@__crt_stdio_output@@@2@@__crt_stdio_output@@ABE_NI@Z 1002802f f i libucrt:output.obj
 0001:00027041       ?has_flag@?$output_processor@_WV?$stream_output_adapter@_W@__crt_stdio_output@@V?$format_validation_base@_WV?$stream_output_adapter@_W@__crt_stdio_output@@@2@@__crt_stdio_output@@ABE_NI@Z 10028041 f i libucrt:output.obj
 0001:00027053       ?has_flag@?$output_processor@_WV?$stream_output_adapter@_W@__crt_stdio_output@@V?$positional_parameter_base@_WV?$stream_output_adapter@_W@__crt_stdio_output@@@2@@__crt_stdio_output@@ABE_NI@Z 10028053 f i libucrt:output.obj
 0001:00027065       ?has_flag@?$output_processor@_WV?$stream_output_adapter@_W@__crt_stdio_output@@V?$standard_base@_WV?$stream_output_adapter@_W@__crt_stdio_output@@@2@@__crt_stdio_output@@ABE_NI@Z 10028065 f i libucrt:output.obj
 0001:00027077       ?has_flag@?$output_processor@_WV?$string_output_adapter@_W@__crt_stdio_output@@V?$format_validation_base@_WV?$string_output_adapter@_W@__crt_stdio_output@@@2@@__crt_stdio_output@@ABE_NI@Z 10028077 f i libucrt:output.obj
 0001:00027089       ?has_flag@?$output_processor@_WV?$string_output_adapter@_W@__crt_stdio_output@@V?$positional_parameter_base@_WV?$string_output_adapter@_W@__crt_stdio_output@@@2@@__crt_stdio_output@@ABE_NI@Z 10028089 f i libucrt:output.obj
 0001:0002709b       ?has_flag@?$output_processor@_WV?$string_output_adapter@_W@__crt_stdio_output@@V?$standard_base@_WV?$string_output_adapter@_W@__crt_stdio_output@@@2@@__crt_stdio_output@@ABE_NI@Z 1002809b f i libucrt:output.obj
 0001:000270ad       ?is_positional_parameter_reappearance_consistent@?$positional_parameter_base@DV?$stream_output_adapter@D@__crt_stdio_output@@@__crt_stdio_output@@AAE_NABUparameter_data@12@W4parameter_type@12@DW4length_modifier@2@@Z 100280ad f i libucrt:output.obj
 0001:000271c7       ?is_positional_parameter_reappearance_consistent@?$positional_parameter_base@DV?$string_output_adapter@D@__crt_stdio_output@@@__crt_stdio_output@@AAE_NABUparameter_data@12@W4parameter_type@12@DW4length_modifier@2@@Z 100281c7 f i libucrt:output.obj
 0001:000272e1       ?is_positional_parameter_reappearance_consistent@?$positional_parameter_base@_WV?$stream_output_adapter@_W@__crt_stdio_output@@@__crt_stdio_output@@AAE_NABUparameter_data@12@W4parameter_type@12@_WW4length_modifier@2@@Z 100282e1 f i libucrt:output.obj
 0001:000273fc       ?is_positional_parameter_reappearance_consistent@?$positional_parameter_base@_WV?$string_output_adapter@_W@__crt_stdio_output@@@__crt_stdio_output@@AAE_NABUparameter_data@12@W4parameter_type@12@_WW4length_modifier@2@@Z 100283fc f i libucrt:output.obj
 0001:00027517       ?is_string_backed@__crt_stdio_stream@@QBE_NXZ 10028517 f i libucrt:output.obj
 0001:00027523       ?maximum_signed_value@__crt_strtox@@YAJK@Z 10028523 f i libucrt:output.obj
 0001:00027529       ?minimum_signed_value@__crt_strtox@@YAJK@Z 10028529 f i libucrt:output.obj
 0001:0002752f       ?narrow_null_string@?$output_processor@DV?$stream_output_adapter@D@__crt_stdio_output@@V?$format_validation_base@DV?$stream_output_adapter@D@__crt_stdio_output@@@2@@__crt_stdio_output@@CAPADXZ 1002852f f i libucrt:output.obj
 0001:00027535       ?narrow_null_string@?$output_processor@DV?$stream_output_adapter@D@__crt_stdio_output@@V?$positional_parameter_base@DV?$stream_output_adapter@D@__crt_stdio_output@@@2@@__crt_stdio_output@@CAPADXZ 10028535 f i libucrt:output.obj
 0001:0002753b       ?narrow_null_string@?$output_processor@DV?$stream_output_adapter@D@__crt_stdio_output@@V?$standard_base@DV?$stream_output_adapter@D@__crt_stdio_output@@@2@@__crt_stdio_output@@CAPADXZ 1002853b f i libucrt:output.obj
 0001:00027541       ?narrow_null_string@?$output_processor@DV?$string_output_adapter@D@__crt_stdio_output@@V?$format_validation_base@DV?$string_output_adapter@D@__crt_stdio_output@@@2@@__crt_stdio_output@@CAPADXZ 10028541 f i libucrt:output.obj
 0001:00027547       ?narrow_null_string@?$output_processor@DV?$string_output_adapter@D@__crt_stdio_output@@V?$positional_parameter_base@DV?$string_output_adapter@D@__crt_stdio_output@@@2@@__crt_stdio_output@@CAPADXZ 10028547 f i libucrt:output.obj
 0001:0002754d       ?narrow_null_string@?$output_processor@DV?$string_output_adapter@D@__crt_stdio_output@@V?$standard_base@DV?$string_output_adapter@D@__crt_stdio_output@@@2@@__crt_stdio_output@@CAPADXZ 1002854d f i libucrt:output.obj
 0001:00027553       ?narrow_null_string@?$output_processor@_WV?$stream_output_adapter@_W@__crt_stdio_output@@V?$format_validation_base@_WV?$stream_output_adapter@_W@__crt_stdio_output@@@2@@__crt_stdio_output@@CAPADXZ 10028553 f i libucrt:output.obj
 0001:00027559       ?narrow_null_string@?$output_processor@_WV?$stream_output_adapter@_W@__crt_stdio_output@@V?$positional_parameter_base@_WV?$stream_output_adapter@_W@__crt_stdio_output@@@2@@__crt_stdio_output@@CAPADXZ 10028559 f i libucrt:output.obj
 0001:0002755f       ?narrow_null_string@?$output_processor@_WV?$stream_output_adapter@_W@__crt_stdio_output@@V?$standard_base@_WV?$stream_output_adapter@_W@__crt_stdio_output@@@2@@__crt_stdio_output@@CAPADXZ 1002855f f i libucrt:output.obj
 0001:00027565       ?narrow_null_string@?$output_processor@_WV?$string_output_adapter@_W@__crt_stdio_output@@V?$format_validation_base@_WV?$string_output_adapter@_W@__crt_stdio_output@@@2@@__crt_stdio_output@@CAPADXZ 10028565 f i libucrt:output.obj
 0001:0002756b       ?narrow_null_string@?$output_processor@_WV?$string_output_adapter@_W@__crt_stdio_output@@V?$positional_parameter_base@_WV?$string_output_adapter@_W@__crt_stdio_output@@@2@@__crt_stdio_output@@CAPADXZ 1002856b f i libucrt:output.obj
 0001:00027571       ?narrow_null_string@?$output_processor@_WV?$string_output_adapter@_W@__crt_stdio_output@@V?$standard_base@_WV?$string_output_adapter@_W@__crt_stdio_output@@@2@@__crt_stdio_output@@CAPADXZ 10028571 f i libucrt:output.obj
 0001:00027577       ?parse_digit@__crt_strtox@@YAID@Z 10028577 f i libucrt:output.obj
 0001:000275b1       ?parse_digit@__crt_strtox@@YAI_W@Z 100285b1 f i libucrt:output.obj
 0001:00027779       ?parse_int_from_format_string@?$output_processor@DV?$stream_output_adapter@D@__crt_stdio_output@@V?$format_validation_base@DV?$stream_output_adapter@D@__crt_stdio_output@@@2@@__crt_stdio_output@@AAE_NQAH@Z 10028779 f i libucrt:output.obj
 0001:000277f1       ?parse_int_from_format_string@?$output_processor@DV?$stream_output_adapter@D@__crt_stdio_output@@V?$positional_parameter_base@DV?$stream_output_adapter@D@__crt_stdio_output@@@2@@__crt_stdio_output@@AAE_NQAH@Z 100287f1 f i libucrt:output.obj
 0001:00027869       ?parse_int_from_format_string@?$output_processor@DV?$stream_output_adapter@D@__crt_stdio_output@@V?$standard_base@DV?$stream_output_adapter@D@__crt_stdio_output@@@2@@__crt_stdio_output@@AAE_NQAH@Z 10028869 f i libucrt:output.obj
 0001:000278e1       ?parse_int_from_format_string@?$output_processor@DV?$string_output_adapter@D@__crt_stdio_output@@V?$format_validation_base@DV?$string_output_adapter@D@__crt_stdio_output@@@2@@__crt_stdio_output@@AAE_NQAH@Z 100288e1 f i libucrt:output.obj
 0001:00027959       ?parse_int_from_format_string@?$output_processor@DV?$string_output_adapter@D@__crt_stdio_output@@V?$positional_parameter_base@DV?$string_output_adapter@D@__crt_stdio_output@@@2@@__crt_stdio_output@@AAE_NQAH@Z 10028959 f i libucrt:output.obj
 0001:000279d1       ?parse_int_from_format_string@?$output_processor@DV?$string_output_adapter@D@__crt_stdio_output@@V?$standard_base@DV?$string_output_adapter@D@__crt_stdio_output@@@2@@__crt_stdio_output@@AAE_NQAH@Z 100289d1 f i libucrt:output.obj
 0001:00027a49       ?parse_int_from_format_string@?$output_processor@_WV?$stream_output_adapter@_W@__crt_stdio_output@@V?$format_validation_base@_WV?$stream_output_adapter@_W@__crt_stdio_output@@@2@@__crt_stdio_output@@AAE_NQAH@Z 10028a49 f i libucrt:output.obj
 0001:00027ac3       ?parse_int_from_format_string@?$output_processor@_WV?$stream_output_adapter@_W@__crt_stdio_output@@V?$positional_parameter_base@_WV?$stream_output_adapter@_W@__crt_stdio_output@@@2@@__crt_stdio_output@@AAE_NQAH@Z 10028ac3 f i libucrt:output.obj
 0001:00027b3d       ?parse_int_from_format_string@?$output_processor@_WV?$stream_output_adapter@_W@__crt_stdio_output@@V?$standard_base@_WV?$stream_output_adapter@_W@__crt_stdio_output@@@2@@__crt_stdio_output@@AAE_NQAH@Z 10028b3d f i libucrt:output.obj
 0001:00027bb7       ?parse_int_from_format_string@?$output_processor@_WV?$string_output_adapter@_W@__crt_stdio_output@@V?$format_validation_base@_WV?$string_output_adapter@_W@__crt_stdio_output@@@2@@__crt_stdio_output@@AAE_NQAH@Z 10028bb7 f i libucrt:output.obj
 0001:00027c31       ?parse_int_from_format_string@?$output_processor@_WV?$string_output_adapter@_W@__crt_stdio_output@@V?$positional_parameter_base@_WV?$string_output_adapter@_W@__crt_stdio_output@@@2@@__crt_stdio_output@@AAE_NQAH@Z 10028c31 f i libucrt:output.obj
 0001:00027cab       ?parse_int_from_format_string@?$output_processor@_WV?$string_output_adapter@_W@__crt_stdio_output@@V?$standard_base@_WV?$string_output_adapter@_W@__crt_stdio_output@@@2@@__crt_stdio_output@@AAE_NQAH@Z 10028cab f i libucrt:output.obj
 0001:00027d25       ?process@?$output_processor@DV?$stream_output_adapter@D@__crt_stdio_output@@V?$format_validation_base@DV?$stream_output_adapter@D@__crt_stdio_output@@@2@@__crt_stdio_output@@QAEHXZ 10028d25 f i libucrt:output.obj
 0001:00027fe5       ?process@?$output_processor@DV?$stream_output_adapter@D@__crt_stdio_output@@V?$positional_parameter_base@DV?$stream_output_adapter@D@__crt_stdio_output@@@2@@__crt_stdio_output@@QAEHXZ 10028fe5 f i libucrt:output.obj
 0001:000282b9       ?process@?$output_processor@DV?$stream_output_adapter@D@__crt_stdio_output@@V?$standard_base@DV?$stream_output_adapter@D@__crt_stdio_output@@@2@@__crt_stdio_output@@QAEHXZ 100292b9 f i libucrt:output.obj
 0001:00028569       ?process@?$output_processor@DV?$string_output_adapter@D@__crt_stdio_output@@V?$format_validation_base@DV?$string_output_adapter@D@__crt_stdio_output@@@2@@__crt_stdio_output@@QAEHXZ 10029569 f i libucrt:output.obj
 0001:0002884d       ?process@?$output_processor@DV?$string_output_adapter@D@__crt_stdio_output@@V?$positional_parameter_base@DV?$string_output_adapter@D@__crt_stdio_output@@@2@@__crt_stdio_output@@QAEHXZ 1002984d f i libucrt:output.obj
 0001:00028b4d       ?process@?$output_processor@DV?$string_output_adapter@D@__crt_stdio_output@@V?$standard_base@DV?$string_output_adapter@D@__crt_stdio_output@@@2@@__crt_stdio_output@@QAEHXZ 10029b4d f i libucrt:output.obj
 0001:00028e21       ?process@?$output_processor@_WV?$stream_output_adapter@_W@__crt_stdio_output@@V?$format_validation_base@_WV?$stream_output_adapter@_W@__crt_stdio_output@@@2@@__crt_stdio_output@@QAEHXZ 10029e21 f i libucrt:output.obj
 0001:0002903d       ?process@?$output_processor@_WV?$stream_output_adapter@_W@__crt_stdio_output@@V?$positional_parameter_base@_WV?$stream_output_adapter@_W@__crt_stdio_output@@@2@@__crt_stdio_output@@QAEHXZ 1002a03d f i libucrt:output.obj
 0001:00029291       ?process@?$output_processor@_WV?$stream_output_adapter@_W@__crt_stdio_output@@V?$standard_base@_WV?$stream_output_adapter@_W@__crt_stdio_output@@@2@@__crt_stdio_output@@QAEHXZ 1002a291 f i libucrt:output.obj
 0001:000294a1       ?process@?$output_processor@_WV?$string_output_adapter@_W@__crt_stdio_output@@V?$format_validation_base@_WV?$string_output_adapter@_W@__crt_stdio_output@@@2@@__crt_stdio_output@@QAEHXZ 1002a4a1 f i libucrt:output.obj
 0001:000296e1       ?process@?$output_processor@_WV?$string_output_adapter@_W@__crt_stdio_output@@V?$positional_parameter_base@_WV?$string_output_adapter@_W@__crt_stdio_output@@@2@@__crt_stdio_output@@QAEHXZ 1002a6e1 f i libucrt:output.obj
 0001:00029949       ?process@?$output_processor@_WV?$string_output_adapter@_W@__crt_stdio_output@@V?$standard_base@_WV?$string_output_adapter@_W@__crt_stdio_output@@@2@@__crt_stdio_output@@QAEHXZ 1002a949 f i libucrt:output.obj
 0001:00029b85       ?public_stream@__crt_stdio_stream@@QBEPAU_iobuf@@XZ 1002ab85 f i libucrt:output.obj
 0001:00029b88       ?restore_state@?$c_string_character_source@D@__crt_strtox@@QAE_NQBD@Z 1002ab88 f i libucrt:output.obj
 0001:00029b98       ?restore_state@?$c_string_character_source@_W@__crt_strtox@@QAE_NQB_W@Z 1002ab98 f i libucrt:output.obj
 0001:00029ba8       ?save_state@?$c_string_character_source@D@__crt_strtox@@QBEPBDXZ 1002aba8 f i libucrt:output.obj
 0001:00029bab       ?save_state@?$c_string_character_source@_W@__crt_strtox@@QBEPB_WXZ 1002abab f i libucrt:output.obj
 0001:00029bae       ?set_flag@?$output_processor@DV?$stream_output_adapter@D@__crt_stdio_output@@V?$format_validation_base@DV?$stream_output_adapter@D@__crt_stdio_output@@@2@@__crt_stdio_output@@AAEXI@Z 1002abae f i libucrt:output.obj
 0001:00029bbd       ?set_flag@?$output_processor@DV?$stream_output_adapter@D@__crt_stdio_output@@V?$positional_parameter_base@DV?$stream_output_adapter@D@__crt_stdio_output@@@2@@__crt_stdio_output@@AAEXI@Z 1002abbd f i libucrt:output.obj
 0001:00029bcc       ?set_flag@?$output_processor@DV?$stream_output_adapter@D@__crt_stdio_output@@V?$standard_base@DV?$stream_output_adapter@D@__crt_stdio_output@@@2@@__crt_stdio_output@@AAEXI@Z 1002abcc f i libucrt:output.obj
 0001:00029bdb       ?set_flag@?$output_processor@DV?$string_output_adapter@D@__crt_stdio_output@@V?$format_validation_base@DV?$string_output_adapter@D@__crt_stdio_output@@@2@@__crt_stdio_output@@AAEXI@Z 1002abdb f i libucrt:output.obj
 0001:00029bea       ?set_flag@?$output_processor@DV?$string_output_adapter@D@__crt_stdio_output@@V?$positional_parameter_base@DV?$string_output_adapter@D@__crt_stdio_output@@@2@@__crt_stdio_output@@AAEXI@Z 1002abea f i libucrt:output.obj
 0001:00029bf9       ?set_flag@?$output_processor@DV?$string_output_adapter@D@__crt_stdio_output@@V?$standard_base@DV?$string_output_adapter@D@__crt_stdio_output@@@2@@__crt_stdio_output@@AAEXI@Z 1002abf9 f i libucrt:output.obj
 0001:00029c08       ?set_flag@?$output_processor@_WV?$stream_output_adapter@_W@__crt_stdio_output@@V?$format_validation_base@_WV?$stream_output_adapter@_W@__crt_stdio_output@@@2@@__crt_stdio_output@@AAEXI@Z 1002ac08 f i libucrt:output.obj
 0001:00029c17       ?set_flag@?$output_processor@_WV?$stream_output_adapter@_W@__crt_stdio_output@@V?$positional_parameter_base@_WV?$stream_output_adapter@_W@__crt_stdio_output@@@2@@__crt_stdio_output@@AAEXI@Z 1002ac17 f i libucrt:output.obj
 0001:00029c26       ?set_flag@?$output_processor@_WV?$stream_output_adapter@_W@__crt_stdio_output@@V?$standard_base@_WV?$stream_output_adapter@_W@__crt_stdio_output@@@2@@__crt_stdio_output@@AAEXI@Z 1002ac26 f i libucrt:output.obj
 0001:00029c35       ?set_flag@?$output_processor@_WV?$string_output_adapter@_W@__crt_stdio_output@@V?$format_validation_base@_WV?$string_output_adapter@_W@__crt_stdio_output@@@2@@__crt_stdio_output@@AAEXI@Z 1002ac35 f i libucrt:output.obj
 0001:00029c44       ?set_flag@?$output_processor@_WV?$string_output_adapter@_W@__crt_stdio_output@@V?$positional_parameter_base@_WV?$string_output_adapter@_W@__crt_stdio_output@@@2@@__crt_stdio_output@@AAEXI@Z 1002ac44 f i libucrt:output.obj
 0001:00029c53       ?set_flag@?$output_processor@_WV?$string_output_adapter@_W@__crt_stdio_output@@V?$standard_base@_WV?$string_output_adapter@_W@__crt_stdio_output@@@2@@__crt_stdio_output@@AAEXI@Z 1002ac53 f i libucrt:output.obj
 0001:00029c62       ?should_format@?$positional_parameter_base@DV?$stream_output_adapter@D@__crt_stdio_output@@@__crt_stdio_output@@IAE_NXZ 1002ac62 f i libucrt:output.obj
 0001:00029c78       ?should_format@?$positional_parameter_base@DV?$string_output_adapter@D@__crt_stdio_output@@@__crt_stdio_output@@IAE_NXZ 1002ac78 f i libucrt:output.obj
 0001:00029c8e       ?should_format@?$positional_parameter_base@_WV?$stream_output_adapter@_W@__crt_stdio_output@@@__crt_stdio_output@@IAE_NXZ 1002ac8e f i libucrt:output.obj
 0001:00029ca4       ?should_format@?$positional_parameter_base@_WV?$string_output_adapter@_W@__crt_stdio_output@@@__crt_stdio_output@@IAE_NXZ 1002aca4 f i libucrt:output.obj
 0001:00029cba       ?should_format@?$standard_base@DV?$stream_output_adapter@D@__crt_stdio_output@@@__crt_stdio_output@@IAE_NXZ 1002acba f i libucrt:output.obj
 0001:00029cbd       ?should_format@?$standard_base@DV?$string_output_adapter@D@__crt_stdio_output@@@__crt_stdio_output@@IAE_NXZ 1002acbd f i libucrt:output.obj
 0001:00029cc0       ?should_format@?$standard_base@_WV?$stream_output_adapter@_W@__crt_stdio_output@@@__crt_stdio_output@@IAE_NXZ 1002acc0 f i libucrt:output.obj
 0001:00029cc3       ?should_format@?$standard_base@_WV?$string_output_adapter@_W@__crt_stdio_output@@@__crt_stdio_output@@IAE_NXZ 1002acc3 f i libucrt:output.obj
 0001:00029cc6       ?should_skip_normal_state_processing@?$positional_parameter_base@DV?$stream_output_adapter@D@__crt_stdio_output@@@__crt_stdio_output@@IAE_NXZ 1002acc6 f i libucrt:output.obj
 0001:00029cf0       ?should_skip_normal_state_processing@?$positional_parameter_base@DV?$string_output_adapter@D@__crt_stdio_output@@@__crt_stdio_output@@IAE_NXZ 1002acf0 f i libucrt:output.obj
 0001:00029d1a       ?should_skip_normal_state_processing@?$positional_parameter_base@_WV?$stream_output_adapter@_W@__crt_stdio_output@@@__crt_stdio_output@@IAE_NXZ 1002ad1a f i libucrt:output.obj
 0001:00029d44       ?should_skip_normal_state_processing@?$positional_parameter_base@_WV?$string_output_adapter@_W@__crt_stdio_output@@@__crt_stdio_output@@IAE_NXZ 1002ad44 f i libucrt:output.obj
 0001:00029d6e       ?should_skip_normal_state_processing@?$standard_base@DV?$stream_output_adapter@D@__crt_stdio_output@@@__crt_stdio_output@@IAE_NXZ 1002ad6e f i libucrt:output.obj
 0001:00029d71       ?should_skip_normal_state_processing@?$standard_base@DV?$string_output_adapter@D@__crt_stdio_output@@@__crt_stdio_output@@IAE_NXZ 1002ad71 f i libucrt:output.obj
 0001:00029d74       ?should_skip_normal_state_processing@?$standard_base@_WV?$stream_output_adapter@_W@__crt_stdio_output@@@__crt_stdio_output@@IAE_NXZ 1002ad74 f i libucrt:output.obj
 0001:00029d77       ?should_skip_normal_state_processing@?$standard_base@_WV?$string_output_adapter@_W@__crt_stdio_output@@@__crt_stdio_output@@IAE_NXZ 1002ad77 f i libucrt:output.obj
 0001:00029d7a       ?should_skip_type_state_output@?$positional_parameter_base@DV?$stream_output_adapter@D@__crt_stdio_output@@@__crt_stdio_output@@IBE_NXZ 1002ad7a f i libucrt:output.obj
 0001:00029d91       ?should_skip_type_state_output@?$positional_parameter_base@DV?$string_output_adapter@D@__crt_stdio_output@@@__crt_stdio_output@@IBE_NXZ 1002ad91 f i libucrt:output.obj
 0001:00029da8       ?should_skip_type_state_output@?$positional_parameter_base@_WV?$stream_output_adapter@_W@__crt_stdio_output@@@__crt_stdio_output@@IBE_NXZ 1002ada8 f i libucrt:output.obj
 0001:00029dbf       ?should_skip_type_state_output@?$positional_parameter_base@_WV?$string_output_adapter@_W@__crt_stdio_output@@@__crt_stdio_output@@IBE_NXZ 1002adbf f i libucrt:output.obj
 0001:00029dd6       ?should_skip_type_state_output@?$standard_base@DV?$stream_output_adapter@D@__crt_stdio_output@@@__crt_stdio_output@@IBE_NXZ 1002add6 f i libucrt:output.obj
 0001:00029dd9       ?should_skip_type_state_output@?$standard_base@DV?$string_output_adapter@D@__crt_stdio_output@@@__crt_stdio_output@@IBE_NXZ 1002add9 f i libucrt:output.obj
 0001:00029ddc       ?should_skip_type_state_output@?$standard_base@_WV?$stream_output_adapter@_W@__crt_stdio_output@@@__crt_stdio_output@@IBE_NXZ 1002addc f i libucrt:output.obj
 0001:00029ddf       ?should_skip_type_state_output@?$standard_base@_WV?$string_output_adapter@_W@__crt_stdio_output@@@__crt_stdio_output@@IBE_NXZ 1002addf f i libucrt:output.obj
 0001:00029de2       ?state_case_dot@?$output_processor@DV?$stream_output_adapter@D@__crt_stdio_output@@V?$format_validation_base@DV?$stream_output_adapter@D@__crt_stdio_output@@@2@@__crt_stdio_output@@AAE_NXZ 1002ade2 f i libucrt:output.obj
 0001:00029de9       ?state_case_dot@?$output_processor@DV?$stream_output_adapter@D@__crt_stdio_output@@V?$positional_parameter_base@DV?$stream_output_adapter@D@__crt_stdio_output@@@2@@__crt_stdio_output@@AAE_NXZ 1002ade9 f i libucrt:output.obj
 0001:00029df0       ?state_case_dot@?$output_processor@DV?$stream_output_adapter@D@__crt_stdio_output@@V?$standard_base@DV?$stream_output_adapter@D@__crt_stdio_output@@@2@@__crt_stdio_output@@AAE_NXZ 1002adf0 f i libucrt:output.obj
 0001:00029df7       ?state_case_dot@?$output_processor@DV?$string_output_adapter@D@__crt_stdio_output@@V?$format_validation_base@DV?$string_output_adapter@D@__crt_stdio_output@@@2@@__crt_stdio_output@@AAE_NXZ 1002adf7 f i libucrt:output.obj
 0001:00029dfe       ?state_case_dot@?$output_processor@DV?$string_output_adapter@D@__crt_stdio_output@@V?$positional_parameter_base@DV?$string_output_adapter@D@__crt_stdio_output@@@2@@__crt_stdio_output@@AAE_NXZ 1002adfe f i libucrt:output.obj
 0001:00029e05       ?state_case_dot@?$output_processor@DV?$string_output_adapter@D@__crt_stdio_output@@V?$standard_base@DV?$string_output_adapter@D@__crt_stdio_output@@@2@@__crt_stdio_output@@AAE_NXZ 1002ae05 f i libucrt:output.obj
 0001:00029e0c       ?state_case_dot@?$output_processor@_WV?$stream_output_adapter@_W@__crt_stdio_output@@V?$format_validation_base@_WV?$stream_output_adapter@_W@__crt_stdio_output@@@2@@__crt_stdio_output@@AAE_NXZ 1002ae0c f i libucrt:output.obj
 0001:00029e13       ?state_case_dot@?$output_processor@_WV?$stream_output_adapter@_W@__crt_stdio_output@@V?$positional_parameter_base@_WV?$stream_output_adapter@_W@__crt_stdio_output@@@2@@__crt_stdio_output@@AAE_NXZ 1002ae13 f i libucrt:output.obj
 0001:00029e1a       ?state_case_dot@?$output_processor@_WV?$stream_output_adapter@_W@__crt_stdio_output@@V?$standard_base@_WV?$stream_output_adapter@_W@__crt_stdio_output@@@2@@__crt_stdio_output@@AAE_NXZ 1002ae1a f i libucrt:output.obj
 0001:00029e21       ?state_case_dot@?$output_processor@_WV?$string_output_adapter@_W@__crt_stdio_output@@V?$format_validation_base@_WV?$string_output_adapter@_W@__crt_stdio_output@@@2@@__crt_stdio_output@@AAE_NXZ 1002ae21 f i libucrt:output.obj
 0001:00029e28       ?state_case_dot@?$output_processor@_WV?$string_output_adapter@_W@__crt_stdio_output@@V?$positional_parameter_base@_WV?$string_output_adapter@_W@__crt_stdio_output@@@2@@__crt_stdio_output@@AAE_NXZ 1002ae28 f i libucrt:output.obj
 0001:00029e2f       ?state_case_dot@?$output_processor@_WV?$string_output_adapter@_W@__crt_stdio_output@@V?$standard_base@_WV?$string_output_adapter@_W@__crt_stdio_output@@@2@@__crt_stdio_output@@AAE_NXZ 1002ae2f f i libucrt:output.obj
 0001:00029e36       ?state_case_flag@?$output_processor@DV?$stream_output_adapter@D@__crt_stdio_output@@V?$format_validation_base@DV?$stream_output_adapter@D@__crt_stdio_output@@@2@@__crt_stdio_output@@AAE_NXZ 1002ae36 f i libucrt:output.obj
 0001:00029e73       ?state_case_flag@?$output_processor@DV?$stream_output_adapter@D@__crt_stdio_output@@V?$positional_parameter_base@DV?$stream_output_adapter@D@__crt_stdio_output@@@2@@__crt_stdio_output@@AAE_NXZ 1002ae73 f i libucrt:output.obj
 0001:00029eb0       ?state_case_flag@?$output_processor@DV?$stream_output_adapter@D@__crt_stdio_output@@V?$standard_base@DV?$stream_output_adapter@D@__crt_stdio_output@@@2@@__crt_stdio_output@@AAE_NXZ 1002aeb0 f i libucrt:output.obj
 0001:00029eed       ?state_case_flag@?$output_processor@DV?$string_output_adapter@D@__crt_stdio_output@@V?$format_validation_base@DV?$string_output_adapter@D@__crt_stdio_output@@@2@@__crt_stdio_output@@AAE_NXZ 1002aeed f i libucrt:output.obj
 0001:00029f2a       ?state_case_flag@?$output_processor@DV?$string_output_adapter@D@__crt_stdio_output@@V?$positional_parameter_base@DV?$string_output_adapter@D@__crt_stdio_output@@@2@@__crt_stdio_output@@AAE_NXZ 1002af2a f i libucrt:output.obj
 0001:00029f67       ?state_case_flag@?$output_processor@DV?$string_output_adapter@D@__crt_stdio_output@@V?$standard_base@DV?$string_output_adapter@D@__crt_stdio_output@@@2@@__crt_stdio_output@@AAE_NXZ 1002af67 f i libucrt:output.obj
 0001:00029fa4       ?state_case_flag@?$output_processor@_WV?$stream_output_adapter@_W@__crt_stdio_output@@V?$format_validation_base@_WV?$stream_output_adapter@_W@__crt_stdio_output@@@2@@__crt_stdio_output@@AAE_NXZ 1002afa4 f i libucrt:output.obj
 0001:00029fe1       ?state_case_flag@?$output_processor@_WV?$stream_output_adapter@_W@__crt_stdio_output@@V?$positional_parameter_base@_WV?$stream_output_adapter@_W@__crt_stdio_output@@@2@@__crt_stdio_output@@AAE_NXZ 1002afe1 f i libucrt:output.obj
 0001:0002a01e       ?state_case_flag@?$output_processor@_WV?$stream_output_adapter@_W@__crt_stdio_output@@V?$standard_base@_WV?$stream_output_adapter@_W@__crt_stdio_output@@@2@@__crt_stdio_output@@AAE_NXZ 1002b01e f i libucrt:output.obj
 0001:0002a05b       ?state_case_flag@?$output_processor@_WV?$string_output_adapter@_W@__crt_stdio_output@@V?$format_validation_base@_WV?$string_output_adapter@_W@__crt_stdio_output@@@2@@__crt_stdio_output@@AAE_NXZ 1002b05b f i libucrt:output.obj
 0001:0002a098       ?state_case_flag@?$output_processor@_WV?$string_output_adapter@_W@__crt_stdio_output@@V?$positional_parameter_base@_WV?$string_output_adapter@_W@__crt_stdio_output@@@2@@__crt_stdio_output@@AAE_NXZ 1002b098 f i libucrt:output.obj
 0001:0002a0d5       ?state_case_flag@?$output_processor@_WV?$string_output_adapter@_W@__crt_stdio_output@@V?$standard_base@_WV?$string_output_adapter@_W@__crt_stdio_output@@@2@@__crt_stdio_output@@AAE_NXZ 1002b0d5 f i libucrt:output.obj
 0001:0002a112       ?state_case_normal@?$output_processor@DV?$stream_output_adapter@D@__crt_stdio_output@@V?$format_validation_base@DV?$stream_output_adapter@D@__crt_stdio_output@@@2@@__crt_stdio_output@@AAE_NXZ 1002b112 f i libucrt:output.obj
 0001:0002a1cf       ?state_case_normal@?$output_processor@DV?$stream_output_adapter@D@__crt_stdio_output@@V?$positional_parameter_base@DV?$stream_output_adapter@D@__crt_stdio_output@@@2@@__crt_stdio_output@@AAE_NXZ 1002b1cf f i libucrt:output.obj
 0001:0002a297       ?state_case_normal@?$output_processor@DV?$stream_output_adapter@D@__crt_stdio_output@@V?$standard_base@DV?$stream_output_adapter@D@__crt_stdio_output@@@2@@__crt_stdio_output@@AAE_NXZ 1002b297 f i libucrt:output.obj
 0001:0002a354       ?state_case_normal@?$output_processor@DV?$string_output_adapter@D@__crt_stdio_output@@V?$format_validation_base@DV?$string_output_adapter@D@__crt_stdio_output@@@2@@__crt_stdio_output@@AAE_NXZ 1002b354 f i libucrt:output.obj
 0001:0002a450       ?state_case_normal@?$output_processor@DV?$string_output_adapter@D@__crt_stdio_output@@V?$positional_parameter_base@DV?$string_output_adapter@D@__crt_stdio_output@@@2@@__crt_stdio_output@@AAE_NXZ 1002b450 f i libucrt:output.obj
 0001:0002a557       ?state_case_normal@?$output_processor@DV?$string_output_adapter@D@__crt_stdio_output@@V?$standard_base@DV?$string_output_adapter@D@__crt_stdio_output@@@2@@__crt_stdio_output@@AAE_NXZ 1002b557 f i libucrt:output.obj
 0001:0002a653       ?state_case_normal@?$output_processor@_WV?$stream_output_adapter@_W@__crt_stdio_output@@V?$format_validation_base@_WV?$stream_output_adapter@_W@__crt_stdio_output@@@2@@__crt_stdio_output@@AAE_NXZ 1002b653 f i libucrt:output.obj
 0001:0002a671       ?state_case_normal@?$output_processor@_WV?$stream_output_adapter@_W@__crt_stdio_output@@V?$positional_parameter_base@_WV?$stream_output_adapter@_W@__crt_stdio_output@@@2@@__crt_stdio_output@@AAE_NXZ 1002b671 f i libucrt:output.obj
 0001:0002a69e       ?state_case_normal@?$output_processor@_WV?$stream_output_adapter@_W@__crt_stdio_output@@V?$standard_base@_WV?$stream_output_adapter@_W@__crt_stdio_output@@@2@@__crt_stdio_output@@AAE_NXZ 1002b69e f i libucrt:output.obj
 0001:0002a6bc       ?state_case_normal@?$output_processor@_WV?$string_output_adapter@_W@__crt_stdio_output@@V?$format_validation_base@_WV?$string_output_adapter@_W@__crt_stdio_output@@@2@@__crt_stdio_output@@AAE_NXZ 1002b6bc f i libucrt:output.obj
 0001:0002a704       ?state_case_normal@?$output_processor@_WV?$string_output_adapter@_W@__crt_stdio_output@@V?$positional_parameter_base@_WV?$string_output_adapter@_W@__crt_stdio_output@@@2@@__crt_stdio_output@@AAE_NXZ 1002b704 f i libucrt:output.obj
 0001:0002a757       ?state_case_normal@?$output_processor@_WV?$string_output_adapter@_W@__crt_stdio_output@@V?$standard_base@_WV?$string_output_adapter@_W@__crt_stdio_output@@@2@@__crt_stdio_output@@AAE_NXZ 1002b757 f i libucrt:output.obj
 0001:0002a79f       ?state_case_normal_common@?$output_processor@DV?$stream_output_adapter@D@__crt_stdio_output@@V?$format_validation_base@DV?$stream_output_adapter@D@__crt_stdio_output@@@2@@__crt_stdio_output@@AAE_NXZ 1002b79f f i libucrt:output.obj
 0001:0002a837       ?state_case_normal_common@?$output_processor@DV?$stream_output_adapter@D@__crt_stdio_output@@V?$positional_parameter_base@DV?$stream_output_adapter@D@__crt_stdio_output@@@2@@__crt_stdio_output@@AAE_NXZ 1002b837 f i libucrt:output.obj
 0001:0002a8cf       ?state_case_normal_common@?$output_processor@DV?$stream_output_adapter@D@__crt_stdio_output@@V?$standard_base@DV?$stream_output_adapter@D@__crt_stdio_output@@@2@@__crt_stdio_output@@AAE_NXZ 1002b8cf f i libucrt:output.obj
 0001:0002a967       ?state_case_normal_common@?$output_processor@DV?$string_output_adapter@D@__crt_stdio_output@@V?$format_validation_base@DV?$string_output_adapter@D@__crt_stdio_output@@@2@@__crt_stdio_output@@AAE_NXZ 1002b967 f i libucrt:output.obj
 0001:0002aa47       ?state_case_normal_common@?$output_processor@DV?$string_output_adapter@D@__crt_stdio_output@@V?$positional_parameter_base@DV?$string_output_adapter@D@__crt_stdio_output@@@2@@__crt_stdio_output@@AAE_NXZ 1002ba47 f i libucrt:output.obj
 0001:0002ab27       ?state_case_normal_common@?$output_processor@DV?$string_output_adapter@D@__crt_stdio_output@@V?$standard_base@DV?$string_output_adapter@D@__crt_stdio_output@@@2@@__crt_stdio_output@@AAE_NXZ 1002bb27 f i libucrt:output.obj
 0001:0002ac07       ?state_case_normal_common@?$output_processor@_WV?$stream_output_adapter@_W@__crt_stdio_output@@V?$format_validation_base@_WV?$stream_output_adapter@_W@__crt_stdio_output@@@2@@__crt_stdio_output@@AAE_NXZ 1002bc07 f i libucrt:output.obj
 0001:0002ac25       ?state_case_normal_common@?$output_processor@_WV?$stream_output_adapter@_W@__crt_stdio_output@@V?$positional_parameter_base@_WV?$stream_output_adapter@_W@__crt_stdio_output@@@2@@__crt_stdio_output@@AAE_NXZ 1002bc25 f i libucrt:output.obj
 0001:0002ac43       ?state_case_normal_common@?$output_processor@_WV?$stream_output_adapter@_W@__crt_stdio_output@@V?$standard_base@_WV?$stream_output_adapter@_W@__crt_stdio_output@@@2@@__crt_stdio_output@@AAE_NXZ 1002bc43 f i libucrt:output.obj
 0001:0002ac61       ?state_case_normal_common@?$output_processor@_WV?$string_output_adapter@_W@__crt_stdio_output@@V?$format_validation_base@_WV?$string_output_adapter@_W@__crt_stdio_output@@@2@@__crt_stdio_output@@AAE_NXZ 1002bc61 f i libucrt:output.obj
 0001:0002aca9       ?state_case_normal_common@?$output_processor@_WV?$string_output_adapter@_W@__crt_stdio_output@@V?$positional_parameter_base@_WV?$string_output_adapter@_W@__crt_stdio_output@@@2@@__crt_stdio_output@@AAE_NXZ 1002bca9 f i libucrt:output.obj
 0001:0002acf1       ?state_case_normal_common@?$output_processor@_WV?$string_output_adapter@_W@__crt_stdio_output@@V?$standard_base@_WV?$string_output_adapter@_W@__crt_stdio_output@@@2@@__crt_stdio_output@@AAE_NXZ 1002bcf1 f i libucrt:output.obj
 0001:0002ad39       ?state_case_normal_tchar@?$output_processor@DV?$stream_output_adapter@D@__crt_stdio_output@@V?$format_validation_base@DV?$stream_output_adapter@D@__crt_stdio_output@@@2@@__crt_stdio_output@@AAE_ND@Z 1002bd39 f i libucrt:output.obj
 0001:0002adc0       ?state_case_normal_tchar@?$output_processor@DV?$stream_output_adapter@D@__crt_stdio_output@@V?$positional_parameter_base@DV?$stream_output_adapter@D@__crt_stdio_output@@@2@@__crt_stdio_output@@AAE_ND@Z 1002bdc0 f i libucrt:output.obj
 0001:0002ae47       ?state_case_normal_tchar@?$output_processor@DV?$stream_output_adapter@D@__crt_stdio_output@@V?$standard_base@DV?$stream_output_adapter@D@__crt_stdio_output@@@2@@__crt_stdio_output@@AAE_ND@Z 1002be47 f i libucrt:output.obj
 0001:0002aece       ?state_case_normal_tchar@?$output_processor@DV?$string_output_adapter@D@__crt_stdio_output@@V?$format_validation_base@DV?$string_output_adapter@D@__crt_stdio_output@@@2@@__crt_stdio_output@@AAE_ND@Z 1002bece f i libucrt:output.obj
 0001:0002af79       ?state_case_normal_tchar@?$output_processor@DV?$string_output_adapter@D@__crt_stdio_output@@V?$positional_parameter_base@DV?$string_output_adapter@D@__crt_stdio_output@@@2@@__crt_stdio_output@@AAE_ND@Z 1002bf79 f i libucrt:output.obj
 0001:0002b024       ?state_case_normal_tchar@?$output_processor@DV?$string_output_adapter@D@__crt_stdio_output@@V?$standard_base@DV?$string_output_adapter@D@__crt_stdio_output@@@2@@__crt_stdio_output@@AAE_ND@Z 1002c024 f i libucrt:output.obj
 0001:0002b0cf       ?state_case_normal_tchar@?$output_processor@_WV?$stream_output_adapter@_W@__crt_stdio_output@@V?$format_validation_base@_WV?$stream_output_adapter@_W@__crt_stdio_output@@@2@@__crt_stdio_output@@AAE_N_W@Z 1002c0cf f i libucrt:output.obj
 0001:0002b0d8       ?state_case_normal_tchar@?$output_processor@_WV?$stream_output_adapter@_W@__crt_stdio_output@@V?$positional_parameter_base@_WV?$stream_output_adapter@_W@__crt_stdio_output@@@2@@__crt_stdio_output@@AAE_N_W@Z 1002c0d8 f i libucrt:output.obj
 0001:0002b0e1       ?state_case_normal_tchar@?$output_processor@_WV?$stream_output_adapter@_W@__crt_stdio_output@@V?$standard_base@_WV?$stream_output_adapter@_W@__crt_stdio_output@@@2@@__crt_stdio_output@@AAE_N_W@Z 1002c0e1 f i libucrt:output.obj
 0001:0002b0ea       ?state_case_normal_tchar@?$output_processor@_WV?$string_output_adapter@_W@__crt_stdio_output@@V?$format_validation_base@_WV?$string_output_adapter@_W@__crt_stdio_output@@@2@@__crt_stdio_output@@AAE_N_W@Z 1002c0ea f i libucrt:output.obj
 0001:0002b0f3       ?state_case_normal_tchar@?$output_processor@_WV?$string_output_adapter@_W@__crt_stdio_output@@V?$positional_parameter_base@_WV?$string_output_adapter@_W@__crt_stdio_output@@@2@@__crt_stdio_output@@AAE_N_W@Z 1002c0f3 f i libucrt:output.obj
 0001:0002b0fc       ?state_case_normal_tchar@?$output_processor@_WV?$string_output_adapter@_W@__crt_stdio_output@@V?$standard_base@_WV?$string_output_adapter@_W@__crt_stdio_output@@@2@@__crt_stdio_output@@AAE_N_W@Z 1002c0fc f i libucrt:output.obj
 0001:0002b105       ?state_case_percent@?$output_processor@DV?$stream_output_adapter@D@__crt_stdio_output@@V?$format_validation_base@DV?$stream_output_adapter@D@__crt_stdio_output@@@2@@__crt_stdio_output@@AAE_NXZ 1002c105 f i libucrt:output.obj
 0001:0002b11d       ?state_case_percent@?$output_processor@DV?$stream_output_adapter@D@__crt_stdio_output@@V?$positional_parameter_base@DV?$stream_output_adapter@D@__crt_stdio_output@@@2@@__crt_stdio_output@@AAE_NXZ 1002c11d f i libucrt:output.obj
 0001:0002b135       ?state_case_percent@?$output_processor@DV?$stream_output_adapter@D@__crt_stdio_output@@V?$standard_base@DV?$stream_output_adapter@D@__crt_stdio_output@@@2@@__crt_stdio_output@@AAE_NXZ 1002c135 f i libucrt:output.obj
 0001:0002b14d       ?state_case_percent@?$output_processor@DV?$string_output_adapter@D@__crt_stdio_output@@V?$format_validation_base@DV?$string_output_adapter@D@__crt_stdio_output@@@2@@__crt_stdio_output@@AAE_NXZ 1002c14d f i libucrt:output.obj
 0001:0002b165       ?state_case_percent@?$output_processor@DV?$string_output_adapter@D@__crt_stdio_output@@V?$positional_parameter_base@DV?$string_output_adapter@D@__crt_stdio_output@@@2@@__crt_stdio_output@@AAE_NXZ 1002c165 f i libucrt:output.obj
 0001:0002b17d       ?state_case_percent@?$output_processor@DV?$string_output_adapter@D@__crt_stdio_output@@V?$standard_base@DV?$string_output_adapter@D@__crt_stdio_output@@@2@@__crt_stdio_output@@AAE_NXZ 1002c17d f i libucrt:output.obj
 0001:0002b195       ?state_case_percent@?$output_processor@_WV?$stream_output_adapter@_W@__crt_stdio_output@@V?$format_validation_base@_WV?$stream_output_adapter@_W@__crt_stdio_output@@@2@@__crt_stdio_output@@AAE_NXZ 1002c195 f i libucrt:output.obj
 0001:0002b1ad       ?state_case_percent@?$output_processor@_WV?$stream_output_adapter@_W@__crt_stdio_output@@V?$positional_parameter_base@_WV?$stream_output_adapter@_W@__crt_stdio_output@@@2@@__crt_stdio_output@@AAE_NXZ 1002c1ad f i libucrt:output.obj
 0001:0002b1c5       ?state_case_percent@?$output_processor@_WV?$stream_output_adapter@_W@__crt_stdio_output@@V?$standard_base@_WV?$stream_output_adapter@_W@__crt_stdio_output@@@2@@__crt_stdio_output@@AAE_NXZ 1002c1c5 f i libucrt:output.obj
 0001:0002b1dd       ?state_case_percent@?$output_processor@_WV?$string_output_adapter@_W@__crt_stdio_output@@V?$format_validation_base@_WV?$string_output_adapter@_W@__crt_stdio_output@@@2@@__crt_stdio_output@@AAE_NXZ 1002c1dd f i libucrt:output.obj
 0001:0002b1f5       ?state_case_percent@?$output_processor@_WV?$string_output_adapter@_W@__crt_stdio_output@@V?$positional_parameter_base@_WV?$string_output_adapter@_W@__crt_stdio_output@@@2@@__crt_stdio_output@@AAE_NXZ 1002c1f5 f i libucrt:output.obj
 0001:0002b20d       ?state_case_percent@?$output_processor@_WV?$string_output_adapter@_W@__crt_stdio_output@@V?$standard_base@_WV?$string_output_adapter@_W@__crt_stdio_output@@@2@@__crt_stdio_output@@AAE_NXZ 1002c20d f i libucrt:output.obj
 0001:0002b225       ?state_case_precision@?$output_processor@DV?$stream_output_adapter@D@__crt_stdio_output@@V?$format_validation_base@DV?$stream_output_adapter@D@__crt_stdio_output@@@2@@__crt_stdio_output@@AAE_NXZ 1002c225 f i libucrt:output.obj
 0001:0002b251       ?state_case_precision@?$output_processor@DV?$stream_output_adapter@D@__crt_stdio_output@@V?$positional_parameter_base@DV?$stream_output_adapter@D@__crt_stdio_output@@@2@@__crt_stdio_output@@AAE_NXZ 1002c251 f i libucrt:output.obj
 0001:0002b28b       ?state_case_precision@?$output_processor@DV?$stream_output_adapter@D@__crt_stdio_output@@V?$standard_base@DV?$stream_output_adapter@D@__crt_stdio_output@@@2@@__crt_stdio_output@@AAE_NXZ 1002c28b f i libucrt:output.obj
 0001:0002b2b7       ?state_case_precision@?$output_processor@DV?$string_output_adapter@D@__crt_stdio_output@@V?$format_validation_base@DV?$string_output_adapter@D@__crt_stdio_output@@@2@@__crt_stdio_output@@AAE_NXZ 1002c2b7 f i libucrt:output.obj
 0001:0002b2e3       ?state_case_precision@?$output_processor@DV?$string_output_adapter@D@__crt_stdio_output@@V?$positional_parameter_base@DV?$string_output_adapter@D@__crt_stdio_output@@@2@@__crt_stdio_output@@AAE_NXZ 1002c2e3 f i libucrt:output.obj
 0001:0002b31d       ?state_case_precision@?$output_processor@DV?$string_output_adapter@D@__crt_stdio_output@@V?$standard_base@DV?$string_output_adapter@D@__crt_stdio_output@@@2@@__crt_stdio_output@@AAE_NXZ 1002c31d f i libucrt:output.obj
 0001:0002b349       ?state_case_precision@?$output_processor@_WV?$stream_output_adapter@_W@__crt_stdio_output@@V?$format_validation_base@_WV?$stream_output_adapter@_W@__crt_stdio_output@@@2@@__crt_stdio_output@@AAE_NXZ 1002c349 f i libucrt:output.obj
 0001:0002b376       ?state_case_precision@?$output_processor@_WV?$stream_output_adapter@_W@__crt_stdio_output@@V?$positional_parameter_base@_WV?$stream_output_adapter@_W@__crt_stdio_output@@@2@@__crt_stdio_output@@AAE_NXZ 1002c376 f i libucrt:output.obj
 0001:0002b3b1       ?state_case_precision@?$output_processor@_WV?$stream_output_adapter@_W@__crt_stdio_output@@V?$standard_base@_WV?$stream_output_adapter@_W@__crt_stdio_output@@@2@@__crt_stdio_output@@AAE_NXZ 1002c3b1 f i libucrt:output.obj
 0001:0002b3de       ?state_case_precision@?$output_processor@_WV?$string_output_adapter@_W@__crt_stdio_output@@V?$format_validation_base@_WV?$string_output_adapter@_W@__crt_stdio_output@@@2@@__crt_stdio_output@@AAE_NXZ 1002c3de f i libucrt:output.obj
 0001:0002b40b       ?state_case_precision@?$output_processor@_WV?$string_output_adapter@_W@__crt_stdio_output@@V?$positional_parameter_base@_WV?$string_output_adapter@_W@__crt_stdio_output@@@2@@__crt_stdio_output@@AAE_NXZ 1002c40b f i libucrt:output.obj
 0001:0002b446       ?state_case_precision@?$output_processor@_WV?$string_output_adapter@_W@__crt_stdio_output@@V?$standard_base@_WV?$string_output_adapter@_W@__crt_stdio_output@@@2@@__crt_stdio_output@@AAE_NXZ 1002c446 f i libucrt:output.obj
 0001:0002b473       ?state_case_size@?$output_processor@DV?$stream_output_adapter@D@__crt_stdio_output@@V?$format_validation_base@DV?$stream_output_adapter@D@__crt_stdio_output@@@2@@__crt_stdio_output@@AAE_NXZ 1002c473 f i libucrt:output.obj
 0001:0002b5cc       ?state_case_size@?$output_processor@DV?$stream_output_adapter@D@__crt_stdio_output@@V?$positional_parameter_base@DV?$stream_output_adapter@D@__crt_stdio_output@@@2@@__crt_stdio_output@@AAE_NXZ 1002c5cc f i libucrt:output.obj
 0001:0002b725       ?state_case_size@?$output_processor@DV?$stream_output_adapter@D@__crt_stdio_output@@V?$standard_base@DV?$stream_output_adapter@D@__crt_stdio_output@@@2@@__crt_stdio_output@@AAE_NXZ 1002c725 f i libucrt:output.obj
 0001:0002b87e       ?state_case_size@?$output_processor@DV?$string_output_adapter@D@__crt_stdio_output@@V?$format_validation_base@DV?$string_output_adapter@D@__crt_stdio_output@@@2@@__crt_stdio_output@@AAE_NXZ 1002c87e f i libucrt:output.obj
 0001:0002b9d7       ?state_case_size@?$output_processor@DV?$string_output_adapter@D@__crt_stdio_output@@V?$positional_parameter_base@DV?$string_output_adapter@D@__crt_stdio_output@@@2@@__crt_stdio_output@@AAE_NXZ 1002c9d7 f i libucrt:output.obj
 0001:0002bb30       ?state_case_size@?$output_processor@DV?$string_output_adapter@D@__crt_stdio_output@@V?$standard_base@DV?$string_output_adapter@D@__crt_stdio_output@@@2@@__crt_stdio_output@@AAE_NXZ 1002cb30 f i libucrt:output.obj
 0001:0002bc89       ?state_case_size@?$output_processor@_WV?$stream_output_adapter@_W@__crt_stdio_output@@V?$format_validation_base@_WV?$stream_output_adapter@_W@__crt_stdio_output@@@2@@__crt_stdio_output@@AAE_NXZ 1002cc89 f i libucrt:output.obj
 0001:0002be13       ?state_case_size@?$output_processor@_WV?$stream_output_adapter@_W@__crt_stdio_output@@V?$positional_parameter_base@_WV?$stream_output_adapter@_W@__crt_stdio_output@@@2@@__crt_stdio_output@@AAE_NXZ 1002ce13 f i libucrt:output.obj
 0001:0002bf9d       ?state_case_size@?$output_processor@_WV?$stream_output_adapter@_W@__crt_stdio_output@@V?$standard_base@_WV?$stream_output_adapter@_W@__crt_stdio_output@@@2@@__crt_stdio_output@@AAE_NXZ 1002cf9d f i libucrt:output.obj
 0001:0002c127       ?state_case_size@?$output_processor@_WV?$string_output_adapter@_W@__crt_stdio_output@@V?$format_validation_base@_WV?$string_output_adapter@_W@__crt_stdio_output@@@2@@__crt_stdio_output@@AAE_NXZ 1002d127 f i libucrt:output.obj
 0001:0002c2b1       ?state_case_size@?$output_processor@_WV?$string_output_adapter@_W@__crt_stdio_output@@V?$positional_parameter_base@_WV?$string_output_adapter@_W@__crt_stdio_output@@@2@@__crt_stdio_output@@AAE_NXZ 1002d2b1 f i libucrt:output.obj
 0001:0002c43b       ?state_case_size@?$output_processor@_WV?$string_output_adapter@_W@__crt_stdio_output@@V?$standard_base@_WV?$string_output_adapter@_W@__crt_stdio_output@@@2@@__crt_stdio_output@@AAE_NXZ 1002d43b f i libucrt:output.obj
 0001:0002c5c5       ?state_case_type@?$output_processor@DV?$stream_output_adapter@D@__crt_stdio_output@@V?$format_validation_base@DV?$stream_output_adapter@D@__crt_stdio_output@@@2@@__crt_stdio_output@@AAE_NXZ 1002d5c5 f i libucrt:output.obj
 0001:0002c907       ?state_case_type@?$output_processor@DV?$stream_output_adapter@D@__crt_stdio_output@@V?$positional_parameter_base@DV?$stream_output_adapter@D@__crt_stdio_output@@@2@@__crt_stdio_output@@AAE_NXZ 1002d907 f i libucrt:output.obj
 0001:0002cc58       ?state_case_type@?$output_processor@DV?$stream_output_adapter@D@__crt_stdio_output@@V?$standard_base@DV?$stream_output_adapter@D@__crt_stdio_output@@@2@@__crt_stdio_output@@AAE_NXZ 1002dc58 f i libucrt:output.obj
 0001:0002cf9a       ?state_case_type@?$output_processor@DV?$string_output_adapter@D@__crt_stdio_output@@V?$format_validation_base@DV?$string_output_adapter@D@__crt_stdio_output@@@2@@__crt_stdio_output@@AAE_NXZ 1002df9a f i libucrt:output.obj
 0001:0002d2f9       ?state_case_type@?$output_processor@DV?$string_output_adapter@D@__crt_stdio_output@@V?$positional_parameter_base@DV?$string_output_adapter@D@__crt_stdio_output@@@2@@__crt_stdio_output@@AAE_NXZ 1002e2f9 f i libucrt:output.obj
 0001:0002d667       ?state_case_type@?$output_processor@DV?$string_output_adapter@D@__crt_stdio_output@@V?$standard_base@DV?$string_output_adapter@D@__crt_stdio_output@@@2@@__crt_stdio_output@@AAE_NXZ 1002e667 f i libucrt:output.obj
 0001:0002d9c6       ?state_case_type@?$output_processor@_WV?$stream_output_adapter@_W@__crt_stdio_output@@V?$format_validation_base@_WV?$stream_output_adapter@_W@__crt_stdio_output@@@2@@__crt_stdio_output@@AAE_NXZ 1002e9c6 f i libucrt:output.obj
 0001:0002dd24       ?state_case_type@?$output_processor@_WV?$stream_output_adapter@_W@__crt_stdio_output@@V?$positional_parameter_base@_WV?$stream_output_adapter@_W@__crt_stdio_output@@@2@@__crt_stdio_output@@AAE_NXZ 1002ed24 f i libucrt:output.obj
 0001:0002e091       ?state_case_type@?$output_processor@_WV?$stream_output_adapter@_W@__crt_stdio_output@@V?$standard_base@_WV?$stream_output_adapter@_W@__crt_stdio_output@@@2@@__crt_stdio_output@@AAE_NXZ 1002f091 f i libucrt:output.obj
 0001:0002e3ef       ?state_case_type@?$output_processor@_WV?$string_output_adapter@_W@__crt_stdio_output@@V?$format_validation_base@_WV?$string_output_adapter@_W@__crt_stdio_output@@@2@@__crt_stdio_output@@AAE_NXZ 1002f3ef f i libucrt:output.obj
 0001:0002e7e3       ?state_case_type@?$output_processor@_WV?$string_output_adapter@_W@__crt_stdio_output@@V?$positional_parameter_base@_WV?$string_output_adapter@_W@__crt_stdio_output@@@2@@__crt_stdio_output@@AAE_NXZ 1002f7e3 f i libucrt:output.obj
 0001:0002ebe6       ?state_case_type@?$output_processor@_WV?$string_output_adapter@_W@__crt_stdio_output@@V?$standard_base@_WV?$string_output_adapter@_W@__crt_stdio_output@@@2@@__crt_stdio_output@@AAE_NXZ 1002fbe6 f i libucrt:output.obj
 0001:0002efda       ?state_case_width@?$output_processor@DV?$stream_output_adapter@D@__crt_stdio_output@@V?$format_validation_base@DV?$stream_output_adapter@D@__crt_stdio_output@@@2@@__crt_stdio_output@@AAE_NXZ 1002ffda f i libucrt:output.obj
 0001:0002f00b       ?state_case_width@?$output_processor@DV?$stream_output_adapter@D@__crt_stdio_output@@V?$positional_parameter_base@DV?$stream_output_adapter@D@__crt_stdio_output@@@2@@__crt_stdio_output@@AAE_NXZ 1003000b f i libucrt:output.obj
 0001:0002f04b       ?state_case_width@?$output_processor@DV?$stream_output_adapter@D@__crt_stdio_output@@V?$standard_base@DV?$stream_output_adapter@D@__crt_stdio_output@@@2@@__crt_stdio_output@@AAE_NXZ 1003004b f i libucrt:output.obj
 0001:0002f07c       ?state_case_width@?$output_processor@DV?$string_output_adapter@D@__crt_stdio_output@@V?$format_validation_base@DV?$string_output_adapter@D@__crt_stdio_output@@@2@@__crt_stdio_output@@AAE_NXZ 1003007c f i libucrt:output.obj
 0001:0002f0ad       ?state_case_width@?$output_processor@DV?$string_output_adapter@D@__crt_stdio_output@@V?$positional_parameter_base@DV?$string_output_adapter@D@__crt_stdio_output@@@2@@__crt_stdio_output@@AAE_NXZ 100300ad f i libucrt:output.obj
 0001:0002f0ed       ?state_case_width@?$output_processor@DV?$string_output_adapter@D@__crt_stdio_output@@V?$standard_base@DV?$string_output_adapter@D@__crt_stdio_output@@@2@@__crt_stdio_output@@AAE_NXZ 100300ed f i libucrt:output.obj
 0001:0002f11e       ?state_case_width@?$output_processor@_WV?$stream_output_adapter@_W@__crt_stdio_output@@V?$format_validation_base@_WV?$stream_output_adapter@_W@__crt_stdio_output@@@2@@__crt_stdio_output@@AAE_NXZ 1003011e f i libucrt:output.obj
 0001:0002f150       ?state_case_width@?$output_processor@_WV?$stream_output_adapter@_W@__crt_stdio_output@@V?$positional_parameter_base@_WV?$stream_output_adapter@_W@__crt_stdio_output@@@2@@__crt_stdio_output@@AAE_NXZ 10030150 f i libucrt:output.obj
 0001:0002f191       ?state_case_width@?$output_processor@_WV?$stream_output_adapter@_W@__crt_stdio_output@@V?$standard_base@_WV?$stream_output_adapter@_W@__crt_stdio_output@@@2@@__crt_stdio_output@@AAE_NXZ 10030191 f i libucrt:output.obj
 0001:0002f1c3       ?state_case_width@?$output_processor@_WV?$string_output_adapter@_W@__crt_stdio_output@@V?$format_validation_base@_WV?$string_output_adapter@_W@__crt_stdio_output@@@2@@__crt_stdio_output@@AAE_NXZ 100301c3 f i libucrt:output.obj
 0001:0002f1f5       ?state_case_width@?$output_processor@_WV?$string_output_adapter@_W@__crt_stdio_output@@V?$positional_parameter_base@_WV?$string_output_adapter@_W@__crt_stdio_output@@@2@@__crt_stdio_output@@AAE_NXZ 100301f5 f i libucrt:output.obj
 0001:0002f236       ?state_case_width@?$output_processor@_WV?$string_output_adapter@_W@__crt_stdio_output@@V?$standard_base@_WV?$string_output_adapter@_W@__crt_stdio_output@@@2@@__crt_stdio_output@@AAE_NXZ 10030236 f i libucrt:output.obj
 0001:0002f268       ?state_count@?$format_validation_base@DV?$stream_output_adapter@D@__crt_stdio_output@@@__crt_stdio_output@@KAIXZ 10030268 f i libucrt:output.obj
 0001:0002f26c       ?state_count@?$format_validation_base@DV?$string_output_adapter@D@__crt_stdio_output@@@__crt_stdio_output@@KAIXZ 1003026c f i libucrt:output.obj
 0001:0002f270       ?state_count@?$format_validation_base@_WV?$stream_output_adapter@_W@__crt_stdio_output@@@__crt_stdio_output@@KAIXZ 10030270 f i libucrt:output.obj
 0001:0002f274       ?state_count@?$format_validation_base@_WV?$string_output_adapter@_W@__crt_stdio_output@@@__crt_stdio_output@@KAIXZ 10030274 f i libucrt:output.obj
 0001:0002f278       ?state_count@?$standard_base@DV?$stream_output_adapter@D@__crt_stdio_output@@@__crt_stdio_output@@KAIXZ 10030278 f i libucrt:output.obj
 0001:0002f27c       ?state_count@?$standard_base@DV?$string_output_adapter@D@__crt_stdio_output@@@__crt_stdio_output@@KAIXZ 1003027c f i libucrt:output.obj
 0001:0002f280       ?state_count@?$standard_base@_WV?$stream_output_adapter@_W@__crt_stdio_output@@@__crt_stdio_output@@KAIXZ 10030280 f i libucrt:output.obj
 0001:0002f284       ?state_count@?$standard_base@_WV?$string_output_adapter@_W@__crt_stdio_output@@@__crt_stdio_output@@KAIXZ 10030284 f i libucrt:output.obj
 0001:0002f288       ?state_transition_table@?$format_validation_base@DV?$stream_output_adapter@D@__crt_stdio_output@@@__crt_stdio_output@@KAABV?$spectre_mitigated_lookup_table@Ustate_transition_pair@__crt_stdio_output@@$0IA@@2@XZ 10030288 f i libucrt:output.obj
 0001:0002f28e       ?state_transition_table@?$format_validation_base@DV?$string_output_adapter@D@__crt_stdio_output@@@__crt_stdio_output@@KAABV?$spectre_mitigated_lookup_table@Ustate_transition_pair@__crt_stdio_output@@$0IA@@2@XZ 1003028e f i libucrt:output.obj
 0001:0002f294       ?state_transition_table@?$format_validation_base@_WV?$stream_output_adapter@_W@__crt_stdio_output@@@__crt_stdio_output@@KAABV?$spectre_mitigated_lookup_table@Ustate_transition_pair@__crt_stdio_output@@$0IA@@2@XZ 10030294 f i libucrt:output.obj
 0001:0002f29a       ?state_transition_table@?$format_validation_base@_WV?$string_output_adapter@_W@__crt_stdio_output@@@__crt_stdio_output@@KAABV?$spectre_mitigated_lookup_table@Ustate_transition_pair@__crt_stdio_output@@$0IA@@2@XZ 1003029a f i libucrt:output.obj
 0001:0002f2a0       ?state_transition_table@?$standard_base@DV?$stream_output_adapter@D@__crt_stdio_output@@@__crt_stdio_output@@KAABV?$spectre_mitigated_lookup_table@Ustate_transition_pair@__crt_stdio_output@@$0IA@@2@XZ 100302a0 f i libucrt:output.obj
 0001:0002f2a6       ?state_transition_table@?$standard_base@DV?$string_output_adapter@D@__crt_stdio_output@@@__crt_stdio_output@@KAABV?$spectre_mitigated_lookup_table@Ustate_transition_pair@__crt_stdio_output@@$0IA@@2@XZ 100302a6 f i libucrt:output.obj
 0001:0002f2ac       ?state_transition_table@?$standard_base@_WV?$stream_output_adapter@_W@__crt_stdio_output@@@__crt_stdio_output@@KAABV?$spectre_mitigated_lookup_table@Ustate_transition_pair@__crt_stdio_output@@$0IA@@2@XZ 100302ac f i libucrt:output.obj
 0001:0002f2b2       ?state_transition_table@?$standard_base@_WV?$string_output_adapter@_W@__crt_stdio_output@@@__crt_stdio_output@@KAABV?$spectre_mitigated_lookup_table@Ustate_transition_pair@__crt_stdio_output@@$0IA@@2@XZ 100302b2 f i libucrt:output.obj
 0001:0002f2b8       ?tchar_string@?$common_data@D@__crt_stdio_output@@IAEAAPADD@Z 100302b8 f i libucrt:output.obj
 0001:0002f2be       ?tchar_string@?$common_data@D@__crt_stdio_output@@IAEAAPADXZ 100302be f i libucrt:output.obj
 0001:0002f2c2       ?tchar_string@?$common_data@_W@__crt_stdio_output@@IAEAAPA_WXZ 100302c2 f i libucrt:output.obj
 0001:0002f2c6       ?tchar_string@?$common_data@_W@__crt_stdio_output@@IAEAAPA_W_W@Z 100302c6 f i libucrt:output.obj
 0001:0002f2cc       ?to_integer_size@__crt_stdio_output@@YAIW4length_modifier@1@@Z 100302cc f i libucrt:output.obj
 0001:0002f320       ?type_case_X@?$output_processor@DV?$stream_output_adapter@D@__crt_stdio_output@@V?$format_validation_base@DV?$stream_output_adapter@D@__crt_stdio_output@@@2@@__crt_stdio_output@@AAE_NXZ 10030320 f i libucrt:output.obj
 0001:0002f328       ?type_case_X@?$output_processor@DV?$stream_output_adapter@D@__crt_stdio_output@@V?$positional_parameter_base@DV?$stream_output_adapter@D@__crt_stdio_output@@@2@@__crt_stdio_output@@AAE_NXZ 10030328 f i libucrt:output.obj
 0001:0002f330       ?type_case_X@?$output_processor@DV?$stream_output_adapter@D@__crt_stdio_output@@V?$standard_base@DV?$stream_output_adapter@D@__crt_stdio_output@@@2@@__crt_stdio_output@@AAE_NXZ 10030330 f i libucrt:output.obj
 0001:0002f338       ?type_case_X@?$output_processor@DV?$string_output_adapter@D@__crt_stdio_output@@V?$format_validation_base@DV?$string_output_adapter@D@__crt_stdio_output@@@2@@__crt_stdio_output@@AAE_NXZ 10030338 f i libucrt:output.obj
 0001:0002f340       ?type_case_X@?$output_processor@DV?$string_output_adapter@D@__crt_stdio_output@@V?$positional_parameter_base@DV?$string_output_adapter@D@__crt_stdio_output@@@2@@__crt_stdio_output@@AAE_NXZ 10030340 f i libucrt:output.obj
 0001:0002f348       ?type_case_X@?$output_processor@DV?$string_output_adapter@D@__crt_stdio_output@@V?$standard_base@DV?$string_output_adapter@D@__crt_stdio_output@@@2@@__crt_stdio_output@@AAE_NXZ 10030348 f i libucrt:output.obj
 0001:0002f350       ?type_case_X@?$output_processor@_WV?$stream_output_adapter@_W@__crt_stdio_output@@V?$format_validation_base@_WV?$stream_output_adapter@_W@__crt_stdio_output@@@2@@__crt_stdio_output@@AAE_NXZ 10030350 f i libucrt:output.obj
 0001:0002f358       ?type_case_X@?$output_processor@_WV?$stream_output_adapter@_W@__crt_stdio_output@@V?$positional_parameter_base@_WV?$stream_output_adapter@_W@__crt_stdio_output@@@2@@__crt_stdio_output@@AAE_NXZ 10030358 f i libucrt:output.obj
 0001:0002f360       ?type_case_X@?$output_processor@_WV?$stream_output_adapter@_W@__crt_stdio_output@@V?$standard_base@_WV?$stream_output_adapter@_W@__crt_stdio_output@@@2@@__crt_stdio_output@@AAE_NXZ 10030360 f i libucrt:output.obj
 0001:0002f368       ?type_case_X@?$output_processor@_WV?$string_output_adapter@_W@__crt_stdio_output@@V?$format_validation_base@_WV?$string_output_adapter@_W@__crt_stdio_output@@@2@@__crt_stdio_output@@AAE_NXZ 10030368 f i libucrt:output.obj
 0001:0002f370       ?type_case_X@?$output_processor@_WV?$string_output_adapter@_W@__crt_stdio_output@@V?$positional_parameter_base@_WV?$string_output_adapter@_W@__crt_stdio_output@@@2@@__crt_stdio_output@@AAE_NXZ 10030370 f i libucrt:output.obj
 0001:0002f378       ?type_case_X@?$output_processor@_WV?$string_output_adapter@_W@__crt_stdio_output@@V?$standard_base@_WV?$string_output_adapter@_W@__crt_stdio_output@@@2@@__crt_stdio_output@@AAE_NXZ 10030378 f i libucrt:output.obj
 0001:0002f380       ?type_case_Z@?$output_processor@DV?$stream_output_adapter@D@__crt_stdio_output@@V?$format_validation_base@DV?$stream_output_adapter@D@__crt_stdio_output@@@2@@__crt_stdio_output@@AAE_NXZ 10030380 f i libucrt:output.obj
 0001:0002f3e3       ?type_case_Z@?$output_processor@DV?$stream_output_adapter@D@__crt_stdio_output@@V?$positional_parameter_base@DV?$stream_output_adapter@D@__crt_stdio_output@@@2@@__crt_stdio_output@@AAE_NXZ 100303e3 f i libucrt:output.obj
 0001:0002f45d       ?type_case_Z@?$output_processor@DV?$stream_output_adapter@D@__crt_stdio_output@@V?$standard_base@DV?$stream_output_adapter@D@__crt_stdio_output@@@2@@__crt_stdio_output@@AAE_NXZ 1003045d f i libucrt:output.obj
 0001:0002f4c0       ?type_case_Z@?$output_processor@DV?$string_output_adapter@D@__crt_stdio_output@@V?$format_validation_base@DV?$string_output_adapter@D@__crt_stdio_output@@@2@@__crt_stdio_output@@AAE_NXZ 100304c0 f i libucrt:output.obj
 0001:0002f523       ?type_case_Z@?$output_processor@DV?$string_output_adapter@D@__crt_stdio_output@@V?$positional_parameter_base@DV?$string_output_adapter@D@__crt_stdio_output@@@2@@__crt_stdio_output@@AAE_NXZ 10030523 f i libucrt:output.obj
 0001:0002f59d       ?type_case_Z@?$output_processor@DV?$string_output_adapter@D@__crt_stdio_output@@V?$standard_base@DV?$string_output_adapter@D@__crt_stdio_output@@@2@@__crt_stdio_output@@AAE_NXZ 1003059d f i libucrt:output.obj
 0001:0002f600       ?type_case_Z@?$output_processor@_WV?$stream_output_adapter@_W@__crt_stdio_output@@V?$format_validation_base@_WV?$stream_output_adapter@_W@__crt_stdio_output@@@2@@__crt_stdio_output@@AAE_NXZ 10030600 f i libucrt:output.obj
 0001:0002f663       ?type_case_Z@?$output_processor@_WV?$stream_output_adapter@_W@__crt_stdio_output@@V?$positional_parameter_base@_WV?$stream_output_adapter@_W@__crt_stdio_output@@@2@@__crt_stdio_output@@AAE_NXZ 10030663 f i libucrt:output.obj
 0001:0002f6dd       ?type_case_Z@?$output_processor@_WV?$stream_output_adapter@_W@__crt_stdio_output@@V?$standard_base@_WV?$stream_output_adapter@_W@__crt_stdio_output@@@2@@__crt_stdio_output@@AAE_NXZ 100306dd f i libucrt:output.obj
 0001:0002f740       ?type_case_Z@?$output_processor@_WV?$string_output_adapter@_W@__crt_stdio_output@@V?$format_validation_base@_WV?$string_output_adapter@_W@__crt_stdio_output@@@2@@__crt_stdio_output@@AAE_NXZ 10030740 f i libucrt:output.obj
 0001:0002f7a3       ?type_case_Z@?$output_processor@_WV?$string_output_adapter@_W@__crt_stdio_output@@V?$positional_parameter_base@_WV?$string_output_adapter@_W@__crt_stdio_output@@@2@@__crt_stdio_output@@AAE_NXZ 100307a3 f i libucrt:output.obj
 0001:0002f81d       ?type_case_Z@?$output_processor@_WV?$string_output_adapter@_W@__crt_stdio_output@@V?$standard_base@_WV?$string_output_adapter@_W@__crt_stdio_output@@@2@@__crt_stdio_output@@AAE_NXZ 1003081d f i libucrt:output.obj
 0001:0002f880       ?type_case_a@?$output_processor@DV?$stream_output_adapter@D@__crt_stdio_output@@V?$format_validation_base@DV?$stream_output_adapter@D@__crt_stdio_output@@@2@@__crt_stdio_output@@AAE_NXZ 10030880 f i libucrt:output.obj
 0001:0002fa11       ?type_case_a@?$output_processor@DV?$stream_output_adapter@D@__crt_stdio_output@@V?$positional_parameter_base@DV?$stream_output_adapter@D@__crt_stdio_output@@@2@@__crt_stdio_output@@AAE_NXZ 10030a11 f i libucrt:output.obj
 0001:0002fbbf       ?type_case_a@?$output_processor@DV?$stream_output_adapter@D@__crt_stdio_output@@V?$standard_base@DV?$stream_output_adapter@D@__crt_stdio_output@@@2@@__crt_stdio_output@@AAE_NXZ 10030bbf f i libucrt:output.obj
 0001:0002fd50       ?type_case_a@?$output_processor@DV?$string_output_adapter@D@__crt_stdio_output@@V?$format_validation_base@DV?$string_output_adapter@D@__crt_stdio_output@@@2@@__crt_stdio_output@@AAE_NXZ 10030d50 f i libucrt:output.obj
 0001:0002fee1       ?type_case_a@?$output_processor@DV?$string_output_adapter@D@__crt_stdio_output@@V?$positional_parameter_base@DV?$string_output_adapter@D@__crt_stdio_output@@@2@@__crt_stdio_output@@AAE_NXZ 10030ee1 f i libucrt:output.obj
 0001:0003008f       ?type_case_a@?$output_processor@DV?$string_output_adapter@D@__crt_stdio_output@@V?$standard_base@DV?$string_output_adapter@D@__crt_stdio_output@@@2@@__crt_stdio_output@@AAE_NXZ 1003108f f i libucrt:output.obj
 0001:00030220       ?type_case_a@?$output_processor@_WV?$stream_output_adapter@_W@__crt_stdio_output@@V?$format_validation_base@_WV?$stream_output_adapter@_W@__crt_stdio_output@@@2@@__crt_stdio_output@@AAE_NXZ 10031220 f i libucrt:output.obj
 0001:000303c7       ?type_case_a@?$output_processor@_WV?$stream_output_adapter@_W@__crt_stdio_output@@V?$positional_parameter_base@_WV?$stream_output_adapter@_W@__crt_stdio_output@@@2@@__crt_stdio_output@@AAE_NXZ 100313c7 f i libucrt:output.obj
 0001:0003058b       ?type_case_a@?$output_processor@_WV?$stream_output_adapter@_W@__crt_stdio_output@@V?$standard_base@_WV?$stream_output_adapter@_W@__crt_stdio_output@@@2@@__crt_stdio_output@@AAE_NXZ 1003158b f i libucrt:output.obj
 0001:00030732       ?type_case_a@?$output_processor@_WV?$string_output_adapter@_W@__crt_stdio_output@@V?$format_validation_base@_WV?$string_output_adapter@_W@__crt_stdio_output@@@2@@__crt_stdio_output@@AAE_NXZ 10031732 f i libucrt:output.obj
 0001:000308d9       ?type_case_a@?$output_processor@_WV?$string_output_adapter@_W@__crt_stdio_output@@V?$positional_parameter_base@_WV?$string_output_adapter@_W@__crt_stdio_output@@@2@@__crt_stdio_output@@AAE_NXZ 100318d9 f i libucrt:output.obj
 0001:00030a9d       ?type_case_a@?$output_processor@_WV?$string_output_adapter@_W@__crt_stdio_output@@V?$standard_base@_WV?$string_output_adapter@_W@__crt_stdio_output@@@2@@__crt_stdio_output@@AAE_NXZ 10031a9d f i libucrt:output.obj
 0001:00030c44       ?type_case_c@?$output_processor@DV?$stream_output_adapter@D@__crt_stdio_output@@V?$format_validation_base@DV?$stream_output_adapter@D@__crt_stdio_output@@@2@@__crt_stdio_output@@AAE_NXZ 10031c44 f i libucrt:output.obj
 0001:00030c4c       ?type_case_c@?$output_processor@DV?$stream_output_adapter@D@__crt_stdio_output@@V?$positional_parameter_base@DV?$stream_output_adapter@D@__crt_stdio_output@@@2@@__crt_stdio_output@@AAE_NXZ 10031c4c f i libucrt:output.obj
 0001:00030c54       ?type_case_c@?$output_processor@DV?$stream_output_adapter@D@__crt_stdio_output@@V?$standard_base@DV?$stream_output_adapter@D@__crt_stdio_output@@@2@@__crt_stdio_output@@AAE_NXZ 10031c54 f i libucrt:output.obj
 0001:00030c5c       ?type_case_c@?$output_processor@DV?$string_output_adapter@D@__crt_stdio_output@@V?$format_validation_base@DV?$string_output_adapter@D@__crt_stdio_output@@@2@@__crt_stdio_output@@AAE_NXZ 10031c5c f i libucrt:output.obj
 0001:00030c64       ?type_case_c@?$output_processor@DV?$string_output_adapter@D@__crt_stdio_output@@V?$positional_parameter_base@DV?$string_output_adapter@D@__crt_stdio_output@@@2@@__crt_stdio_output@@AAE_NXZ 10031c64 f i libucrt:output.obj
 0001:00030c6c       ?type_case_c@?$output_processor@DV?$string_output_adapter@D@__crt_stdio_output@@V?$standard_base@DV?$string_output_adapter@D@__crt_stdio_output@@@2@@__crt_stdio_output@@AAE_NXZ 10031c6c f i libucrt:output.obj
 0001:00030c74       ?type_case_c@?$output_processor@_WV?$stream_output_adapter@_W@__crt_stdio_output@@V?$format_validation_base@_WV?$stream_output_adapter@_W@__crt_stdio_output@@@2@@__crt_stdio_output@@AAE_NXZ 10031c74 f i libucrt:output.obj
 0001:00030c7c       ?type_case_c@?$output_processor@_WV?$stream_output_adapter@_W@__crt_stdio_output@@V?$positional_parameter_base@_WV?$stream_output_adapter@_W@__crt_stdio_output@@@2@@__crt_stdio_output@@AAE_NXZ 10031c7c f i libucrt:output.obj
 0001:00030c84       ?type_case_c@?$output_processor@_WV?$stream_output_adapter@_W@__crt_stdio_output@@V?$standard_base@_WV?$stream_output_adapter@_W@__crt_stdio_output@@@2@@__crt_stdio_output@@AAE_NXZ 10031c84 f i libucrt:output.obj
 0001:00030c8c       ?type_case_c@?$output_processor@_WV?$string_output_adapter@_W@__crt_stdio_output@@V?$format_validation_base@_WV?$string_output_adapter@_W@__crt_stdio_output@@@2@@__crt_stdio_output@@AAE_NXZ 10031c8c f i libucrt:output.obj
 0001:00030c94       ?type_case_c@?$output_processor@_WV?$string_output_adapter@_W@__crt_stdio_output@@V?$positional_parameter_base@_WV?$string_output_adapter@_W@__crt_stdio_output@@@2@@__crt_stdio_output@@AAE_NXZ 10031c94 f i libucrt:output.obj
 0001:00030c9c       ?type_case_c@?$output_processor@_WV?$string_output_adapter@_W@__crt_stdio_output@@V?$standard_base@_WV?$string_output_adapter@_W@__crt_stdio_output@@@2@@__crt_stdio_output@@AAE_NXZ 10031c9c f i libucrt:output.obj
 0001:00030ca4       ?type_case_c_tchar@?$output_processor@DV?$stream_output_adapter@D@__crt_stdio_output@@V?$format_validation_base@DV?$stream_output_adapter@D@__crt_stdio_output@@@2@@__crt_stdio_output@@AAE_ND@Z 10031ca4 f i libucrt:output.obj
 0001:00030d39       ?type_case_c_tchar@?$output_processor@DV?$stream_output_adapter@D@__crt_stdio_output@@V?$positional_parameter_base@DV?$stream_output_adapter@D@__crt_stdio_output@@@2@@__crt_stdio_output@@AAE_ND@Z 10031d39 f i libucrt:output.obj
 0001:00030df8       ?type_case_c_tchar@?$output_processor@DV?$stream_output_adapter@D@__crt_stdio_output@@V?$standard_base@DV?$stream_output_adapter@D@__crt_stdio_output@@@2@@__crt_stdio_output@@AAE_ND@Z 10031df8 f i libucrt:output.obj
 0001:00030e8d       ?type_case_c_tchar@?$output_processor@DV?$string_output_adapter@D@__crt_stdio_output@@V?$format_validation_base@DV?$string_output_adapter@D@__crt_stdio_output@@@2@@__crt_stdio_output@@AAE_ND@Z 10031e8d f i libucrt:output.obj
 0001:00030f22       ?type_case_c_tchar@?$output_processor@DV?$string_output_adapter@D@__crt_stdio_output@@V?$positional_parameter_base@DV?$string_output_adapter@D@__crt_stdio_output@@@2@@__crt_stdio_output@@AAE_ND@Z 10031f22 f i libucrt:output.obj
 0001:00030fe1       ?type_case_c_tchar@?$output_processor@DV?$string_output_adapter@D@__crt_stdio_output@@V?$standard_base@DV?$string_output_adapter@D@__crt_stdio_output@@@2@@__crt_stdio_output@@AAE_ND@Z 10031fe1 f i libucrt:output.obj
 0001:00031076       ?type_case_c_tchar@?$output_processor@_WV?$stream_output_adapter@_W@__crt_stdio_output@@V?$format_validation_base@_WV?$stream_output_adapter@_W@__crt_stdio_output@@@2@@__crt_stdio_output@@AAE_N_W@Z 10032076 f i libucrt:output.obj
 0001:0003111e       ?type_case_c_tchar@?$output_processor@_WV?$stream_output_adapter@_W@__crt_stdio_output@@V?$positional_parameter_base@_WV?$stream_output_adapter@_W@__crt_stdio_output@@@2@@__crt_stdio_output@@AAE_N_W@Z 1003211e f i libucrt:output.obj
 0001:000311e9       ?type_case_c_tchar@?$output_processor@_WV?$stream_output_adapter@_W@__crt_stdio_output@@V?$standard_base@_WV?$stream_output_adapter@_W@__crt_stdio_output@@@2@@__crt_stdio_output@@AAE_N_W@Z 100321e9 f i libucrt:output.obj
 0001:00031291       ?type_case_c_tchar@?$output_processor@_WV?$string_output_adapter@_W@__crt_stdio_output@@V?$format_validation_base@_WV?$string_output_adapter@_W@__crt_stdio_output@@@2@@__crt_stdio_output@@AAE_N_W@Z 10032291 f i libucrt:output.obj
 0001:00031339       ?type_case_c_tchar@?$output_processor@_WV?$string_output_adapter@_W@__crt_stdio_output@@V?$positional_parameter_base@_WV?$string_output_adapter@_W@__crt_stdio_output@@@2@@__crt_stdio_output@@AAE_N_W@Z 10032339 f i libucrt:output.obj
 0001:00031404       ?type_case_c_tchar@?$output_processor@_WV?$string_output_adapter@_W@__crt_stdio_output@@V?$standard_base@_WV?$string_output_adapter@_W@__crt_stdio_output@@@2@@__crt_stdio_output@@AAE_N_W@Z 10032404 f i libucrt:output.obj
 0001:000314ac       ?type_case_d@?$output_processor@DV?$stream_output_adapter@D@__crt_stdio_output@@V?$format_validation_base@DV?$stream_output_adapter@D@__crt_stdio_output@@@2@@__crt_stdio_output@@AAE_NXZ 100324ac f i libucrt:output.obj
 0001:000314b8       ?type_case_d@?$output_processor@DV?$stream_output_adapter@D@__crt_stdio_output@@V?$positional_parameter_base@DV?$stream_output_adapter@D@__crt_stdio_output@@@2@@__crt_stdio_output@@AAE_NXZ 100324b8 f i libucrt:output.obj
 0001:000314c4       ?type_case_d@?$output_processor@DV?$stream_output_adapter@D@__crt_stdio_output@@V?$standard_base@DV?$stream_output_adapter@D@__crt_stdio_output@@@2@@__crt_stdio_output@@AAE_NXZ 100324c4 f i libucrt:output.obj
 0001:000314d0       ?type_case_d@?$output_processor@DV?$string_output_adapter@D@__crt_stdio_output@@V?$format_validation_base@DV?$string_output_adapter@D@__crt_stdio_output@@@2@@__crt_stdio_output@@AAE_NXZ 100324d0 f i libucrt:output.obj
 0001:000314dc       ?type_case_d@?$output_processor@DV?$string_output_adapter@D@__crt_stdio_output@@V?$positional_parameter_base@DV?$string_output_adapter@D@__crt_stdio_output@@@2@@__crt_stdio_output@@AAE_NXZ 100324dc f i libucrt:output.obj
 0001:000314e8       ?type_case_d@?$output_processor@DV?$string_output_adapter@D@__crt_stdio_output@@V?$standard_base@DV?$string_output_adapter@D@__crt_stdio_output@@@2@@__crt_stdio_output@@AAE_NXZ 100324e8 f i libucrt:output.obj
 0001:000314f4       ?type_case_d@?$output_processor@_WV?$stream_output_adapter@_W@__crt_stdio_output@@V?$format_validation_base@_WV?$stream_output_adapter@_W@__crt_stdio_output@@@2@@__crt_stdio_output@@AAE_NXZ 100324f4 f i libucrt:output.obj
 0001:00031500       ?type_case_d@?$output_processor@_WV?$stream_output_adapter@_W@__crt_stdio_output@@V?$positional_parameter_base@_WV?$stream_output_adapter@_W@__crt_stdio_output@@@2@@__crt_stdio_output@@AAE_NXZ 10032500 f i libucrt:output.obj
 0001:0003150c       ?type_case_d@?$output_processor@_WV?$stream_output_adapter@_W@__crt_stdio_output@@V?$standard_base@_WV?$stream_output_adapter@_W@__crt_stdio_output@@@2@@__crt_stdio_output@@AAE_NXZ 1003250c f i libucrt:output.obj
 0001:00031518       ?type_case_d@?$output_processor@_WV?$string_output_adapter@_W@__crt_stdio_output@@V?$format_validation_base@_WV?$string_output_adapter@_W@__crt_stdio_output@@@2@@__crt_stdio_output@@AAE_NXZ 10032518 f i libucrt:output.obj
 0001:00031524       ?type_case_d@?$output_processor@_WV?$string_output_adapter@_W@__crt_stdio_output@@V?$positional_parameter_base@_WV?$string_output_adapter@_W@__crt_stdio_output@@@2@@__crt_stdio_output@@AAE_NXZ 10032524 f i libucrt:output.obj
 0001:00031530       ?type_case_d@?$output_processor@_WV?$string_output_adapter@_W@__crt_stdio_output@@V?$standard_base@_WV?$string_output_adapter@_W@__crt_stdio_output@@@2@@__crt_stdio_output@@AAE_NXZ 10032530 f i libucrt:output.obj
 0001:0003153c       ?type_case_n@?$output_processor@DV?$stream_output_adapter@D@__crt_stdio_output@@V?$format_validation_base@DV?$stream_output_adapter@D@__crt_stdio_output@@@2@@__crt_stdio_output@@AAE_NXZ 1003253c f i libucrt:output.obj
 0001:000315c1       ?type_case_n@?$output_processor@DV?$stream_output_adapter@D@__crt_stdio_output@@V?$positional_parameter_base@DV?$stream_output_adapter@D@__crt_stdio_output@@@2@@__crt_stdio_output@@AAE_NXZ 100325c1 f i libucrt:output.obj
 0001:0003166e       ?type_case_n@?$output_processor@DV?$stream_output_adapter@D@__crt_stdio_output@@V?$standard_base@DV?$stream_output_adapter@D@__crt_stdio_output@@@2@@__crt_stdio_output@@AAE_NXZ 1003266e f i libucrt:output.obj
 0001:000316f3       ?type_case_n@?$output_processor@DV?$string_output_adapter@D@__crt_stdio_output@@V?$format_validation_base@DV?$string_output_adapter@D@__crt_stdio_output@@@2@@__crt_stdio_output@@AAE_NXZ 100326f3 f i libucrt:output.obj
 0001:00031778       ?type_case_n@?$output_processor@DV?$string_output_adapter@D@__crt_stdio_output@@V?$positional_parameter_base@DV?$string_output_adapter@D@__crt_stdio_output@@@2@@__crt_stdio_output@@AAE_NXZ 10032778 f i libucrt:output.obj
 0001:00031825       ?type_case_n@?$output_processor@DV?$string_output_adapter@D@__crt_stdio_output@@V?$standard_base@DV?$string_output_adapter@D@__crt_stdio_output@@@2@@__crt_stdio_output@@AAE_NXZ 10032825 f i libucrt:output.obj
 0001:000318aa       ?type_case_n@?$output_processor@_WV?$stream_output_adapter@_W@__crt_stdio_output@@V?$format_validation_base@_WV?$stream_output_adapter@_W@__crt_stdio_output@@@2@@__crt_stdio_output@@AAE_NXZ 100328aa f i libucrt:output.obj
 0001:0003192f       ?type_case_n@?$output_processor@_WV?$stream_output_adapter@_W@__crt_stdio_output@@V?$positional_parameter_base@_WV?$stream_output_adapter@_W@__crt_stdio_output@@@2@@__crt_stdio_output@@AAE_NXZ 1003292f f i libucrt:output.obj
 0001:000319dc       ?type_case_n@?$output_processor@_WV?$stream_output_adapter@_W@__crt_stdio_output@@V?$standard_base@_WV?$stream_output_adapter@_W@__crt_stdio_output@@@2@@__crt_stdio_output@@AAE_NXZ 100329dc f i libucrt:output.obj
 0001:00031a61       ?type_case_n@?$output_processor@_WV?$string_output_adapter@_W@__crt_stdio_output@@V?$format_validation_base@_WV?$string_output_adapter@_W@__crt_stdio_output@@@2@@__crt_stdio_output@@AAE_NXZ 10032a61 f i libucrt:output.obj
 0001:00031ae6       ?type_case_n@?$output_processor@_WV?$string_output_adapter@_W@__crt_stdio_output@@V?$positional_parameter_base@_WV?$string_output_adapter@_W@__crt_stdio_output@@@2@@__crt_stdio_output@@AAE_NXZ 10032ae6 f i libucrt:output.obj
 0001:00031b93       ?type_case_n@?$output_processor@_WV?$string_output_adapter@_W@__crt_stdio_output@@V?$standard_base@_WV?$string_output_adapter@_W@__crt_stdio_output@@@2@@__crt_stdio_output@@AAE_NXZ 10032b93 f i libucrt:output.obj
 0001:00031c18       ?type_case_o@?$output_processor@DV?$stream_output_adapter@D@__crt_stdio_output@@V?$format_validation_base@DV?$stream_output_adapter@D@__crt_stdio_output@@@2@@__crt_stdio_output@@AAE_NXZ 10032c18 f i libucrt:output.obj
 0001:00031c35       ?type_case_o@?$output_processor@DV?$stream_output_adapter@D@__crt_stdio_output@@V?$positional_parameter_base@DV?$stream_output_adapter@D@__crt_stdio_output@@@2@@__crt_stdio_output@@AAE_NXZ 10032c35 f i libucrt:output.obj
 0001:00031c52       ?type_case_o@?$output_processor@DV?$stream_output_adapter@D@__crt_stdio_output@@V?$standard_base@DV?$stream_output_adapter@D@__crt_stdio_output@@@2@@__crt_stdio_output@@AAE_NXZ 10032c52 f i libucrt:output.obj
 0001:00031c6f       ?type_case_o@?$output_processor@DV?$string_output_adapter@D@__crt_stdio_output@@V?$format_validation_base@DV?$string_output_adapter@D@__crt_stdio_output@@@2@@__crt_stdio_output@@AAE_NXZ 10032c6f f i libucrt:output.obj
 0001:00031c8c       ?type_case_o@?$output_processor@DV?$string_output_adapter@D@__crt_stdio_output@@V?$positional_parameter_base@DV?$string_output_adapter@D@__crt_stdio_output@@@2@@__crt_stdio_output@@AAE_NXZ 10032c8c f i libucrt:output.obj
 0001:00031ca9       ?type_case_o@?$output_processor@DV?$string_output_adapter@D@__crt_stdio_output@@V?$standard_base@DV?$string_output_adapter@D@__crt_stdio_output@@@2@@__crt_stdio_output@@AAE_NXZ 10032ca9 f i libucrt:output.obj
 0001:00031cc6       ?type_case_o@?$output_processor@_WV?$stream_output_adapter@_W@__crt_stdio_output@@V?$format_validation_base@_WV?$stream_output_adapter@_W@__crt_stdio_output@@@2@@__crt_stdio_output@@AAE_NXZ 10032cc6 f i libucrt:output.obj
 0001:00031ce3       ?type_case_o@?$output_processor@_WV?$stream_output_adapter@_W@__crt_stdio_output@@V?$positional_parameter_base@_WV?$stream_output_adapter@_W@__crt_stdio_output@@@2@@__crt_stdio_output@@AAE_NXZ 10032ce3 f i libucrt:output.obj
 0001:00031d00       ?type_case_o@?$output_processor@_WV?$stream_output_adapter@_W@__crt_stdio_output@@V?$standard_base@_WV?$stream_output_adapter@_W@__crt_stdio_output@@@2@@__crt_stdio_output@@AAE_NXZ 10032d00 f i libucrt:output.obj
 0001:00031d1d       ?type_case_o@?$output_processor@_WV?$string_output_adapter@_W@__crt_stdio_output@@V?$format_validation_base@_WV?$string_output_adapter@_W@__crt_stdio_output@@@2@@__crt_stdio_output@@AAE_NXZ 10032d1d f i libucrt:output.obj
 0001:00031d3a       ?type_case_o@?$output_processor@_WV?$string_output_adapter@_W@__crt_stdio_output@@V?$positional_parameter_base@_WV?$string_output_adapter@_W@__crt_stdio_output@@@2@@__crt_stdio_output@@AAE_NXZ 10032d3a f i libucrt:output.obj
 0001:00031d57       ?type_case_o@?$output_processor@_WV?$string_output_adapter@_W@__crt_stdio_output@@V?$standard_base@_WV?$string_output_adapter@_W@__crt_stdio_output@@@2@@__crt_stdio_output@@AAE_NXZ 10032d57 f i libucrt:output.obj
 0001:00031d74       ?type_case_p@?$output_processor@DV?$stream_output_adapter@D@__crt_stdio_output@@V?$format_validation_base@DV?$stream_output_adapter@D@__crt_stdio_output@@@2@@__crt_stdio_output@@AAE_NXZ 10032d74 f i libucrt:output.obj
 0001:00031d8a       ?type_case_p@?$output_processor@DV?$stream_output_adapter@D@__crt_stdio_output@@V?$positional_parameter_base@DV?$stream_output_adapter@D@__crt_stdio_output@@@2@@__crt_stdio_output@@AAE_NXZ 10032d8a f i libucrt:output.obj
 0001:00031da0       ?type_case_p@?$output_processor@DV?$stream_output_adapter@D@__crt_stdio_output@@V?$standard_base@DV?$stream_output_adapter@D@__crt_stdio_output@@@2@@__crt_stdio_output@@AAE_NXZ 10032da0 f i libucrt:output.obj
 0001:00031db6       ?type_case_p@?$output_processor@DV?$string_output_adapter@D@__crt_stdio_output@@V?$format_validation_base@DV?$string_output_adapter@D@__crt_stdio_output@@@2@@__crt_stdio_output@@AAE_NXZ 10032db6 f i libucrt:output.obj
 0001:00031dcc       ?type_case_p@?$output_processor@DV?$string_output_adapter@D@__crt_stdio_output@@V?$positional_parameter_base@DV?$string_output_adapter@D@__crt_stdio_output@@@2@@__crt_stdio_output@@AAE_NXZ 10032dcc f i libucrt:output.obj
 0001:00031de2       ?type_case_p@?$output_processor@DV?$string_output_adapter@D@__crt_stdio_output@@V?$standard_base@DV?$string_output_adapter@D@__crt_stdio_output@@@2@@__crt_stdio_output@@AAE_NXZ 10032de2 f i libucrt:output.obj
 0001:00031df8       ?type_case_p@?$output_processor@_WV?$stream_output_adapter@_W@__crt_stdio_output@@V?$format_validation_base@_WV?$stream_output_adapter@_W@__crt_stdio_output@@@2@@__crt_stdio_output@@AAE_NXZ 10032df8 f i libucrt:output.obj
 0001:00031e0e       ?type_case_p@?$output_processor@_WV?$stream_output_adapter@_W@__crt_stdio_output@@V?$positional_parameter_base@_WV?$stream_output_adapter@_W@__crt_stdio_output@@@2@@__crt_stdio_output@@AAE_NXZ 10032e0e f i libucrt:output.obj
 0001:00031e24       ?type_case_p@?$output_processor@_WV?$stream_output_adapter@_W@__crt_stdio_output@@V?$standard_base@_WV?$stream_output_adapter@_W@__crt_stdio_output@@@2@@__crt_stdio_output@@AAE_NXZ 10032e24 f i libucrt:output.obj
 0001:00031e3a       ?type_case_p@?$output_processor@_WV?$string_output_adapter@_W@__crt_stdio_output@@V?$format_validation_base@_WV?$string_output_adapter@_W@__crt_stdio_output@@@2@@__crt_stdio_output@@AAE_NXZ 10032e3a f i libucrt:output.obj
 0001:00031e50       ?type_case_p@?$output_processor@_WV?$string_output_adapter@_W@__crt_stdio_output@@V?$positional_parameter_base@_WV?$string_output_adapter@_W@__crt_stdio_output@@@2@@__crt_stdio_output@@AAE_NXZ 10032e50 f i libucrt:output.obj
 0001:00031e66       ?type_case_p@?$output_processor@_WV?$string_output_adapter@_W@__crt_stdio_output@@V?$standard_base@_WV?$string_output_adapter@_W@__crt_stdio_output@@@2@@__crt_stdio_output@@AAE_NXZ 10032e66 f i libucrt:output.obj
 0001:00031e7c       ?type_case_s@?$output_processor@DV?$stream_output_adapter@D@__crt_stdio_output@@V?$format_validation_base@DV?$stream_output_adapter@D@__crt_stdio_output@@@2@@__crt_stdio_output@@AAE_NXZ 10032e7c f i libucrt:output.obj
 0001:00031eee       ?type_case_s@?$output_processor@DV?$stream_output_adapter@D@__crt_stdio_output@@V?$positional_parameter_base@DV?$stream_output_adapter@D@__crt_stdio_output@@@2@@__crt_stdio_output@@AAE_NXZ 10032eee f i libucrt:output.obj
 0001:00031f6c       ?type_case_s@?$output_processor@DV?$stream_output_adapter@D@__crt_stdio_output@@V?$standard_base@DV?$stream_output_adapter@D@__crt_stdio_output@@@2@@__crt_stdio_output@@AAE_NXZ 10032f6c f i libucrt:output.obj
 0001:00031fde       ?type_case_s@?$output_processor@DV?$string_output_adapter@D@__crt_stdio_output@@V?$format_validation_base@DV?$string_output_adapter@D@__crt_stdio_output@@@2@@__crt_stdio_output@@AAE_NXZ 10032fde f i libucrt:output.obj
 0001:00032050       ?type_case_s@?$output_processor@DV?$string_output_adapter@D@__crt_stdio_output@@V?$positional_parameter_base@DV?$string_output_adapter@D@__crt_stdio_output@@@2@@__crt_stdio_output@@AAE_NXZ 10033050 f i libucrt:output.obj
 0001:000320ce       ?type_case_s@?$output_processor@DV?$string_output_adapter@D@__crt_stdio_output@@V?$standard_base@DV?$string_output_adapter@D@__crt_stdio_output@@@2@@__crt_stdio_output@@AAE_NXZ 100330ce f i libucrt:output.obj
 0001:00032140       ?type_case_s@?$output_processor@_WV?$stream_output_adapter@_W@__crt_stdio_output@@V?$format_validation_base@_WV?$stream_output_adapter@_W@__crt_stdio_output@@@2@@__crt_stdio_output@@AAE_NXZ 10033140 f i libucrt:output.obj
 0001:000321b4       ?type_case_s@?$output_processor@_WV?$stream_output_adapter@_W@__crt_stdio_output@@V?$positional_parameter_base@_WV?$stream_output_adapter@_W@__crt_stdio_output@@@2@@__crt_stdio_output@@AAE_NXZ 100331b4 f i libucrt:output.obj
 0001:00032234       ?type_case_s@?$output_processor@_WV?$stream_output_adapter@_W@__crt_stdio_output@@V?$standard_base@_WV?$stream_output_adapter@_W@__crt_stdio_output@@@2@@__crt_stdio_output@@AAE_NXZ 10033234 f i libucrt:output.obj
 0001:000322a8       ?type_case_s@?$output_processor@_WV?$string_output_adapter@_W@__crt_stdio_output@@V?$format_validation_base@_WV?$string_output_adapter@_W@__crt_stdio_output@@@2@@__crt_stdio_output@@AAE_NXZ 100332a8 f i libucrt:output.obj
 0001:0003231c       ?type_case_s@?$output_processor@_WV?$string_output_adapter@_W@__crt_stdio_output@@V?$positional_parameter_base@_WV?$string_output_adapter@_W@__crt_stdio_output@@@2@@__crt_stdio_output@@AAE_NXZ 1003331c f i libucrt:output.obj
 0001:0003239c       ?type_case_s@?$output_processor@_WV?$string_output_adapter@_W@__crt_stdio_output@@V?$standard_base@_WV?$string_output_adapter@_W@__crt_stdio_output@@@2@@__crt_stdio_output@@AAE_NXZ 1003339c f i libucrt:output.obj
 0001:00032410       ?type_case_s_compute_narrow_string_length@?$output_processor@DV?$stream_output_adapter@D@__crt_stdio_output@@V?$format_validation_base@DV?$stream_output_adapter@D@__crt_stdio_output@@@2@@__crt_stdio_output@@AAEHHD@Z 10033410 f i libucrt:output.obj
 0001:00032426       ?type_case_s_compute_narrow_string_length@?$output_processor@DV?$stream_output_adapter@D@__crt_stdio_output@@V?$positional_parameter_base@DV?$stream_output_adapter@D@__crt_stdio_output@@@2@@__crt_stdio_output@@AAEHHD@Z 10033426 f i libucrt:output.obj
 0001:0003243c       ?type_case_s_compute_narrow_string_length@?$output_processor@DV?$stream_output_adapter@D@__crt_stdio_output@@V?$standard_base@DV?$stream_output_adapter@D@__crt_stdio_output@@@2@@__crt_stdio_output@@AAEHHD@Z 1003343c f i libucrt:output.obj
 0001:00032452       ?type_case_s_compute_narrow_string_length@?$output_processor@DV?$string_output_adapter@D@__crt_stdio_output@@V?$format_validation_base@DV?$string_output_adapter@D@__crt_stdio_output@@@2@@__crt_stdio_output@@AAEHHD@Z 10033452 f i libucrt:output.obj
 0001:00032468       ?type_case_s_compute_narrow_string_length@?$output_processor@DV?$string_output_adapter@D@__crt_stdio_output@@V?$positional_parameter_base@DV?$string_output_adapter@D@__crt_stdio_output@@@2@@__crt_stdio_output@@AAEHHD@Z 10033468 f i libucrt:output.obj
 0001:0003247e       ?type_case_s_compute_narrow_string_length@?$output_processor@DV?$string_output_adapter@D@__crt_stdio_output@@V?$standard_base@DV?$string_output_adapter@D@__crt_stdio_output@@@2@@__crt_stdio_output@@AAEHHD@Z 1003347e f i libucrt:output.obj
 0001:00032494       ?type_case_s_compute_narrow_string_length@?$output_processor@_WV?$stream_output_adapter@_W@__crt_stdio_output@@V?$format_validation_base@_WV?$stream_output_adapter@_W@__crt_stdio_output@@@2@@__crt_stdio_output@@AAEHH_W@Z 10033494 f i libucrt:output.obj
 0001:000324e9       ?type_case_s_compute_narrow_string_length@?$output_processor@_WV?$stream_output_adapter@_W@__crt_stdio_output@@V?$positional_parameter_base@_WV?$stream_output_adapter@_W@__crt_stdio_output@@@2@@__crt_stdio_output@@AAEHH_W@Z 100334e9 f i libucrt:output.obj
 0001:0003253e       ?type_case_s_compute_narrow_string_length@?$output_processor@_WV?$stream_output_adapter@_W@__crt_stdio_output@@V?$standard_base@_WV?$stream_output_adapter@_W@__crt_stdio_output@@@2@@__crt_stdio_output@@AAEHH_W@Z 1003353e f i libucrt:output.obj
 0001:00032593       ?type_case_s_compute_narrow_string_length@?$output_processor@_WV?$string_output_adapter@_W@__crt_stdio_output@@V?$format_validation_base@_WV?$string_output_adapter@_W@__crt_stdio_output@@@2@@__crt_stdio_output@@AAEHH_W@Z 10033593 f i libucrt:output.obj
 0001:000325e8       ?type_case_s_compute_narrow_string_length@?$output_processor@_WV?$string_output_adapter@_W@__crt_stdio_output@@V?$positional_parameter_base@_WV?$string_output_adapter@_W@__crt_stdio_output@@@2@@__crt_stdio_output@@AAEHH_W@Z 100335e8 f i libucrt:output.obj
 0001:0003263d       ?type_case_s_compute_narrow_string_length@?$output_processor@_WV?$string_output_adapter@_W@__crt_stdio_output@@V?$standard_base@_WV?$string_output_adapter@_W@__crt_stdio_output@@@2@@__crt_stdio_output@@AAEHH_W@Z 1003363d f i libucrt:output.obj
 0001:00032692       ?type_case_u@?$output_processor@DV?$stream_output_adapter@D@__crt_stdio_output@@V?$format_validation_base@DV?$stream_output_adapter@D@__crt_stdio_output@@@2@@__crt_stdio_output@@AAE_NXZ 10033692 f i libucrt:output.obj
 0001:0003269a       ?type_case_u@?$output_processor@DV?$stream_output_adapter@D@__crt_stdio_output@@V?$positional_parameter_base@DV?$stream_output_adapter@D@__crt_stdio_output@@@2@@__crt_stdio_output@@AAE_NXZ 1003369a f i libucrt:output.obj
 0001:000326a2       ?type_case_u@?$output_processor@DV?$stream_output_adapter@D@__crt_stdio_output@@V?$standard_base@DV?$stream_output_adapter@D@__crt_stdio_output@@@2@@__crt_stdio_output@@AAE_NXZ 100336a2 f i libucrt:output.obj
 0001:000326aa       ?type_case_u@?$output_processor@DV?$string_output_adapter@D@__crt_stdio_output@@V?$format_validation_base@DV?$string_output_adapter@D@__crt_stdio_output@@@2@@__crt_stdio_output@@AAE_NXZ 100336aa f i libucrt:output.obj
 0001:000326b2       ?type_case_u@?$output_processor@DV?$string_output_adapter@D@__crt_stdio_output@@V?$positional_parameter_base@DV?$string_output_adapter@D@__crt_stdio_output@@@2@@__crt_stdio_output@@AAE_NXZ 100336b2 f i libucrt:output.obj
 0001:000326ba       ?type_case_u@?$output_processor@DV?$string_output_adapter@D@__crt_stdio_output@@V?$standard_base@DV?$string_output_adapter@D@__crt_stdio_output@@@2@@__crt_stdio_output@@AAE_NXZ 100336ba f i libucrt:output.obj
 0001:000326c2       ?type_case_u@?$output_processor@_WV?$stream_output_adapter@_W@__crt_stdio_output@@V?$format_validation_base@_WV?$stream_output_adapter@_W@__crt_stdio_output@@@2@@__crt_stdio_output@@AAE_NXZ 100336c2 f i libucrt:output.obj
 0001:000326ca       ?type_case_u@?$output_processor@_WV?$stream_output_adapter@_W@__crt_stdio_output@@V?$positional_parameter_base@_WV?$stream_output_adapter@_W@__crt_stdio_output@@@2@@__crt_stdio_output@@AAE_NXZ 100336ca f i libucrt:output.obj
 0001:000326d2       ?type_case_u@?$output_processor@_WV?$stream_output_adapter@_W@__crt_stdio_output@@V?$standard_base@_WV?$stream_output_adapter@_W@__crt_stdio_output@@@2@@__crt_stdio_output@@AAE_NXZ 100336d2 f i libucrt:output.obj
 0001:000326da       ?type_case_u@?$output_processor@_WV?$string_output_adapter@_W@__crt_stdio_output@@V?$format_validation_base@_WV?$string_output_adapter@_W@__crt_stdio_output@@@2@@__crt_stdio_output@@AAE_NXZ 100336da f i libucrt:output.obj
 0001:000326e2       ?type_case_u@?$output_processor@_WV?$string_output_adapter@_W@__crt_stdio_output@@V?$positional_parameter_base@_WV?$string_output_adapter@_W@__crt_stdio_output@@@2@@__crt_stdio_output@@AAE_NXZ 100336e2 f i libucrt:output.obj
 0001:000326ea       ?type_case_u@?$output_processor@_WV?$string_output_adapter@_W@__crt_stdio_output@@V?$standard_base@_WV?$string_output_adapter@_W@__crt_stdio_output@@@2@@__crt_stdio_output@@AAE_NXZ 100336ea f i libucrt:output.obj
 0001:000326f2       ?type_case_x@?$output_processor@DV?$stream_output_adapter@D@__crt_stdio_output@@V?$format_validation_base@DV?$stream_output_adapter@D@__crt_stdio_output@@@2@@__crt_stdio_output@@AAE_NXZ 100336f2 f i libucrt:output.obj
 0001:000326fa       ?type_case_x@?$output_processor@DV?$stream_output_adapter@D@__crt_stdio_output@@V?$positional_parameter_base@DV?$stream_output_adapter@D@__crt_stdio_output@@@2@@__crt_stdio_output@@AAE_NXZ 100336fa f i libucrt:output.obj
 0001:00032702       ?type_case_x@?$output_processor@DV?$stream_output_adapter@D@__crt_stdio_output@@V?$standard_base@DV?$stream_output_adapter@D@__crt_stdio_output@@@2@@__crt_stdio_output@@AAE_NXZ 10033702 f i libucrt:output.obj
 0001:0003270a       ?type_case_x@?$output_processor@DV?$string_output_adapter@D@__crt_stdio_output@@V?$format_validation_base@DV?$string_output_adapter@D@__crt_stdio_output@@@2@@__crt_stdio_output@@AAE_NXZ 1003370a f i libucrt:output.obj
 0001:00032712       ?type_case_x@?$output_processor@DV?$string_output_adapter@D@__crt_stdio_output@@V?$positional_parameter_base@DV?$string_output_adapter@D@__crt_stdio_output@@@2@@__crt_stdio_output@@AAE_NXZ 10033712 f i libucrt:output.obj
 0001:0003271a       ?type_case_x@?$output_processor@DV?$string_output_adapter@D@__crt_stdio_output@@V?$standard_base@DV?$string_output_adapter@D@__crt_stdio_output@@@2@@__crt_stdio_output@@AAE_NXZ 1003371a f i libucrt:output.obj
 0001:00032722       ?type_case_x@?$output_processor@_WV?$stream_output_adapter@_W@__crt_stdio_output@@V?$format_validation_base@_WV?$stream_output_adapter@_W@__crt_stdio_output@@@2@@__crt_stdio_output@@AAE_NXZ 10033722 f i libucrt:output.obj
 0001:0003272a       ?type_case_x@?$output_processor@_WV?$stream_output_adapter@_W@__crt_stdio_output@@V?$positional_parameter_base@_WV?$stream_output_adapter@_W@__crt_stdio_output@@@2@@__crt_stdio_output@@AAE_NXZ 1003372a f i libucrt:output.obj
 0001:00032732       ?type_case_x@?$output_processor@_WV?$stream_output_adapter@_W@__crt_stdio_output@@V?$standard_base@_WV?$stream_output_adapter@_W@__crt_stdio_output@@@2@@__crt_stdio_output@@AAE_NXZ 10033732 f i libucrt:output.obj
 0001:0003273a       ?type_case_x@?$output_processor@_WV?$string_output_adapter@_W@__crt_stdio_output@@V?$format_validation_base@_WV?$string_output_adapter@_W@__crt_stdio_output@@@2@@__crt_stdio_output@@AAE_NXZ 1003373a f i libucrt:output.obj
 0001:00032742       ?type_case_x@?$output_processor@_WV?$string_output_adapter@_W@__crt_stdio_output@@V?$positional_parameter_base@_WV?$string_output_adapter@_W@__crt_stdio_output@@@2@@__crt_stdio_output@@AAE_NXZ 10033742 f i libucrt:output.obj
 0001:0003274a       ?type_case_x@?$output_processor@_WV?$string_output_adapter@_W@__crt_stdio_output@@V?$standard_base@_WV?$string_output_adapter@_W@__crt_stdio_output@@@2@@__crt_stdio_output@@AAE_NXZ 1003374a f i libucrt:output.obj
 0001:00032752       ?unget@?$c_string_character_source@D@__crt_strtox@@QAEXD@Z 10033752 f i libucrt:output.obj
 0001:0003277b       ?unget@?$c_string_character_source@_W@__crt_strtox@@QAEX_W@Z 1003377b f i libucrt:output.obj
 0001:000327a9       ?unset_flag@?$output_processor@DV?$stream_output_adapter@D@__crt_stdio_output@@V?$format_validation_base@DV?$stream_output_adapter@D@__crt_stdio_output@@@2@@__crt_stdio_output@@AAEXI@Z 100337a9 f i libucrt:output.obj
 0001:000327ba       ?unset_flag@?$output_processor@DV?$stream_output_adapter@D@__crt_stdio_output@@V?$positional_parameter_base@DV?$stream_output_adapter@D@__crt_stdio_output@@@2@@__crt_stdio_output@@AAEXI@Z 100337ba f i libucrt:output.obj
 0001:000327cb       ?unset_flag@?$output_processor@DV?$stream_output_adapter@D@__crt_stdio_output@@V?$standard_base@DV?$stream_output_adapter@D@__crt_stdio_output@@@2@@__crt_stdio_output@@AAEXI@Z 100337cb f i libucrt:output.obj
 0001:000327dc       ?unset_flag@?$output_processor@DV?$string_output_adapter@D@__crt_stdio_output@@V?$format_validation_base@DV?$string_output_adapter@D@__crt_stdio_output@@@2@@__crt_stdio_output@@AAEXI@Z 100337dc f i libucrt:output.obj
 0001:000327ed       ?unset_flag@?$output_processor@DV?$string_output_adapter@D@__crt_stdio_output@@V?$positional_parameter_base@DV?$string_output_adapter@D@__crt_stdio_output@@@2@@__crt_stdio_output@@AAEXI@Z 100337ed f i libucrt:output.obj
 0001:000327fe       ?unset_flag@?$output_processor@DV?$string_output_adapter@D@__crt_stdio_output@@V?$standard_base@DV?$string_output_adapter@D@__crt_stdio_output@@@2@@__crt_stdio_output@@AAEXI@Z 100337fe f i libucrt:output.obj
 0001:0003280f       ?unset_flag@?$output_processor@_WV?$stream_output_adapter@_W@__crt_stdio_output@@V?$format_validation_base@_WV?$stream_output_adapter@_W@__crt_stdio_output@@@2@@__crt_stdio_output@@AAEXI@Z 1003380f f i libucrt:output.obj
 0001:00032820       ?unset_flag@?$output_processor@_WV?$stream_output_adapter@_W@__crt_stdio_output@@V?$positional_parameter_base@_WV?$stream_output_adapter@_W@__crt_stdio_output@@@2@@__crt_stdio_output@@AAEXI@Z 10033820 f i libucrt:output.obj
 0001:00032831       ?unset_flag@?$output_processor@_WV?$stream_output_adapter@_W@__crt_stdio_output@@V?$standard_base@_WV?$stream_output_adapter@_W@__crt_stdio_output@@@2@@__crt_stdio_output@@AAEXI@Z 10033831 f i libucrt:output.obj
 0001:00032842       ?unset_flag@?$output_processor@_WV?$string_output_adapter@_W@__crt_stdio_output@@V?$format_validation_base@_WV?$string_output_adapter@_W@__crt_stdio_output@@@2@@__crt_stdio_output@@AAEXI@Z 10033842 f i libucrt:output.obj
 0001:00032853       ?unset_flag@?$output_processor@_WV?$string_output_adapter@_W@__crt_stdio_output@@V?$positional_parameter_base@_WV?$string_output_adapter@_W@__crt_stdio_output@@@2@@__crt_stdio_output@@AAEXI@Z 10033853 f i libucrt:output.obj
 0001:00032864       ?unset_flag@?$output_processor@_WV?$string_output_adapter@_W@__crt_stdio_output@@V?$standard_base@_WV?$string_output_adapter@_W@__crt_stdio_output@@@2@@__crt_stdio_output@@AAEXI@Z 10033864 f i libucrt:output.obj
 0001:00032875       ?update_field_width@?$positional_parameter_base@DV?$stream_output_adapter@D@__crt_stdio_output@@@__crt_stdio_output@@IAE_NXZ 10033875 f i libucrt:output.obj
 0001:0003294a       ?update_field_width@?$positional_parameter_base@DV?$string_output_adapter@D@__crt_stdio_output@@@__crt_stdio_output@@IAE_NXZ 1003394a f i libucrt:output.obj
 0001:00032a1f       ?update_field_width@?$positional_parameter_base@_WV?$stream_output_adapter@_W@__crt_stdio_output@@@__crt_stdio_output@@IAE_NXZ 10033a1f f i libucrt:output.obj
 0001:00032af5       ?update_field_width@?$positional_parameter_base@_WV?$string_output_adapter@_W@__crt_stdio_output@@@__crt_stdio_output@@IAE_NXZ 10033af5 f i libucrt:output.obj
 0001:00032bcb       ?update_field_width@?$standard_base@DV?$stream_output_adapter@D@__crt_stdio_output@@@__crt_stdio_output@@IAE_NXZ 10033bcb f i libucrt:output.obj
 0001:00032bdc       ?update_field_width@?$standard_base@DV?$string_output_adapter@D@__crt_stdio_output@@@__crt_stdio_output@@IAE_NXZ 10033bdc f i libucrt:output.obj
 0001:00032bed       ?update_field_width@?$standard_base@_WV?$stream_output_adapter@_W@__crt_stdio_output@@@__crt_stdio_output@@IAE_NXZ 10033bed f i libucrt:output.obj
 0001:00032bfe       ?update_field_width@?$standard_base@_WV?$string_output_adapter@_W@__crt_stdio_output@@@__crt_stdio_output@@IAE_NXZ 10033bfe f i libucrt:output.obj
 0001:00032c10       ?update_locale@__crt_cached_ptd_host@@AAEXXZ 10033c10 f i libucrt:output.obj
 0001:00032c20       ?update_locale_slow@__crt_cached_ptd_host@@AAEXXZ 10033c20 f i libucrt:output.obj
 0001:00032c7b       ?update_precision@?$positional_parameter_base@DV?$stream_output_adapter@D@__crt_stdio_output@@@__crt_stdio_output@@IAE_NXZ 10033c7b f i libucrt:output.obj
 0001:00032d50       ?update_precision@?$positional_parameter_base@DV?$string_output_adapter@D@__crt_stdio_output@@@__crt_stdio_output@@IAE_NXZ 10033d50 f i libucrt:output.obj
 0001:00032e25       ?update_precision@?$positional_parameter_base@_WV?$stream_output_adapter@_W@__crt_stdio_output@@@__crt_stdio_output@@IAE_NXZ 10033e25 f i libucrt:output.obj
 0001:00032efb       ?update_precision@?$positional_parameter_base@_WV?$string_output_adapter@_W@__crt_stdio_output@@@__crt_stdio_output@@IAE_NXZ 10033efb f i libucrt:output.obj
 0001:00032fd1       ?update_precision@?$standard_base@DV?$stream_output_adapter@D@__crt_stdio_output@@@__crt_stdio_output@@IAE_NXZ 10033fd1 f i libucrt:output.obj
 0001:00032fe2       ?update_precision@?$standard_base@DV?$string_output_adapter@D@__crt_stdio_output@@@__crt_stdio_output@@IAE_NXZ 10033fe2 f i libucrt:output.obj
 0001:00032ff3       ?update_precision@?$standard_base@_WV?$stream_output_adapter@_W@__crt_stdio_output@@@__crt_stdio_output@@IAE_NXZ 10033ff3 f i libucrt:output.obj
 0001:00033004       ?update_precision@?$standard_base@_WV?$string_output_adapter@_W@__crt_stdio_output@@@__crt_stdio_output@@IAE_NXZ 10034004 f i libucrt:output.obj
 0001:00033015       ?valid@__crt_stdio_stream@@QBE_NXZ 10034015 f i libucrt:output.obj
 0001:0003301c       ?validate@?$c_string_character_source@D@__crt_strtox@@QBE_NXZ 1003401c f i libucrt:output.obj
 0001:00033037       ?validate@?$c_string_character_source@_W@__crt_strtox@@QBE_NXZ 10034037 f i libucrt:output.obj
 0001:00033052       ?validate@?$stream_output_adapter@D@__crt_stdio_output@@QBE_NAAV__crt_cached_ptd_host@@@Z 10034052 f i libucrt:output.obj
 0001:0003308a       ?validate@?$stream_output_adapter@_W@__crt_stdio_output@@QBE_NAAV__crt_cached_ptd_host@@@Z 1003408a f i libucrt:output.obj
 0001:000330bb       ?validate@?$string_output_adapter@D@__crt_stdio_output@@QBE_NAAV__crt_cached_ptd_host@@@Z 100340bb f i libucrt:output.obj
 0001:000330ec       ?validate@?$string_output_adapter@_W@__crt_stdio_output@@QBE_NAAV__crt_cached_ptd_host@@@Z 100340ec f i libucrt:output.obj
 0001:0003311d       ?validate_and_store_parameter_data@?$positional_parameter_base@DV?$stream_output_adapter@D@__crt_stdio_output@@@__crt_stdio_output@@AAE_NAAUparameter_data@12@W4parameter_type@12@DW4length_modifier@2@@Z 1003411d f i libucrt:output.obj
 0001:0003317f       ?validate_and_store_parameter_data@?$positional_parameter_base@DV?$string_output_adapter@D@__crt_stdio_output@@@__crt_stdio_output@@AAE_NAAUparameter_data@12@W4parameter_type@12@DW4length_modifier@2@@Z 1003417f f i libucrt:output.obj
 0001:000331e1       ?validate_and_store_parameter_data@?$positional_parameter_base@_WV?$stream_output_adapter@_W@__crt_stdio_output@@@__crt_stdio_output@@AAE_NAAUparameter_data@12@W4parameter_type@12@_WW4length_modifier@2@@Z 100341e1 f i libucrt:output.obj
 0001:00033245       ?validate_and_store_parameter_data@?$positional_parameter_base@_WV?$string_output_adapter@_W@__crt_stdio_output@@@__crt_stdio_output@@AAE_NAAUparameter_data@12@W4parameter_type@12@_WW4length_modifier@2@@Z 10034245 f i libucrt:output.obj
 0001:000332a9       ?validate_and_update_state_at_beginning_of_format_character@?$positional_parameter_base@DV?$stream_output_adapter@D@__crt_stdio_output@@@__crt_stdio_output@@IAE_NXZ 100342a9 f i libucrt:output.obj
 0001:000333c0       ?validate_and_update_state_at_beginning_of_format_character@?$positional_parameter_base@DV?$string_output_adapter@D@__crt_stdio_output@@@__crt_stdio_output@@IAE_NXZ 100343c0 f i libucrt:output.obj
 0001:000334d7       ?validate_and_update_state_at_beginning_of_format_character@?$positional_parameter_base@_WV?$stream_output_adapter@_W@__crt_stdio_output@@@__crt_stdio_output@@IAE_NXZ 100344d7 f i libucrt:output.obj
 0001:000335fb       ?validate_and_update_state_at_beginning_of_format_character@?$positional_parameter_base@_WV?$string_output_adapter@_W@__crt_stdio_output@@@__crt_stdio_output@@IAE_NXZ 100345fb f i libucrt:output.obj
 0001:0003371f       ?validate_and_update_state_at_beginning_of_format_character@?$standard_base@DV?$stream_output_adapter@D@__crt_stdio_output@@@__crt_stdio_output@@IAE_NXZ 1003471f f i libucrt:output.obj
 0001:00033722       ?validate_and_update_state_at_beginning_of_format_character@?$standard_base@DV?$string_output_adapter@D@__crt_stdio_output@@@__crt_stdio_output@@IAE_NXZ 10034722 f i libucrt:output.obj
 0001:00033725       ?validate_and_update_state_at_beginning_of_format_character@?$standard_base@_WV?$stream_output_adapter@_W@__crt_stdio_output@@@__crt_stdio_output@@IAE_NXZ 10034725 f i libucrt:output.obj
 0001:00033728       ?validate_and_update_state_at_beginning_of_format_character@?$standard_base@_WV?$string_output_adapter@_W@__crt_stdio_output@@@__crt_stdio_output@@IAE_NXZ 10034728 f i libucrt:output.obj
 0001:0003372b       ?validate_and_update_state_at_end_of_format_string@?$format_validation_base@DV?$stream_output_adapter@D@__crt_stdio_output@@@__crt_stdio_output@@IAE_NXZ 1003472b f i libucrt:output.obj
 0001:0003375c       ?validate_and_update_state_at_end_of_format_string@?$format_validation_base@DV?$string_output_adapter@D@__crt_stdio_output@@@__crt_stdio_output@@IAE_NXZ 1003475c f i libucrt:output.obj
 0001:0003378d       ?validate_and_update_state_at_end_of_format_string@?$format_validation_base@_WV?$stream_output_adapter@_W@__crt_stdio_output@@@__crt_stdio_output@@IAE_NXZ 1003478d f i libucrt:output.obj
 0001:000337be       ?validate_and_update_state_at_end_of_format_string@?$format_validation_base@_WV?$string_output_adapter@_W@__crt_stdio_output@@@__crt_stdio_output@@IAE_NXZ 100347be f i libucrt:output.obj
 0001:000337ef       ?validate_and_update_state_at_end_of_format_string@?$positional_parameter_base@DV?$stream_output_adapter@D@__crt_stdio_output@@@__crt_stdio_output@@IAE_NXZ 100347ef f i libucrt:output.obj
 0001:000338a9       ?validate_and_update_state_at_end_of_format_string@?$positional_parameter_base@DV?$string_output_adapter@D@__crt_stdio_output@@@__crt_stdio_output@@IAE_NXZ 100348a9 f i libucrt:output.obj
 0001:00033963       ?validate_and_update_state_at_end_of_format_string@?$positional_parameter_base@_WV?$stream_output_adapter@_W@__crt_stdio_output@@@__crt_stdio_output@@IAE_NXZ 10034963 f i libucrt:output.obj
 0001:00033a1d       ?validate_and_update_state_at_end_of_format_string@?$positional_parameter_base@_WV?$string_output_adapter@_W@__crt_stdio_output@@@__crt_stdio_output@@IAE_NXZ 10034a1d f i libucrt:output.obj
 0001:00033ad7       ?validate_and_update_state_at_end_of_format_string@?$standard_base@DV?$stream_output_adapter@D@__crt_stdio_output@@@__crt_stdio_output@@IBE_NXZ 10034ad7 f i libucrt:output.obj
 0001:00033ada       ?validate_and_update_state_at_end_of_format_string@?$standard_base@DV?$string_output_adapter@D@__crt_stdio_output@@@__crt_stdio_output@@IBE_NXZ 10034ada f i libucrt:output.obj
 0001:00033add       ?validate_and_update_state_at_end_of_format_string@?$standard_base@_WV?$stream_output_adapter@_W@__crt_stdio_output@@@__crt_stdio_output@@IBE_NXZ 10034add f i libucrt:output.obj
 0001:00033ae0       ?validate_and_update_state_at_end_of_format_string@?$standard_base@_WV?$string_output_adapter@_W@__crt_stdio_output@@@__crt_stdio_output@@IBE_NXZ 10034ae0 f i libucrt:output.obj
 0001:00033ae3       ?validate_state_for_type_case_a@?$positional_parameter_base@DV?$stream_output_adapter@D@__crt_stdio_output@@@__crt_stdio_output@@IAE_NXZ 10034ae3 f i libucrt:output.obj
 0001:00033b42       ?validate_state_for_type_case_a@?$positional_parameter_base@DV?$string_output_adapter@D@__crt_stdio_output@@@__crt_stdio_output@@IAE_NXZ 10034b42 f i libucrt:output.obj
 0001:00033ba1       ?validate_state_for_type_case_a@?$positional_parameter_base@_WV?$stream_output_adapter@_W@__crt_stdio_output@@@__crt_stdio_output@@IAE_NXZ 10034ba1 f i libucrt:output.obj
 0001:00033c00       ?validate_state_for_type_case_a@?$positional_parameter_base@_WV?$string_output_adapter@_W@__crt_stdio_output@@@__crt_stdio_output@@IAE_NXZ 10034c00 f i libucrt:output.obj
 0001:00033c5f       ?validate_state_for_type_case_a@?$standard_base@DV?$stream_output_adapter@D@__crt_stdio_output@@@__crt_stdio_output@@IBE_NXZ 10034c5f f i libucrt:output.obj
 0001:00033c62       ?validate_state_for_type_case_a@?$standard_base@DV?$string_output_adapter@D@__crt_stdio_output@@@__crt_stdio_output@@IBE_NXZ 10034c62 f i libucrt:output.obj
 0001:00033c65       ?validate_state_for_type_case_a@?$standard_base@_WV?$stream_output_adapter@_W@__crt_stdio_output@@@__crt_stdio_output@@IBE_NXZ 10034c65 f i libucrt:output.obj
 0001:00033c68       ?validate_state_for_type_case_a@?$standard_base@_WV?$string_output_adapter@_W@__crt_stdio_output@@@__crt_stdio_output@@IBE_NXZ 10034c68 f i libucrt:output.obj
 0001:00033c6b       ?validate_stream_is_ansi_if_required@?$__acrt_stdio_char_traits@D@@SA_NQAU_iobuf@@@Z 10034c6b f i libucrt:output.obj
 0001:00033cf2       ?validate_stream_is_ansi_if_required@?$__acrt_stdio_char_traits@_W@@SA_NQAU_iobuf@@@Z 10034cf2 f i libucrt:output.obj
 0001:00033cf5       ?wide_character_to_digit@__crt_strtox@@YAH_W@Z 10034cf5 f i libucrt:output.obj
 0001:00033e96       ?wide_null_string@?$output_processor@DV?$stream_output_adapter@D@__crt_stdio_output@@V?$format_validation_base@DV?$stream_output_adapter@D@__crt_stdio_output@@@2@@__crt_stdio_output@@CAPA_WXZ 10034e96 f i libucrt:output.obj
 0001:00033e9c       ?wide_null_string@?$output_processor@DV?$stream_output_adapter@D@__crt_stdio_output@@V?$positional_parameter_base@DV?$stream_output_adapter@D@__crt_stdio_output@@@2@@__crt_stdio_output@@CAPA_WXZ 10034e9c f i libucrt:output.obj
 0001:00033ea2       ?wide_null_string@?$output_processor@DV?$stream_output_adapter@D@__crt_stdio_output@@V?$standard_base@DV?$stream_output_adapter@D@__crt_stdio_output@@@2@@__crt_stdio_output@@CAPA_WXZ 10034ea2 f i libucrt:output.obj
 0001:00033ea8       ?wide_null_string@?$output_processor@DV?$string_output_adapter@D@__crt_stdio_output@@V?$format_validation_base@DV?$string_output_adapter@D@__crt_stdio_output@@@2@@__crt_stdio_output@@CAPA_WXZ 10034ea8 f i libucrt:output.obj
 0001:00033eae       ?wide_null_string@?$output_processor@DV?$string_output_adapter@D@__crt_stdio_output@@V?$positional_parameter_base@DV?$string_output_adapter@D@__crt_stdio_output@@@2@@__crt_stdio_output@@CAPA_WXZ 10034eae f i libucrt:output.obj
 0001:00033eb4       ?wide_null_string@?$output_processor@DV?$string_output_adapter@D@__crt_stdio_output@@V?$standard_base@DV?$string_output_adapter@D@__crt_stdio_output@@@2@@__crt_stdio_output@@CAPA_WXZ 10034eb4 f i libucrt:output.obj
 0001:00033eba       ?wide_null_string@?$output_processor@_WV?$stream_output_adapter@_W@__crt_stdio_output@@V?$format_validation_base@_WV?$stream_output_adapter@_W@__crt_stdio_output@@@2@@__crt_stdio_output@@CAPA_WXZ 10034eba f i libucrt:output.obj
 0001:00033ec0       ?wide_null_string@?$output_processor@_WV?$stream_output_adapter@_W@__crt_stdio_output@@V?$positional_parameter_base@_WV?$stream_output_adapter@_W@__crt_stdio_output@@@2@@__crt_stdio_output@@CAPA_WXZ 10034ec0 f i libucrt:output.obj
 0001:00033ec6       ?wide_null_string@?$output_processor@_WV?$stream_output_adapter@_W@__crt_stdio_output@@V?$standard_base@_WV?$stream_output_adapter@_W@__crt_stdio_output@@@2@@__crt_stdio_output@@CAPA_WXZ 10034ec6 f i libucrt:output.obj
 0001:00033ecc       ?wide_null_string@?$output_processor@_WV?$string_output_adapter@_W@__crt_stdio_output@@V?$format_validation_base@_WV?$string_output_adapter@_W@__crt_stdio_output@@@2@@__crt_stdio_output@@CAPA_WXZ 10034ecc f i libucrt:output.obj
 0001:00033ed2       ?wide_null_string@?$output_processor@_WV?$string_output_adapter@_W@__crt_stdio_output@@V?$positional_parameter_base@_WV?$string_output_adapter@_W@__crt_stdio_output@@@2@@__crt_stdio_output@@CAPA_WXZ 10034ed2 f i libucrt:output.obj
 0001:00033ed8       ?wide_null_string@?$output_processor@_WV?$string_output_adapter@_W@__crt_stdio_output@@V?$standard_base@_WV?$string_output_adapter@_W@__crt_stdio_output@@@2@@__crt_stdio_output@@CAPA_WXZ 10034ed8 f i libucrt:output.obj
 0001:00033ede       ?write_character@?$output_adapter_common@DV?$stream_output_adapter@D@__crt_stdio_output@@@__crt_stdio_output@@QBEXDQAHAAV__crt_cached_ptd_host@@@Z 10034ede f i libucrt:output.obj
 0001:00033f00       ?write_character@?$output_adapter_common@_WV?$stream_output_adapter@_W@__crt_stdio_output@@@__crt_stdio_output@@QBEX_WQAHAAV__crt_cached_ptd_host@@@Z 10034f00 f i libucrt:output.obj
 0001:00033f22       ?write_character@?$string_output_adapter@D@__crt_stdio_output@@QBE_NDQAHAAV__crt_cached_ptd_host@@@Z 10034f22 f i libucrt:output.obj
 0001:00033f64       ?write_character@?$string_output_adapter@_W@__crt_stdio_output@@QBE_N_WQAHAAV__crt_cached_ptd_host@@@Z 10034f64 f i libucrt:output.obj
 0001:00033fa9       ?write_character_without_count_update@?$stream_output_adapter@D@__crt_stdio_output@@QBE_NDAAV__crt_cached_ptd_host@@@Z 10034fa9 f i libucrt:output.obj
 0001:00033fe3       ?write_character_without_count_update@?$stream_output_adapter@_W@__crt_stdio_output@@QBE_N_WAAV__crt_cached_ptd_host@@@Z 10034fe3 f i libucrt:output.obj
 0001:00034020       ?write_stored_string_tchar@?$output_processor@DV?$stream_output_adapter@D@__crt_stdio_output@@V?$format_validation_base@DV?$stream_output_adapter@D@__crt_stdio_output@@@2@@__crt_stdio_output@@AAE_ND@Z 10035020 f i libucrt:output.obj
 0001:000340cb       ?write_stored_string_tchar@?$output_processor@DV?$stream_output_adapter@D@__crt_stdio_output@@V?$positional_parameter_base@DV?$stream_output_adapter@D@__crt_stdio_output@@@2@@__crt_stdio_output@@AAE_ND@Z 100350cb f i libucrt:output.obj
 0001:00034176       ?write_stored_string_tchar@?$output_processor@DV?$stream_output_adapter@D@__crt_stdio_output@@V?$standard_base@DV?$stream_output_adapter@D@__crt_stdio_output@@@2@@__crt_stdio_output@@AAE_ND@Z 10035176 f i libucrt:output.obj
 0001:00034221       ?write_stored_string_tchar@?$output_processor@DV?$string_output_adapter@D@__crt_stdio_output@@V?$format_validation_base@DV?$string_output_adapter@D@__crt_stdio_output@@@2@@__crt_stdio_output@@AAE_ND@Z 10035221 f i libucrt:output.obj
 0001:000342cc       ?write_stored_string_tchar@?$output_processor@DV?$string_output_adapter@D@__crt_stdio_output@@V?$positional_parameter_base@DV?$string_output_adapter@D@__crt_stdio_output@@@2@@__crt_stdio_output@@AAE_ND@Z 100352cc f i libucrt:output.obj
 0001:00034377       ?write_stored_string_tchar@?$output_processor@DV?$string_output_adapter@D@__crt_stdio_output@@V?$standard_base@DV?$string_output_adapter@D@__crt_stdio_output@@@2@@__crt_stdio_output@@AAE_ND@Z 10035377 f i libucrt:output.obj
 0001:00034422       ?write_stored_string_tchar@?$output_processor@_WV?$stream_output_adapter@_W@__crt_stdio_output@@V?$format_validation_base@_WV?$stream_output_adapter@_W@__crt_stdio_output@@@2@@__crt_stdio_output@@AAE_N_W@Z 10035422 f i libucrt:output.obj
 0001:000344cf       ?write_stored_string_tchar@?$output_processor@_WV?$stream_output_adapter@_W@__crt_stdio_output@@V?$positional_parameter_base@_WV?$stream_output_adapter@_W@__crt_stdio_output@@@2@@__crt_stdio_output@@AAE_N_W@Z 100354cf f i libucrt:output.obj
 0001:0003457c       ?write_stored_string_tchar@?$output_processor@_WV?$stream_output_adapter@_W@__crt_stdio_output@@V?$standard_base@_WV?$stream_output_adapter@_W@__crt_stdio_output@@@2@@__crt_stdio_output@@AAE_N_W@Z 1003557c f i libucrt:output.obj
 0001:00034629       ?write_stored_string_tchar@?$output_processor@_WV?$string_output_adapter@_W@__crt_stdio_output@@V?$format_validation_base@_WV?$string_output_adapter@_W@__crt_stdio_output@@@2@@__crt_stdio_output@@AAE_N_W@Z 10035629 f i libucrt:output.obj
 0001:00034706       ?write_stored_string_tchar@?$output_processor@_WV?$string_output_adapter@_W@__crt_stdio_output@@V?$positional_parameter_base@_WV?$string_output_adapter@_W@__crt_stdio_output@@@2@@__crt_stdio_output@@AAE_N_W@Z 10035706 f i libucrt:output.obj
 0001:000347e3       ?write_stored_string_tchar@?$output_processor@_WV?$string_output_adapter@_W@__crt_stdio_output@@V?$standard_base@_WV?$string_output_adapter@_W@__crt_stdio_output@@@2@@__crt_stdio_output@@AAE_N_W@Z 100357e3 f i libucrt:output.obj
 0001:000348c0       ?write_string@?$stream_output_adapter@D@__crt_stdio_output@@QBEXQBDHQAHAAV__crt_cached_ptd_host@@@Z 100358c0 f i libucrt:output.obj
 0001:000348ec       ?write_string@?$stream_output_adapter@_W@__crt_stdio_output@@QBEXQB_WHQAHAAV__crt_cached_ptd_host@@@Z 100358ec f i libucrt:output.obj
 0001:00034918       ?write_string@?$string_output_adapter@D@__crt_stdio_output@@QBEXQBDHQAHAAV__crt_cached_ptd_host@@@Z 10035918 f i libucrt:output.obj
 0001:0003497f       ?write_string@?$string_output_adapter@_W@__crt_stdio_output@@QBEXQB_WHQAHAAV__crt_cached_ptd_host@@@Z 1003597f f i libucrt:output.obj
 0001:000349f0       ?write_string_impl@?$output_adapter_common@DV?$stream_output_adapter@D@__crt_stdio_output@@@__crt_stdio_output@@IBEXQBDHQAHAAV__crt_cached_ptd_host@@@Z 100359f0 f i libucrt:output.obj
 0001:00034a6f       ?write_string_impl@?$output_adapter_common@_WV?$stream_output_adapter@_W@__crt_stdio_output@@@__crt_stdio_output@@IBEXQB_WHQAHAAV__crt_cached_ptd_host@@@Z 10035a6f f i libucrt:output.obj
 0001:00034af1       ___acrt_disable_global_locale_sync 10035af1 f i libucrt:output.obj
 0001:00034b04       ___acrt_isleadbyte_l_noupdate 10035b04 f i libucrt:output.obj
 0001:00034b22       ___acrt_locale_get_ctype_array_value 10035b22 f i libucrt:output.obj
 0001:00034b44       ___ascii_iswalpha          10035b44 f i libucrt:output.obj
 0001:00034b67       ___ascii_toupper           10035b67 f i libucrt:output.obj
 0001:00034b7e       ___ascii_towupper          10035b7e f i libucrt:output.obj
 0001:00034b95       ___stdio_common_vfprintf   10035b95 f   libucrt:output.obj
 0001:00034c39       ___stdio_common_vfprintf_p 10035c39 f   libucrt:output.obj
 0001:00034cdd       ___stdio_common_vfprintf_s 10035cdd f   libucrt:output.obj
 0001:00034d81       ___stdio_common_vfwprintf  10035d81 f   libucrt:output.obj
 0001:00034e25       ___stdio_common_vfwprintf_p 10035e25 f   libucrt:output.obj
 0001:00034ec9       ___stdio_common_vfwprintf_s 10035ec9 f   libucrt:output.obj
 0001:00034f6d       ___stdio_common_vsnprintf_s 10035f6d f   libucrt:output.obj
 0001:00034fb1       ___stdio_common_vsnwprintf_s 10035fb1 f   libucrt:output.obj
 0001:00034ff5       ___stdio_common_vsprintf   10035ff5 f   libucrt:output.obj
 0001:00035036       ___stdio_common_vsprintf_p 10036036 f   libucrt:output.obj
 0001:00035077       ___stdio_common_vsprintf_s 10036077 f   libucrt:output.obj
 0001:000350b8       ___stdio_common_vswprintf  100360b8 f   libucrt:output.obj
 0001:000350f9       ___stdio_common_vswprintf_p 100360f9 f   libucrt:output.obj
 0001:0003513a       ___stdio_common_vswprintf_s 1003613a f   libucrt:output.obj
 0001:0003517b       __ctype_fast_check_internal 1003617b f i libucrt:output.obj
 0001:00035195       __isdigit_fast_internal    10036195 f i libucrt:output.obj
 0001:000351af       __tolower_fast_internal    100361af f i libucrt:output.obj
 0001:000351c8       _wmemcpy                   100361c8 f i libucrt:wmemcpy_s.obj
 0001:000351e3       _wmemcpy_s                 100361e3 f   libucrt:wmemcpy_s.obj
 0001:00035267       _wmemset                   10036267 f i libucrt:wmemcpy_s.obj
 0001:00035293       _free                      10036293 f   libucrt:free.obj
 0001:000352ae       ??0?$__crt_scoped_stack_ptr@_W@@QAE@U?$__crt_scoped_stack_ptr_tag@_W@@@Z 100362ae f i libucrt:wcsupr.obj
 0001:000352be       ??0?$__crt_scoped_stack_ptr_tag@_W@@QAE@QA_W@Z 100362be f i libucrt:wcsupr.obj
 0001:000352ce       ??0_LocaleUpdate@@QAE@QAU__crt_locale_pointers@@@Z 100362ce f i libucrt:wcsupr.obj
 0001:00035350       ??1?$__crt_scoped_stack_ptr@_W@@QAE@XZ 10036350 f i libucrt:wcsupr.obj
 0001:00035359       ??1_LocaleUpdate@@QAE@XZ   10036359 f i libucrt:wcsupr.obj
 0001:00035369       ?GetLocaleT@_LocaleUpdate@@QAEPAU__crt_locale_pointers@@XZ 10036369 f i libucrt:wcsupr.obj
 0001:000354e6       ?get@?$__crt_scoped_stack_ptr@_W@@QBEPA_WXZ 100364e6 f i libucrt:wcsupr.obj
 0001:000354e9       __MallocaComputeSize       100364e9 f i libucrt:wcsupr.obj
 0001:000354fc       __MarkAllocaS              100364fc f i libucrt:wcsupr.obj
 0001:00035512       __freea_crt                10036512 f i libucrt:wcsupr.obj
 0001:00035532       __wcsupr                   10036532 f   libucrt:wcsupr.obj
 0001:0003559f       __wcsupr_l                 1003659f f   libucrt:wcsupr.obj
 0001:000355b9       __wcsupr_s                 100365b9 f   libucrt:wcsupr.obj
 0001:000355d0       __wcsupr_s_l               100365d0 f   libucrt:wcsupr.obj
 0001:00035607       _malloc                    10036607 f   libucrt:malloc.obj
 0001:00035612       _realloc                   10036612 f   libucrt:realloc.obj
 0001:0003561d       ??$?B$$A6GXPAXK0@Z@__crt_fast_encoded_nullptr_t@@QBEP6GXPAXK0@ZXZ 1003661d f i libucrt:exit.obj
 0001:000356c5       ??$__crt_fast_decode_pointer@P6GXPAXK0@Z@@YAP6GXPAXK0@ZQ6GX0K0@Z@Z 100366c5 f i libucrt:exit.obj
 0001:000356e0       ??$__crt_fast_encode_pointer@P6GXPAXK0@Z@@YAP6GXPAXK0@ZQ6GX0K0@Z@Z 100366e0 f i libucrt:exit.obj
 0001:000356ff       ??$__crt_get_proc_address@P6GXI@Z@@YAP6GXI@ZQAUHINSTANCE__@@QBD@Z 100366ff f i libucrt:exit.obj
 0001:00035752       ??0?$__crt_unique_handle_t@U__crt_hmodule_traits@@@@QAE@QAUHINSTANCE__@@@Z 10036752 f i libucrt:exit.obj
 0001:00035762       ??1?$__crt_unique_handle_t@U__crt_hmodule_traits@@@@QAE@XZ 10036762 f i libucrt:exit.obj
 0001:00035873       ?__acrt_select_exit_lock@@YA?AW4__acrt_lock_id@@XZ 10036873 f i libucrt:exit.obj
 0001:00035877       ?__crt_fast_encode_pointer@@YA?AU__crt_fast_encoded_nullptr_t@@$$T@Z 10036877 f i libucrt:exit.obj
 0001:00035895       ?close@?$__crt_unique_handle_t@U__crt_hmodule_traits@@@@QAEXXZ 10036895 f i libucrt:exit.obj
 0001:000358ac       ?close@__crt_hmodule_traits@@SA_NPAUHINSTANCE__@@@Z 100368ac f i libucrt:exit.obj
 0001:00035989       ?get@?$__crt_unique_handle_t@U__crt_hmodule_traits@@@@QBEPAUHINSTANCE__@@XZ 10036989 f i libucrt:exit.obj
 0001:0003598c       ?get_address_of@?$__crt_unique_handle_t@U__crt_hmodule_traits@@@@QAEPAPAUHINSTANCE__@@XZ 1003698c f i libucrt:exit.obj
 0001:0003598f       ?get_invalid_value@__crt_hmodule_traits@@SAPAUHINSTANCE__@@XZ 1003698f f i libucrt:exit.obj
 0001:00035a6f       __Exit                     10036a6f f   libucrt:exit.obj
 0001:00035a85       ___acrt_initialize_thread_local_exit_callback 10036a85 f   libucrt:exit.obj
 0001:00035a94       __c_exit                   10036a94 f   libucrt:exit.obj
 0001:00035aa3       __cexit                    10036aa3 f   libucrt:exit.obj
 0001:00035ab2       __exit                     10036ab2 f   libucrt:exit.obj
 0001:00035ac8       __is_c_termination_complete 10036ac8 f   libucrt:exit.obj
 0001:00035acf       __register_thread_local_exe_atexit_callback 10036acf f   libucrt:exit.obj
 0001:00035af5       _exit                      10036af5 f   libucrt:exit.obj
 0001:00035b0b       _quick_exit                10036b0b f   libucrt:exit.obj
 0001:00035b21       __set_abort_behavior       10036b21 f   libucrt:abort.obj
 0001:00035b42       _abort                     10036b42 f   libucrt:abort.obj
 0001:00035b86       ___iswcsym                 10036b86 f i libucrt:_wctype.obj
 0001:00035bac       ___iswcsymf                10036bac f i libucrt:_wctype.obj
 0001:00035bd2       __isleadbyte_l             10036bd2 f i libucrt:_wctype.obj
 0001:00035c0c       __iswalnum_l               10036c0c f i libucrt:_wctype.obj
 0001:00035c22       __iswalpha_l               10036c22 f i libucrt:_wctype.obj
 0001:00035c38       __iswblank_l               10036c38 f i libucrt:_wctype.obj
 0001:00035c55       __iswcntrl_l               10036c55 f i libucrt:_wctype.obj
 0001:00035c68       __iswcsym_l                10036c68 f i libucrt:_wctype.obj
 0001:00035c8e       __iswcsymf_l               10036c8e f i libucrt:_wctype.obj
 0001:00035cb4       __iswdigit_l               10036cb4 f i libucrt:_wctype.obj
 0001:00035cc7       __iswgraph_l               10036cc7 f i libucrt:_wctype.obj
 0001:00035cdd       __iswlower_l               10036cdd f i libucrt:_wctype.obj
 0001:00035cf0       __iswprint_l               10036cf0 f i libucrt:_wctype.obj
 0001:00035d06       __iswpunct_l               10036d06 f i libucrt:_wctype.obj
 0001:00035d19       __iswspace_l               10036d19 f i libucrt:_wctype.obj
 0001:00035d2c       __iswupper_l               10036d2c f i libucrt:_wctype.obj
 0001:00035d3f       __iswxdigit_l              10036d3f f i libucrt:_wctype.obj
 0001:00035d55       _isleadbyte                10036d55 f i libucrt:_wctype.obj
 0001:00035d68       _iswalnum                  10036d68 f i libucrt:_wctype.obj
 0001:00035d7e       _iswalpha                  10036d7e f i libucrt:_wctype.obj
 0001:00035d94       _iswascii                  10036d94 f i libucrt:_wctype.obj
 0001:00035da8       _iswblank                  10036da8 f i libucrt:_wctype.obj
 0001:00035dc5       _iswcntrl                  10036dc5 f i libucrt:_wctype.obj
 0001:00035dd8       _iswdigit                  10036dd8 f i libucrt:_wctype.obj
 0001:00035deb       _iswgraph                  10036deb f i libucrt:_wctype.obj
 0001:00035e01       _iswlower                  10036e01 f i libucrt:_wctype.obj
 0001:00035e14       _iswprint                  10036e14 f i libucrt:_wctype.obj
 0001:00035e2a       _iswpunct                  10036e2a f i libucrt:_wctype.obj
 0001:00035e3d       _iswspace                  10036e3d f i libucrt:_wctype.obj
 0001:00035e50       _iswupper                  10036e50 f i libucrt:_wctype.obj
 0001:00035e63       _iswxdigit                 10036e63 f i libucrt:_wctype.obj
 0001:00035e79       _wcscmp                    10036e79 f   libucrt:wcscmp.obj
 0001:00035eb9       ___ascii_tolower           10036eb9 f i libucrt:wcsicmp.obj
 0001:00035ed0       ___ascii_towlower          10036ed0 f i libucrt:wcsicmp.obj
 0001:00035ee7       ___ascii_wcsicmp           10036ee7 f   libucrt:wcsicmp.obj
 0001:00035f24       __towlower_fast_internal   10036f24 f i libucrt:wcsicmp.obj
 0001:00035f4f       __towlower_internal        10036f4f f i libucrt:wcsicmp.obj
 0001:00035f8e       __wcsicmp                  10036f8e f   libucrt:wcsicmp.obj
 0001:00035fd7       __wcsicmp_l                10036fd7 f   libucrt:wcsicmp.obj
 0001:0003608f       ??B?$__crt_scoped_stack_ptr@_W@@QBE_NXZ 1003708f f i libucrt:wcslwr.obj
 0001:0003620f       __wcslwr                   1003720f f   libucrt:wcslwr.obj
 0001:0003627c       __wcslwr_l                 1003727c f   libucrt:wcslwr.obj
 0001:00036296       __wcslwr_s                 10037296 f   libucrt:wcslwr.obj
 0001:000362ad       __wcslwr_s_l               100372ad f   libucrt:wcslwr.obj
 0001:000362e4       ??$?RPAU__crt_stdio_stream_data@@@__crt_internal_free_policy@@QBEXQBQAU__crt_stdio_stream_data@@@Z 100372e4 f i libucrt:_file.obj
 0001:000362f6       ??0?$__crt_unique_heap_ptr@PAU__crt_stdio_stream_data@@U__crt_internal_free_policy@@@@QAE@QAPAU__crt_stdio_stream_data@@@Z 100372f6 f i libucrt:_file.obj
 0001:00036306       ??1?$__crt_unique_heap_ptr@PAU__crt_stdio_stream_data@@U__crt_internal_free_policy@@@@QAE@XZ 10037306 f i libucrt:_file.obj
 0001:00036318       ?detach@?$__crt_unique_heap_ptr@PAU__crt_stdio_stream_data@@U__crt_internal_free_policy@@@@QAEPAPAU__crt_stdio_stream_data@@XZ 10037318 f i libucrt:_file.obj
 0001:0003631e       ?release@?$__crt_unique_heap_ptr@PAU__crt_stdio_stream_data@@U__crt_internal_free_policy@@@@QAEXXZ 1003731e f i libucrt:_file.obj
 0001:00036330       ___acrt_initialize_stdio   10037330 f   libucrt:_file.obj
 0001:000363f8       ___acrt_iob_func           100373f8 f   libucrt:_file.obj
 0001:00036408       ___acrt_uninitialize_stdio 10037408 f   libucrt:_file.obj
 0001:00036454       __get_stream_buffer_pointers 10037454 f   libucrt:_file.obj
 0001:0003649a       __lock_file                1003749a f   libucrt:_file.obj
 0001:000364ae       __unlock_file              100374ae f   libucrt:_file.obj
 0001:0003666e       _fputws                    1003766e f   libucrt:fputws.obj
 0001:000368ed       ??$open_file@ABQBDABQBDABHPAU_iobuf@@@?$__crt_char_traits@D@@SAPAU_iobuf@@ABQBD0ABH$$QAPAU1@@Z 100378ed f i libucrt:fopen.obj
 0001:00036910       ??$open_file@ABQB_WABQB_WABHPAU_iobuf@@@?$__crt_char_traits@_W@@SAPAU_iobuf@@ABQB_W0ABH$$QAPAU1@@Z 10037910 f i libucrt:fopen.obj
 0001:00036933       ?unlock@__crt_stdio_stream@@QBEXXZ 10037933 f i libucrt:fopen.obj
 0001:0003693c       __fsopen                   1003793c f   libucrt:fopen.obj
 0001:00036947       __wfopen                   10037947 f   libucrt:fopen.obj
 0001:0003695e       __wfopen_s                 1003795e f   libucrt:fopen.obj
 0001:000369a5       __wfsopen                  100379a5 f   libucrt:fopen.obj
 0001:000369b0       _fopen                     100379b0 f   libucrt:fopen.obj
 0001:000369c7       _fopen_s                   100379c7 f   libucrt:fopen.obj
 0001:00036a0e       ??$?R_W@__crt_internal_free_policy@@QBEXQB_W@Z 10037a0e f i libucrt:wcsftime.obj
 0001:00036a20       ??$__crt_time_is_leap_year@H@@YA_NH@Z 10037a20 f i libucrt:wcsftime.obj
 0001:00036a63       ??0?$__crt_unique_heap_ptr@_WU__crt_internal_free_policy@@@@QAE@QA_W@Z 10037a63 f i libucrt:wcsftime.obj
 0001:00036a73       ??1?$__crt_unique_heap_ptr@_WU__crt_internal_free_policy@@@@QAE@XZ 10037a73 f i libucrt:wcsftime.obj
 0001:00036a85       ?__crt_get_2digit_year@@YAHH@Z 10037a85 f i libucrt:wcsftime.obj
 0001:00036a9c       ?__crt_get_century@@YAHH@Z 10037a9c f i libucrt:wcsftime.obj
 0001:00036bd9       ?detach@?$__crt_unique_heap_ptr@_WU__crt_internal_free_policy@@@@QAEPA_WXZ 10037bd9 f i libucrt:wcsftime.obj
 0001:000375b3       ?get@?$__crt_unique_heap_ptr@_WU__crt_internal_free_policy@@@@QBEPA_WXZ 100385b3 f i libucrt:wcsftime.obj
 0001:000375b6       ?release@?$__crt_unique_heap_ptr@_WU__crt_internal_free_policy@@@@QAEXXZ 100385b6 f i libucrt:wcsftime.obj
 0001:00037b46       __W_Getdays                10038b46 f   libucrt:wcsftime.obj
 0001:00037ca5       __W_Getmonths              10038ca5 f   libucrt:wcsftime.obj
 0001:00037e04       __W_Gettnames              10038e04 f   libucrt:wcsftime.obj
 0001:00038500       __Wcsftime                 10039500 f   libucrt:wcsftime.obj
 0001:00038520       __Wcsftime_l               10039520 f   libucrt:wcsftime.obj
 0001:00038680       __invoke_watson_if_error   10039680 f i libucrt:wcsftime.obj
 0001:000386a2       __wcsftime_l               100396a2 f   libucrt:wcsftime.obj
 0001:000386c2       _wcsftime                  100396c2 f   libucrt:wcsftime.obj
 0001:00038806       ?is_in_use@__crt_stdio_stream@@QBE_NXZ 10039806 f i libucrt:fclose.obj
 0001:00038812       __fclose_nolock            10039812 f   libucrt:fclose.obj
 0001:00038842       _fclose                    10039842 f   libucrt:fclose.obj
 0001:00038aaf       _fputs                     10039aaf f   libucrt:fputs.obj
 0001:00038ae3       ??$?RU__acrt_thread_parameter@@@__crt_internal_free_policy@@QBEXQBU__acrt_thread_parameter@@@Z 10039ae3 f i libucrt:thread.obj
 0001:00038bf3       ??0?$__crt_unique_heap_ptr@U__acrt_thread_parameter@@U__crt_internal_free_policy@@@@QAE@QAU__acrt_thread_parameter@@@Z 10039bf3 f i libucrt:thread.obj
 0001:00038c13       ??1?$__crt_unique_heap_ptr@U__acrt_thread_parameter@@U__crt_internal_free_policy@@@@QAE@XZ 10039c13 f i libucrt:thread.obj
 0001:00038d41       ?detach@?$__crt_unique_heap_ptr@U__acrt_thread_parameter@@U__crt_internal_free_policy@@@@QAEPAU__acrt_thread_parameter@@XZ 10039d41 f i libucrt:thread.obj
 0001:00038d57       ?release@?$__crt_unique_heap_ptr@U__acrt_thread_parameter@@U__crt_internal_free_policy@@@@QAEXXZ 10039d57 f i libucrt:thread.obj
 0001:00038da0       __beginthread              10039da0 f   libucrt:thread.obj
 0001:00038e2e       __beginthreadex            10039e2e f   libucrt:thread.obj
 0001:00038eb1       __endthread                10039eb1 f   libucrt:thread.obj
 0001:00038eb9       __endthreadex              10039eb9 f   libucrt:thread.obj
 0001:00038ec7       ??$?B$$A6AXH@Z@__crt_fast_encoded_nullptr_t@@QBEP6AXH@ZXZ 10039ec7 f i libucrt:signal.obj
 0001:00038f5b       ??$__crt_fast_decode_pointer@P6AXH@Z@@YAP6AXH@ZQ6AXH@Z@Z 10039f5b f i libucrt:signal.obj
 0001:00038f76       ??$__crt_fast_encode_pointer@P6AXH@Z@@YAP6AXH@ZQ6AXH@Z@Z 10039f76 f i libucrt:signal.obj
 0001:000390d2       ?initialize@?$dual_state_global@P6AXH@Z@__crt_state_management@@QAEXQ6AXH@Z@Z 1003a0d2 f i libucrt:signal.obj
 0001:0003917c       ?value@?$dual_state_global@P6AXH@Z@__crt_state_management@@QAEAAP6AXH@ZXZ 1003a17c f i libucrt:signal.obj
 0001:0003917f       ___acrt_get_sigabrt_handler 1003a17f f   libucrt:signal.obj
 0001:000391a6       ___acrt_initialize_signal_handlers 1003a1a6 f   libucrt:signal.obj
 0001:000391c4       ___fpecode                 1003a1c4 f   libucrt:signal.obj
 0001:000391cd       ___pxcptinfoptrs           1003a1cd f   libucrt:signal.obj
 0001:000391d6       _raise                     1003a1d6 f   libucrt:signal.obj
 0001:000393c8       _signal                    1003a3c8 f   libucrt:signal.obj
 0001:00039a88       ??$gmtime_s@ABQAUtm@@ABQBJ@?$__crt_integer_traits@J@@SAHABQAUtm@@ABQBJ@Z 1003aa88 f i libucrt:localtime.obj
 0001:00039aa0       ??$gmtime_s@ABQAUtm@@ABQB_J@?$__crt_integer_traits@_J@@SAHABQAUtm@@ABQB_J@Z 1003aaa0 f i libucrt:localtime.obj
 0001:00039ab8       ??$gmtime_s@ABQAUtm@@PAJ@?$__crt_integer_traits@J@@SAHABQAUtm@@$$QAPAJ@Z 1003aab8 f i libucrt:localtime.obj
 0001:00039ad0       ??$gmtime_s@ABQAUtm@@PA_J@?$__crt_integer_traits@_J@@SAHABQAUtm@@$$QAPA_J@Z 1003aad0 f i libucrt:localtime.obj
 0001:00039ae8       ??$localtime_s@ABQAUtm@@ABQBJ@?$__crt_integer_traits@J@@SAHABQAUtm@@ABQBJ@Z 1003aae8 f i libucrt:localtime.obj
 0001:00039b01       ??$localtime_s@ABQAUtm@@ABQB_J@?$__crt_integer_traits@_J@@SAHABQAUtm@@ABQB_J@Z 1003ab01 f i libucrt:localtime.obj
 0001:00039b1a       __localtime32              1003ab1a f   libucrt:localtime.obj
 0001:00039b41       __localtime32_s            1003ab41 f   libucrt:localtime.obj
 0001:00039b4c       __localtime64              1003ab4c f   libucrt:localtime.obj
 0001:00039b73       __localtime64_s            1003ab73 f   libucrt:localtime.obj
 0001:00039e8d       __time32                   1003ae8d f   libucrt:time.obj
 0001:00039eec       __time64                   1003aeec f   libucrt:time.obj
 0001:00039f54       __timespec32_get           1003af54 f   libucrt:time.obj
 0001:00039f5f       __timespec64_get           1003af5f f   libucrt:time.obj
 0001:00039f80       __get_terminate            1003af80 f   libucrt:terminate.obj
 0001:00039f92       _set_terminate             1003af92 f   libucrt:terminate.obj
 0001:00039fb2       _terminate                 1003afb2 f   libucrt:terminate.obj
 0001:00039fee       __recalloc                 1003afee f   libucrt:recalloc.obj
 0001:00039ff9       __recalloc_base            1003aff9 f   libucrt:recalloc.obj
 0001:0003a070       _strlen                    1003b070 f   libucrt:strlen.obj
 0001:0003a0fb       ??$?B$$A6AHI@Z@__crt_fast_encoded_nullptr_t@@QBEP6AHI@ZXZ 1003b0fb f i libucrt:new_handler.obj
 0001:0003a101       ??$__crt_fast_decode_pointer@P6AHI@Z@@YAP6AHI@ZQ6AHI@Z@Z 1003b101 f i libucrt:new_handler.obj
 0001:0003a11c       ??$__crt_fast_encode_pointer@P6AHI@Z@@YAP6AHI@ZQ6AHI@Z@Z 1003b11c f i libucrt:new_handler.obj
 0001:0003a13b       ?_set_new_handler@@YAP6AHI@ZH@Z 1003b13b f   libucrt:new_handler.obj
 0001:0003a148       ?initialize@?$dual_state_global@P6AHI@Z@__crt_state_management@@QAEXQ6AHI@Z@Z 1003b148 f i libucrt:new_handler.obj
 0001:0003a164       ?value@?$dual_state_global@P6AHI@Z@__crt_state_management@@QAEAAP6AHI@ZXZ 1003b164 f i libucrt:new_handler.obj
 0001:0003a167       ___acrt_initialize_new_handler 1003b167 f   libucrt:new_handler.obj
 0001:0003a176       __callnewh                 1003b176 f   libucrt:new_handler.obj
 0001:0003a1a2       __query_new_handler        1003b1a2 f   libucrt:new_handler.obj
 0001:0003a1f9       __set_new_handler          1003b1f9 f   libucrt:new_handler.obj
 0001:0003a282       __seh_filter_dll           1003b282 f   libucrt:exception_filter.obj
 0001:0003a2a2       __seh_filter_exe           1003b2a2 f   libucrt:exception_filter.obj
 0001:0003a3e8       ??$?RE@__crt_internal_free_policy@@QBEXQBE@Z 1003b3e8 f i libucrt:argv_parsing.obj
 0001:0003a3fa       ??$?RPAD@__crt_internal_free_policy@@QBEXQBQAD@Z 1003b3fa f i libucrt:argv_parsing.obj
 0001:0003a40c       ??$?RPA_W@__crt_internal_free_policy@@QBEXQBQA_W@Z 1003b40c f i libucrt:argv_parsing.obj
 0001:0003a691       ??$get_module_file_name@$$TAAY0BAF@DH@?$__crt_char_traits@D@@SAK$$QA$$TAAY0BAF@D$$QAH@Z 1003b691 f i libucrt:argv_parsing.obj
 0001:0003a6ad       ??$get_module_file_name@$$TAAY0BAF@_WH@?$__crt_char_traits@_W@@SAK$$QA$$TAAY0BAF@_W$$QAH@Z 1003b6ad f i libucrt:argv_parsing.obj
 0001:0003a9dc       ??$set_program_name@PAD@?$__crt_char_traits@D@@SAX$$QAPAD@Z 1003b9dc f i libucrt:argv_parsing.obj
 0001:0003a9ed       ??$set_program_name@PA_W@?$__crt_char_traits@_W@@SAX$$QAPA_W@Z 1003b9ed f i libucrt:argv_parsing.obj
 0001:0003aa1e       ??0?$__crt_unique_heap_ptr@EU__crt_internal_free_policy@@@@QAE@QAE@Z 1003ba1e f i libucrt:argv_parsing.obj
 0001:0003aa2e       ??0?$__crt_unique_heap_ptr@PADU__crt_internal_free_policy@@@@QAE@QAPAD@Z 1003ba2e f i libucrt:argv_parsing.obj
 0001:0003aa3e       ??0?$__crt_unique_heap_ptr@PA_WU__crt_internal_free_policy@@@@QAE@QAPA_W@Z 1003ba3e f i libucrt:argv_parsing.obj
 0001:0003aa4e       ??1?$__crt_unique_heap_ptr@EU__crt_internal_free_policy@@@@QAE@XZ 1003ba4e f i libucrt:argv_parsing.obj
 0001:0003aa60       ??1?$__crt_unique_heap_ptr@PADU__crt_internal_free_policy@@@@QAE@XZ 1003ba60 f i libucrt:argv_parsing.obj
 0001:0003aa72       ??1?$__crt_unique_heap_ptr@PA_WU__crt_internal_free_policy@@@@QAE@XZ 1003ba72 f i libucrt:argv_parsing.obj
 0001:0003aa84       ??B?$__crt_unique_heap_ptr@EU__crt_internal_free_policy@@@@QBE_NXZ 1003ba84 f i libucrt:argv_parsing.obj
 0001:0003aab7       ?detach@?$__crt_unique_heap_ptr@EU__crt_internal_free_policy@@@@QAEPAEXZ 1003bab7 f i libucrt:argv_parsing.obj
 0001:0003aabd       ?detach@?$__crt_unique_heap_ptr@PADU__crt_internal_free_policy@@@@QAEPAPADXZ 1003babd f i libucrt:argv_parsing.obj
 0001:0003aac3       ?detach@?$__crt_unique_heap_ptr@PA_WU__crt_internal_free_policy@@@@QAEPAPA_WXZ 1003bac3 f i libucrt:argv_parsing.obj
 0001:0003aae7       ?get@?$__crt_unique_heap_ptr@EU__crt_internal_free_policy@@@@QBEPAEXZ 1003bae7 f i libucrt:argv_parsing.obj
 0001:0003aaea       ?get@?$__crt_unique_heap_ptr@PADU__crt_internal_free_policy@@@@QBEPAPADXZ 1003baea f i libucrt:argv_parsing.obj
 0001:0003aaed       ?get@?$__crt_unique_heap_ptr@PA_WU__crt_internal_free_policy@@@@QBEPAPA_WXZ 1003baed f i libucrt:argv_parsing.obj
 0001:0003aaf0       ?get_address_of@?$__crt_unique_heap_ptr@PADU__crt_internal_free_policy@@@@QAEPAPAPADXZ 1003baf0 f i libucrt:argv_parsing.obj
 0001:0003aaf3       ?get_address_of@?$__crt_unique_heap_ptr@PA_WU__crt_internal_free_policy@@@@QAEPAPAPA_WXZ 1003baf3 f i libucrt:argv_parsing.obj
 0001:0003ab0e       ?is_valid@?$__crt_unique_heap_ptr@EU__crt_internal_free_policy@@@@QBE_NXZ 1003bb0e f i libucrt:argv_parsing.obj
 0001:0003ab15       ?release@?$__crt_unique_heap_ptr@EU__crt_internal_free_policy@@@@QAEXXZ 1003bb15 f i libucrt:argv_parsing.obj
 0001:0003ab27       ?release@?$__crt_unique_heap_ptr@PADU__crt_internal_free_policy@@@@QAEXXZ 1003bb27 f i libucrt:argv_parsing.obj
 0001:0003ab39       ?release@?$__crt_unique_heap_ptr@PA_WU__crt_internal_free_policy@@@@QAEXXZ 1003bb39 f i libucrt:argv_parsing.obj
 0001:0003ab65       ___acrt_allocate_buffer_for_argv 1003bb65 f   libucrt:argv_parsing.obj
 0001:0003abb4       __configure_narrow_argv    1003bbb4 f   libucrt:argv_parsing.obj
 0001:0003abbf       __configure_wide_argv      1003bbbf f   libucrt:argv_parsing.obj
 0001:0003abca       __set_pgmptr               1003bbca f i libucrt:argv_parsing.obj
 0001:0003abd9       __set_wpgmptr              1003bbd9 f i libucrt:argv_parsing.obj
 0001:0003aff2       ??$get_environment_from_os@$$V@?$__crt_char_traits@D@@SAPADXZ 1003bff2 f i libucrt:environment_initialization.obj
 0001:0003aff7       ??$get_environment_from_os@$$V@?$__crt_char_traits@_W@@SAPA_WXZ 1003bff7 f i libucrt:environment_initialization.obj
 0001:0003b100       ??$set_variable_in_environment_nolock@PADH@?$__crt_char_traits@D@@SAH$$QAPAD$$QAH@Z 1003c100 f i libucrt:environment_initialization.obj
 0001:0003b118       ??$set_variable_in_environment_nolock@PA_WH@?$__crt_char_traits@_W@@SAH$$QAPA_W$$QAH@Z 1003c118 f i libucrt:environment_initialization.obj
 0001:0003b130       ??$tcscpy_s@PADABIAAPAD@?$__crt_char_traits@D@@SAH$$QAPADABIAAPAD@Z 1003c130 f i libucrt:environment_initialization.obj
 0001:0003b14e       ??$tcscpy_s@PA_WABIAAPA_W@?$__crt_char_traits@_W@@SAH$$QAPA_WABIAAPA_W@Z 1003c14e f i libucrt:environment_initialization.obj
 0001:0003b16c       ??$tcslen@AAPAD@?$__crt_char_traits@D@@SAIAAPAD@Z 1003c16c f i libucrt:environment_initialization.obj
 0001:0003b184       ??$tcslen@AAPA_W@?$__crt_char_traits@_W@@SAIAAPA_W@Z 1003c184 f i libucrt:environment_initialization.obj
 0001:0003b1a2       ??$uninitialize@A6AXAAPAPAD@_E@?$dual_state_global@PAPAD@__crt_state_management@@QAEXA6AXAAPAPAD@_E@Z 1003c1a2 f i libucrt:environment_initialization.obj
 0001:0003b1fa       ??$uninitialize@A6AXAAPAPA_W@_E@?$dual_state_global@PAPA_W@__crt_state_management@@QAEXA6AXAAPAPA_W@_E@Z 1003c1fa f i libucrt:environment_initialization.obj
 0001:0003b288       ??B?$__crt_unique_heap_ptr@PADU__crt_internal_free_policy@@@@QBE_NXZ 1003c288 f i libucrt:environment_initialization.obj
 0001:0003b28f       ??B?$__crt_unique_heap_ptr@PA_WU__crt_internal_free_policy@@@@QBE_NXZ 1003c28f f i libucrt:environment_initialization.obj
 0001:0003b296       ??B?$__crt_unique_heap_ptr@_WU__crt_internal_free_policy@@@@QBE_NXZ 1003c296 f i libucrt:environment_initialization.obj
 0001:0003b29d       ?__crt_compute_required_transform_buffer_count@@YAIIQBD@Z 1003c29d f i libucrt:environment_initialization.obj
 0001:0003b2b9       ?__crt_compute_required_transform_buffer_count@@YAIIQB_W@Z 1003c2b9 f i libucrt:environment_initialization.obj
 0001:0003b2d7       ?__crt_transform_string@@YAIIQBDQA_WI@Z 1003c2d7 f i libucrt:environment_initialization.obj
 0001:0003b2f6       ?__crt_transform_string@@YAIIQB_WQADI@Z 1003c2f6 f i libucrt:environment_initialization.obj
 0001:0003b318       ?detach@?$__crt_unique_heap_ptr@DU__crt_internal_free_policy@@@@QAEPADXZ 1003c318 f i libucrt:environment_initialization.obj
 0001:0003b342       ?initialize@?$dual_state_global@PAPAD@__crt_state_management@@QAEXQAPAD@Z 1003c342 f i libucrt:environment_initialization.obj
 0001:0003b35e       ?initialize@?$dual_state_global@PAPA_W@__crt_state_management@@QAEXQAPA_W@Z 1003c35e f i libucrt:environment_initialization.obj
 0001:0003b37a       ?is_valid@?$__crt_unique_heap_ptr@PADU__crt_internal_free_policy@@@@QBE_NXZ 1003c37a f i libucrt:environment_initialization.obj
 0001:0003b381       ?is_valid@?$__crt_unique_heap_ptr@PA_WU__crt_internal_free_policy@@@@QBE_NXZ 1003c381 f i libucrt:environment_initialization.obj
 0001:0003b388       ?is_valid@?$__crt_unique_heap_ptr@_WU__crt_internal_free_policy@@@@QBE_NXZ 1003c388 f i libucrt:environment_initialization.obj
 0001:0003b397       ?value@?$dual_state_global@PAPAD@__crt_state_management@@QAEAAPAPADXZ 1003c397 f i libucrt:environment_initialization.obj
 0001:0003b39a       ?value@?$dual_state_global@PAPA_W@__crt_state_management@@QAEAAPAPA_WXZ 1003c39a f i libucrt:environment_initialization.obj
 0001:0003b39d       ___dcrt_get_or_create_narrow_environment_nolock 1003c39d f   libucrt:environment_initialization.obj
 0001:0003b3a2       ___dcrt_get_or_create_wide_environment_nolock 1003c3a2 f   libucrt:environment_initialization.obj
 0001:0003b3a7       ___dcrt_uninitialize_environments_nolock 1003c3a7 f   libucrt:environment_initialization.obj
 0001:0003b3f8       ___p__environ              1003c3f8 f   libucrt:environment_initialization.obj
 0001:0003b3fe       ___p__wenviron             1003c3fe f   libucrt:environment_initialization.obj
 0001:0003b404       __get_initial_narrow_environment 1003c404 f   libucrt:environment_initialization.obj
 0001:0003b418       __get_initial_wide_environment 1003c418 f   libucrt:environment_initialization.obj
 0001:0003b42c       __initialize_narrow_environment 1003c42c f   libucrt:environment_initialization.obj
 0001:0003b431       __initialize_wide_environment 1003c431 f   libucrt:environment_initialization.obj
 0001:0003b436       ??$?B$$A6AXXZ@__crt_fast_encoded_nullptr_t@@QBEP6AXXZXZ 1003c436 f i libucrt:onexit.obj
 0001:0003b43c       ??$?BP6AXXZ@__crt_fast_encoded_nullptr_t@@QBEPAP6AXXZXZ 1003c43c f i libucrt:onexit.obj
 0001:0003b442       ??$?RP6AXXZ@__crt_internal_free_policy@@QBEXQBQ6AXXZ@Z 1003c442 f i libucrt:onexit.obj
 0001:0003b585       ??$__crt_fast_decode_pointer@P6AXXZ@@YAP6AXXZQ6AXXZ@Z 1003c585 f i libucrt:onexit.obj
 0001:0003b5a0       ??$__crt_fast_decode_pointer@PAP6AXXZ@@YAPAP6AXXZQAP6AXXZ@Z 1003c5a0 f i libucrt:onexit.obj
 0001:0003b5bb       ??$__crt_fast_encode_pointer@P6AHXZ@@YAP6AHXZQ6AHXZ@Z 1003c5bb f i libucrt:onexit.obj
 0001:0003b5da       ??$__crt_fast_encode_pointer@P6AXXZ@@YAP6AXXZQ6AXXZ@Z 1003c5da f i libucrt:onexit.obj
 0001:0003b5f9       ??$__crt_fast_encode_pointer@PAP6AXXZ@@YAPAP6AXXZQAP6AXXZ@Z 1003c5f9 f i libucrt:onexit.obj
 0001:0003b686       ??0?$__crt_unique_heap_ptr@P6AXXZU__crt_internal_free_policy@@@@QAE@QAP6AXXZ@Z 1003c686 f i libucrt:onexit.obj
 0001:0003b696       ??1?$__crt_unique_heap_ptr@P6AXXZU__crt_internal_free_policy@@@@QAE@XZ 1003c696 f i libucrt:onexit.obj
 0001:0003b6a8       ??1scoped_global_state_reset@__crt_state_management@@QAE@XZ 1003c6a8 f i libucrt:onexit.obj
 0001:0003b8ab       ?detach@?$__crt_unique_heap_ptr@P6AXXZU__crt_internal_free_policy@@@@QAEPAP6AXXZXZ 1003c8ab f i libucrt:onexit.obj
 0001:0003b8b1       ?release@?$__crt_unique_heap_ptr@P6AXXZU__crt_internal_free_policy@@@@QAEXXZ 1003c8b1 f i libucrt:onexit.obj
 0001:0003b8c3       __crt_at_quick_exit        1003c8c3 f   libucrt:onexit.obj
 0001:0003b8d9       __crt_atexit               1003c8d9 f   libucrt:onexit.obj
 0001:0003b8ef       __execute_onexit_table     1003c8ef f   libucrt:onexit.obj
 0001:0003b92d       __initialize_onexit_table  1003c92d f   libucrt:onexit.obj
 0001:0003b956       __register_onexit_function 1003c956 f   libucrt:onexit.obj
 0001:0003ba65       ??$?BX@__crt_fast_encoded_nullptr_t@@QBEPAXXZ 1003ca65 f i libucrt:initialization.obj
 0001:0003ba6b       ??$__crt_fast_encode_pointer@PAX@@YAPAXQAX@Z 1003ca6b f i libucrt:initialization.obj
 0001:0003badc       ?__acrt_stdio_is_initialized@@YA_NXZ 1003cadc f i libucrt:initialization.obj
 0001:0003bae7       ?initialize@?$dual_state_global@PAU__crt_locale_data@@@__crt_state_management@@QAEXQAU__crt_locale_data@@@Z 1003cae7 f i libucrt:initialization.obj
 0001:0003bb03       ___acrt_initialize         1003cb03 f   libucrt:initialization.obj
 0001:0003bb15       ___acrt_thread_attach      1003cb15 f   libucrt:initialization.obj
 0001:0003bb20       ___acrt_thread_detach      1003cb20 f   libucrt:initialization.obj
 0001:0003bb28       ___acrt_uninitialize       1003cb28 f   libucrt:initialization.obj
 0001:0003bb58       ___acrt_uninitialize_critical 1003cb58 f   libucrt:initialization.obj
 0001:0003bb6a       ?should_round_up@__crt_strtox@@YA_N_N000@Z 1003cb6a f i libucrt:fpexcept.obj
 0001:0003bbb7       __errcode                  1003cbb7 f   libucrt:fpexcept.obj
 0001:0003bbeb       __except1                  1003cbeb f   libucrt:fpexcept.obj
 0001:0003bcb9       __except2                  1003ccb9 f   libucrt:fpexcept.obj
 0001:0003bdc1       __handle_exc               1003cdc1 f   libucrt:fpexcept.obj
 0001:0003c041       __handle_qnan2             1003d041 f   libucrt:fpexcept.obj
 0001:0003c04e       __raise_exc                1003d04e f   libucrt:fpexcept.obj
 0001:0003c071       __raise_exc_ex             1003d071 f   libucrt:fpexcept.obj
 0001:0003c362       __raise_excf               1003d362 f   libucrt:fpexcept.obj
 0001:0003c385       __set_errno_from_matherr   1003d385 f   libucrt:fpexcept.obj
 0001:0003c3b6       __umatherr                 1003d3b6 f   libucrt:fpexcept.obj
 0001:0003c456       __initterm                 1003d456 f   libucrt:initterm.obj
 0001:0003c481       __initterm_e               1003d481 f   libucrt:initterm.obj
 0001:0003c509       _strcpy_s                  1003d509 f   libucrt:strcpy_s.obj
 0001:0003c563       _calloc                    1003d563 f   libucrt:calloc.obj
 0001:0003c56e       ??$is_overflow_condition@_K@__crt_strtox@@YA_NI_K@Z 1003d56e f i libucrt:atox.obj
 0001:0003c5af       ??$make_c_string_character_source@D$$T@__crt_strtox@@YA?AV?$c_string_character_source@D@0@QBD$$T@Z 1003d5af f i libucrt:atox.obj
 0001:0003c5ca       ??$make_c_string_character_source@_W$$T@__crt_strtox@@YA?AV?$c_string_character_source@_W@0@QB_W$$T@Z 1003d5ca f i libucrt:atox.obj
 0001:0003c5e5       ??$parse_integer@KV?$c_string_character_source@D@__crt_strtox@@$00@__crt_strtox@@YAKAAV__crt_cached_ptd_host@@V?$c_string_character_source@D@0@H_N@Z 1003d5e5 f i libucrt:atox.obj
 0001:0003c82c       ??$parse_integer@KV?$c_string_character_source@_W@__crt_strtox@@$00@__crt_strtox@@YAKAAV__crt_cached_ptd_host@@V?$c_string_character_source@_W@0@H_N@Z 1003d82c f i libucrt:atox.obj
 0001:0003ce3a       ??$parse_integer@_KV?$c_string_character_source@D@__crt_strtox@@$00@__crt_strtox@@YA_KAAV__crt_cached_ptd_host@@V?$c_string_character_source@D@0@H_N@Z 1003de3a f i libucrt:atox.obj
 0001:0003d102       ??$parse_integer@_KV?$c_string_character_source@_W@__crt_strtox@@$00@__crt_strtox@@YA_KAAV__crt_cached_ptd_host@@V?$c_string_character_source@_W@0@H_N@Z 1003e102 f i libucrt:atox.obj
 0001:0003d788       ??$parse_integer_from_string@JD$$T@__crt_strtox@@YAJQBD$$THQAU__crt_locale_pointers@@@Z 1003e788 f i libucrt:atox.obj
 0001:0003d7cf       ??$parse_integer_from_string@J_W$$T@__crt_strtox@@YAJQB_W$$THQAU__crt_locale_pointers@@@Z 1003e7cf f i libucrt:atox.obj
 0001:0003d816       ??$parse_integer_from_string@_JD$$T@__crt_strtox@@YA_JQBD$$THQAU__crt_locale_pointers@@@Z 1003e816 f i libucrt:atox.obj
 0001:0003d863       ??$parse_integer_from_string@_J_W$$T@__crt_strtox@@YA_JQB_W$$THQAU__crt_locale_pointers@@@Z 1003e863 f i libucrt:atox.obj
 0001:0003d8b0       ?is_space@__crt_strtox@@YA_NDQAU__crt_locale_pointers@@@Z 1003e8b0 f i libucrt:atox.obj
 0001:0003d8ce       ?is_space@__crt_strtox@@YA_N_WPAU__crt_locale_pointers@@@Z 1003e8ce f i libucrt:atox.obj
 0001:0003d8e6       ?maximum_signed_value@__crt_strtox@@YA_J_K@Z 1003e8e6 f i libucrt:atox.obj
 0001:0003d8ef       ?minimum_signed_value@__crt_strtox@@YA_J_K@Z 1003e8ef f i libucrt:atox.obj
 0001:0003d8f7       ___acrt_get_locale_data_prefix 1003e8f7 f i libucrt:atox.obj
 0001:0003d903       __atoi64                   1003e903 f   libucrt:atox.obj
 0001:0003d948       __atoi64_l                 1003e948 f   libucrt:atox.obj
 0001:0003d98e       __atoi_l                   1003e98e f   libucrt:atox.obj
 0001:0003d9ce       __atol_l                   1003e9ce f   libucrt:atox.obj
 0001:0003da0e       __atoll_l                  1003ea0e f   libucrt:atox.obj
 0001:0003da54       __chvalidchk_l             1003ea54 f i libucrt:atox.obj
 0001:0003da7c       __ischartype_l             1003ea7c f i libucrt:atox.obj
 0001:0003dad3       __wtoi                     1003ead3 f   libucrt:atox.obj
 0001:0003db12       __wtoi64                   1003eb12 f   libucrt:atox.obj
 0001:0003db57       __wtoi64_l                 1003eb57 f   libucrt:atox.obj
 0001:0003db9d       __wtoi_l                   1003eb9d f   libucrt:atox.obj
 0001:0003dbdd       __wtol                     1003ebdd f   libucrt:atox.obj
 0001:0003dc1c       __wtol_l                   1003ec1c f   libucrt:atox.obj
 0001:0003dc5c       __wtoll                    1003ec5c f   libucrt:atox.obj
 0001:0003dca1       __wtoll_l                  1003eca1 f   libucrt:atox.obj
 0001:0003dce7       _atoi                      1003ece7 f   libucrt:atox.obj
 0001:0003dd26       _atol                      1003ed26 f   libucrt:atox.obj
 0001:0003dd65       _atoll                     1003ed65 f   libucrt:atox.obj
 0001:0003ddb0       _strncmp                   1003edb0 f   libucrt:strncmp.obj
 0001:0003de28       ??$?RU__acrt_ptd@@@__crt_internal_free_policy@@QBEXQBU__acrt_ptd@@@Z 1003ee28 f i libucrt:per_thread_data.obj
 0001:0003e114       ??0?$__crt_unique_heap_ptr@U__acrt_ptd@@U__crt_internal_free_policy@@@@QAE@QAU__acrt_ptd@@@Z 1003f114 f i libucrt:per_thread_data.obj
 0001:0003e124       ??1?$__crt_unique_heap_ptr@U__acrt_ptd@@U__crt_internal_free_policy@@@@QAE@XZ 1003f124 f i libucrt:per_thread_data.obj
 0001:0003e136       ??B?$__crt_unique_heap_ptr@U__acrt_ptd@@U__crt_internal_free_policy@@@@QBE_NXZ 1003f136 f i libucrt:per_thread_data.obj
 0001:0003e284       ?dangerous_get_state_array@?$dual_state_global@PAU__crt_locale_data@@@__crt_state_management@@QAEPAPAU__crt_locale_data@@XZ 1003f284 f i libucrt:per_thread_data.obj
 0001:0003e37a       ?detach@?$__crt_unique_heap_ptr@U__acrt_ptd@@U__crt_internal_free_policy@@@@QAEPAU__acrt_ptd@@XZ 1003f37a f i libucrt:per_thread_data.obj
 0001:0003e380       ?get@?$__crt_unique_heap_ptr@U__acrt_ptd@@U__crt_internal_free_policy@@@@QBEPAU__acrt_ptd@@XZ 1003f380 f i libucrt:per_thread_data.obj
 0001:0003e565       ?is_valid@?$__crt_unique_heap_ptr@U__acrt_ptd@@U__crt_internal_free_policy@@@@QBE_NXZ 1003f565 f i libucrt:per_thread_data.obj
 0001:0003e56c       ?release@?$__crt_unique_heap_ptr@U__acrt_ptd@@U__crt_internal_free_policy@@@@QAEXXZ 1003f56c f i libucrt:per_thread_data.obj
 0001:0003e5dd       ?value@?$dual_state_global@PAU__crt_locale_data@@@__crt_state_management@@QAEAAPAU__crt_locale_data@@XZ 1003f5dd f i libucrt:per_thread_data.obj
 0001:0003e5e0       ___acrt_freeptd            1003f5e0 f   libucrt:per_thread_data.obj
 0001:0003e60c       ___acrt_getptd             1003f60c f   libucrt:per_thread_data.obj
 0001:0003e6c7       ___acrt_getptd_head        1003f6c7 f   libucrt:per_thread_data.obj
 0001:0003e75d       ___acrt_getptd_noexit      1003f75d f   libucrt:per_thread_data.obj
 0001:0003e80e       ___acrt_getptd_noexit_explicit 1003f80e f   libucrt:per_thread_data.obj
 0001:0003e8b1       ___acrt_initialize_ptd     1003f8b1 f   libucrt:per_thread_data.obj
 0001:0003e8dd       ___acrt_uninitialize_ptd   1003f8dd f   libucrt:per_thread_data.obj
 0001:0003e8f7       ___threadhandle            1003f8f7 f   libucrt:per_thread_data.obj
 0001:0003e8fd       ___threadid                1003f8fd f   libucrt:per_thread_data.obj
 0001:0003e906       ??$?RU__crt_locale_data@@@__crt_internal_free_policy@@QBEXQBU__crt_locale_data@@@Z 1003f906 f i libucrt:wsetlocale.obj
 0001:0003e918       ??$?RU__crt_locale_pointers@@@__crt_internal_free_policy@@QBEXQBU__crt_locale_pointers@@@Z 1003f918 f i libucrt:wsetlocale.obj
 0001:0003e92a       ??$?RU__crt_multibyte_data@@@__crt_internal_free_policy@@QBEXQBU__crt_multibyte_data@@@Z 1003f92a f i libucrt:wsetlocale.obj
 0001:0003ecd3       ??0?$__crt_unique_heap_ptr@U__crt_locale_data@@U__crt_internal_free_policy@@@@QAE@QAU__crt_locale_data@@@Z 1003fcd3 f i libucrt:wsetlocale.obj
 0001:0003ece3       ??0?$__crt_unique_heap_ptr@U__crt_locale_pointers@@U__crt_internal_free_policy@@@@QAE@QAU__crt_locale_pointers@@@Z 1003fce3 f i libucrt:wsetlocale.obj
 0001:0003ecf3       ??0?$__crt_unique_heap_ptr@U__crt_multibyte_data@@U__crt_internal_free_policy@@@@QAE@QAU__crt_multibyte_data@@@Z 1003fcf3 f i libucrt:wsetlocale.obj
 0001:0003ed03       ??0_expandlocale_locale_name_cache@@QAE@QA_WIQAU__crt_qualified_locale_data@@@Z 1003fd03 f i libucrt:wsetlocale.obj
 0001:0003ed4d       ??1?$__crt_unique_heap_ptr@U__crt_locale_data@@U__crt_internal_free_policy@@@@QAE@XZ 1003fd4d f i libucrt:wsetlocale.obj
 0001:0003ed5f       ??1?$__crt_unique_heap_ptr@U__crt_locale_pointers@@U__crt_internal_free_policy@@@@QAE@XZ 1003fd5f f i libucrt:wsetlocale.obj
 0001:0003ed71       ??1?$__crt_unique_heap_ptr@U__crt_multibyte_data@@U__crt_internal_free_policy@@@@QAE@XZ 1003fd71 f i libucrt:wsetlocale.obj
 0001:0003ed83       ??1_expandlocale_locale_name_cache@@QAE@XZ 1003fd83 f i libucrt:wsetlocale.obj
 0001:0003edb3       ??B?$__crt_unique_heap_ptr@U__crt_locale_data@@U__crt_internal_free_policy@@@@QBE_NXZ 1003fdb3 f i libucrt:wsetlocale.obj
 0001:0003edba       ??B?$__crt_unique_heap_ptr@U__crt_locale_pointers@@U__crt_internal_free_policy@@@@QBE_NXZ 1003fdba f i libucrt:wsetlocale.obj
 0001:0003edc1       ??B?$__crt_unique_heap_ptr@U__crt_multibyte_data@@U__crt_internal_free_policy@@@@QBE_NXZ 1003fdc1 f i libucrt:wsetlocale.obj
 0001:0003efe1       ?commit_locale_name@_expandlocale_locale_name_cache@@QAEXQB_WI@Z 1003ffe1 f i libucrt:wsetlocale.obj
 0001:0003f025       ?commit_locale_name_cache_already_updated@_expandlocale_locale_name_cache@@QAEXQB_WI@Z 10040025 f i libucrt:wsetlocale.obj
 0001:0003f05a       ?detach@?$__crt_unique_heap_ptr@U__crt_locale_data@@U__crt_internal_free_policy@@@@QAEPAU__crt_locale_data@@XZ 1004005a f i libucrt:wsetlocale.obj
 0001:0003f060       ?detach@?$__crt_unique_heap_ptr@U__crt_locale_pointers@@U__crt_internal_free_policy@@@@QAEPAU__crt_locale_pointers@@XZ 10040060 f i libucrt:wsetlocale.obj
 0001:0003f066       ?detach@?$__crt_unique_heap_ptr@U__crt_multibyte_data@@U__crt_internal_free_policy@@@@QAEPAU__crt_multibyte_data@@XZ 10040066 f i libucrt:wsetlocale.obj
 0001:0003f06c       ?get@?$__crt_unique_heap_ptr@U__crt_locale_data@@U__crt_internal_free_policy@@@@QBEPAU__crt_locale_data@@XZ 1004006c f i libucrt:wsetlocale.obj
 0001:0003f06f       ?get@?$__crt_unique_heap_ptr@U__crt_locale_pointers@@U__crt_internal_free_policy@@@@QBEPAU__crt_locale_pointers@@XZ 1004006f f i libucrt:wsetlocale.obj
 0001:0003f072       ?get@?$__crt_unique_heap_ptr@U__crt_multibyte_data@@U__crt_internal_free_policy@@@@QBEPAU__crt_multibyte_data@@XZ 10040072 f i libucrt:wsetlocale.obj
 0001:0003f075       ?is_valid@?$__crt_unique_heap_ptr@U__crt_locale_data@@U__crt_internal_free_policy@@@@QBE_NXZ 10040075 f i libucrt:wsetlocale.obj
 0001:0003f07c       ?is_valid@?$__crt_unique_heap_ptr@U__crt_locale_pointers@@U__crt_internal_free_policy@@@@QBE_NXZ 1004007c f i libucrt:wsetlocale.obj
 0001:0003f083       ?is_valid@?$__crt_unique_heap_ptr@U__crt_multibyte_data@@U__crt_internal_free_policy@@@@QBE_NXZ 10040083 f i libucrt:wsetlocale.obj
 0001:0003f08a       ?release@?$__crt_unique_heap_ptr@U__crt_locale_data@@U__crt_internal_free_policy@@@@QAEXXZ 1004008a f i libucrt:wsetlocale.obj
 0001:0003f09c       ?release@?$__crt_unique_heap_ptr@U__crt_locale_pointers@@U__crt_internal_free_policy@@@@QAEXXZ 1004009c f i libucrt:wsetlocale.obj
 0001:0003f0ae       ?release@?$__crt_unique_heap_ptr@U__crt_multibyte_data@@U__crt_internal_free_policy@@@@QAEXXZ 100400ae f i libucrt:wsetlocale.obj
 0001:0003f0c0       ___acrt_copy_locale_name   100400c0 f   libucrt:wsetlocale.obj
 0001:0003f120       ___acrt_set_locale_changed 10040120 f   libucrt:wsetlocale.obj
 0001:0003f12b       ___acrt_uninitialize_locale 1004012b f   libucrt:wsetlocale.obj
 0001:0003f152       ___lc_lctowcs              10040152 f   libucrt:wsetlocale.obj
 0001:0003f1c2       ___lc_wcstolc              100401c2 f   libucrt:wsetlocale.obj
 0001:0003f2ff       __configthreadlocale       100402ff f   libucrt:wsetlocale.obj
 0001:0003f390       __create_locale            10040390 f   libucrt:wsetlocale.obj
 0001:0003f7ba       __free_locale              100407ba f   libucrt:wsetlocale.obj
 0001:0003f87c       __get_current_locale       1004087c f   libucrt:wsetlocale.obj
 0001:0003f917       __wcreate_locale           10040917 f   libucrt:wsetlocale.obj
 0001:0003fa1e       __wcscats                  10040a1e f   libucrt:wsetlocale.obj
 0001:0003fa5f       __wsetlocale               10040a5f f   libucrt:wsetlocale.obj
 0001:000407dd       ___p___mb_cur_max          100417dd f   libucrt:nlsdata.obj
 0001:00040808       __free_base                10041808 f   libucrt:free_base.obj
 0001:00040842       __malloc_base              10041842 f   libucrt:malloc_base.obj
 0001:00040890       ?value@?$dual_state_global@PAU__crt_multibyte_data@@@__crt_state_management@@QAEAAPAU__crt_multibyte_data@@XZ 10041890 f i libucrt:locale_update.obj
 0001:00040893       ?value_explicit@?$dual_state_global@PAU__crt_locale_data@@@__crt_state_management@@QAEAAPAU__crt_locale_data@@I@Z 10041893 f i libucrt:locale_update.obj
 0001:000408a2       ?value_explicit@?$dual_state_global@PAU__crt_multibyte_data@@@__crt_state_management@@QAEAAPAU__crt_multibyte_data@@I@Z 100418a2 f i libucrt:locale_update.obj
 0001:000408b1       ___acrt_should_sync_with_global_locale 100418b1 f i libucrt:locale_update.obj
 0001:000408cd       ___acrt_update_locale_info 100418cd f   libucrt:locale_update.obj
 0001:000408fa       ___acrt_update_locale_info_explicit 100418fa f   libucrt:locale_update.obj
 0001:0004092b       ___acrt_update_multibyte_info 1004192b f   libucrt:locale_update.obj
 0001:00040958       ___acrt_update_multibyte_info_explicit 10041958 f   libucrt:locale_update.obj
 0001:00040989       ?__acrt_fp_classify@@YA?AW4__acrt_fp_class@@ABN@Z 10041989 f i libucrt:cvt.obj
 0001:000409eb       ?__acrt_fp_is_negative@@YA_NABN@Z 100419eb f i libucrt:cvt.obj
 0001:0004137a       ?strrchr@@YAPADQADH@Z      1004237a f i libucrt:cvt.obj
 0001:00041385       ___acrt_fp_format          10042385 f   libucrt:cvt.obj
 0001:00041506       ?value_or@?$cached@H@__crt_cached_ptd_host@@QBEHH@Z 10042506 f i libucrt:wctomb.obj
 0001:0004151c       __wctomb_internal          1004251c f   libucrt:wctomb.obj
 0001:00041686       __wctomb_l                 10042686 f   libucrt:wctomb.obj
 0001:000416e1       __wctomb_s_l               100426e1 f   libucrt:wctomb.obj
 0001:0004171c       _wctomb                    1004271c f   libucrt:wctomb.obj
 0001:00041768       _wctomb_s                  10042768 f   libucrt:wctomb.obj
 0001:000417a2       __isleadbyte_fast_internal 100427a2 f i libucrt:mbtowc.obj
 0001:000417c0       __mbtowc_internal          100427c0 f   libucrt:mbtowc.obj
 0001:000418f3       __mbtowc_l                 100428f3 f   libucrt:mbtowc.obj
 0001:0004192b       _mbtowc                    1004292b f   libucrt:mbtowc.obj
 0001:00041962       ?lowio_handle@__crt_stdio_stream@@QBEHXZ 10042962 f i libucrt:fileno.obj
 0001:00041969       __fileno                   10042969 f   libucrt:fileno.obj
 0001:00041990       __get_printf_count_output  10042990 f   libucrt:printf_count_output.obj
 0001:000419a5       __set_printf_count_output  100429a5 f   libucrt:printf_count_output.obj
 0001:00041a93       __fputwc_nolock            10042a93 f   libucrt:fputwc.obj
 0001:00041ac9       __fputwc_nolock_internal   10042ac9 f   libucrt:fputwc.obj
 0001:00041c01       __fputwchar                10042c01 f   libucrt:fputwc.obj
 0001:00041c1b       __putwc_nolock             10042c1b f   libucrt:fputwc.obj
 0001:00041c26       _fputwc                    10042c26 f   libucrt:fputwc.obj
 0001:00041c5c       _putwc                     10042c5c f   libucrt:fputwc.obj
 0001:00041c67       _putwchar                  10042c67 f   libucrt:fputwc.obj
 0001:00041da6       __fputc_nolock             10042da6 f   libucrt:fputc.obj
 0001:00041dda       __fputc_nolock_internal    10042dda f   libucrt:fputc.obj
 0001:00041e07       __fputchar                 10042e07 f   libucrt:fputc.obj
 0001:00041e21       __putc_nolock              10042e21 f   libucrt:fputc.obj
 0001:00041e2c       _fputc                     10042e2c f   libucrt:fputc.obj
 0001:00041e60       _putc                      10042e60 f   libucrt:fputc.obj
 0001:00041e6b       _putchar                   10042e6b f   libucrt:fputc.obj
 0001:00041e76       ?has_any_buffer@__crt_stdio_stream@@QBE_NXZ 10042e76 f i libucrt:_sftbuf.obj
 0001:00041e85       ?has_any_of@__crt_stdio_stream@@QBE_NJ@Z 10042e85 f i libucrt:_sftbuf.obj
 0001:00041e9a       ?has_temporary_buffer@__crt_stdio_stream@@QBE_NXZ 10042e9a f i libucrt:_sftbuf.obj
 0001:00041ea6       ?set_flags@__crt_stdio_stream@@QBE_NJ@Z 10042ea6 f i libucrt:_sftbuf.obj
 0001:00041eca       ?unset_flags@__crt_stdio_stream@@QBE_NJ@Z 10042eca f i libucrt:_sftbuf.obj
 0001:00041ef3       ___acrt_should_use_temporary_buffer 10042ef3 f   libucrt:_sftbuf.obj
 0001:00041f31       ___acrt_stdio_begin_temporary_buffering_nolock 10042f31 f   libucrt:_sftbuf.obj
 0001:00041fdc       ___acrt_stdio_end_temporary_buffering_nolock 10042fdc f   libucrt:_sftbuf.obj
 0001:000421a2       ___acrt_initialize_lowio   100431a2 f   libucrt:ioinit.obj
 0001:00042202       ___acrt_uninitialize_lowio 10043202 f   libucrt:ioinit.obj
 0001:0004222e       ___acrt_LCMapStringW       1004322e f   libucrt:lcmapstringw.obj
 0001:0004226c       __realloc_base             1004326c f   libucrt:realloc_base.obj
 0001:000422d5       ___acrt_initialize_locks   100432d5 f   libucrt:locks.obj
 0001:00042316       ___acrt_lock               10043316 f   libucrt:locks.obj
 0001:0004232d       ___acrt_uninitialize_locks 1004332d f   libucrt:locks.obj
 0001:0004235e       ___acrt_unlock             1004335e f   libucrt:locks.obj
 0001:00042375       __lock_locales             10043375 f   libucrt:locks.obj
 0001:00042383       __unlock_locales           10043383 f   libucrt:locks.obj
 0001:0004238c       ___acrt_app_verifier_enabled 1004338c f   libucrt:peb_access.obj
 0001:0004239e       ___acrt_is_secure_process  1004339e f   libucrt:peb_access.obj
 0001:0004254a       ___acrt_get_begin_thread_init_policy 1004354a f   libucrt:win_policies.obj
 0001:00042584       ___acrt_get_developer_information_policy 10043584 f   libucrt:win_policies.obj
 0001:000425c2       ___acrt_get_process_end_policy 100435c2 f   libucrt:win_policies.obj
 0001:000425e9       ___acrt_get_windowing_model_policy 100435e9 f   libucrt:win_policies.obj
 0001:00042644       __iswctype_l               10043644 f   libucrt:iswctype.obj
 0001:00042658       _iswctype                  10043658 f   libucrt:iswctype.obj
 0001:000426c1       __towlower_l               100436c1 f   libucrt:towlower.obj
 0001:00042795       _towlower                  10043795 f   libucrt:towlower.obj
 0001:000427a8       ___pctype_func             100437a8 f   libucrt:ctype.obj
 0001:000427cc       ___pwctype_func            100437cc f   libucrt:ctype.obj
 0001:000427d2       __calloc_base              100437d2 f   libucrt:calloc_base.obj
 0001:0004283c       ??$?B$$A6GHPA_WKJ@Z@__crt_fast_encoded_nullptr_t@@QBEP6GHPA_WKJ@ZXZ 1004383c f i libucrt:winapi_thunks.obj
 0001:000428e4       ??$__crt_fast_decode_pointer@P6GHPA_WKJ@Z@@YAP6GHPA_WKJ@ZQ6GH0KJ@Z@Z 100438e4 f i libucrt:winapi_thunks.obj
 0001:000428ff       ??$__crt_fast_decode_pointer@PAX@@YAPAXQAX@Z 100438ff f i libucrt:winapi_thunks.obj
 0001:0004291a       ??$__crt_fast_encode_pointer@P6GHPA_WKJ@Z@@YAP6GHPA_WKJ@ZQ6GH0KJ@Z@Z 1004391a f i libucrt:winapi_thunks.obj
 0001:00042fca       _GetCurrentThreadEffectiveToken 10043fca f i libucrt:winapi_thunks.obj
 0001:00042fce       ___acrt_AppPolicyGetProcessTerminationMethodInternal@4 10043fce f   libucrt:winapi_thunks.obj
 0001:0004300e       ___acrt_AppPolicyGetShowDeveloperDiagnosticInternal@4 1004400e f   libucrt:winapi_thunks.obj
 0001:0004304e       ___acrt_AppPolicyGetThreadInitializationTypeInternal@4 1004404e f   libucrt:winapi_thunks.obj
 0001:0004308e       ___acrt_AppPolicyGetWindowingModelInternal@4 1004408e f   libucrt:winapi_thunks.obj
 0001:000430ce       ___acrt_AreFileApisANSI@0  100440ce f   libucrt:winapi_thunks.obj
 0001:000430ed       ___acrt_CompareStringEx@36 100440ed f   libucrt:winapi_thunks.obj
 0001:0004314a       ___acrt_EnumSystemLocalesEx@16 1004414a f   libucrt:winapi_thunks.obj
 0001:0004319e       ___acrt_FlsAlloc@4         1004419e f   libucrt:winapi_thunks.obj
 0001:000431dd       ___acrt_FlsFree@4          100441dd f   libucrt:winapi_thunks.obj
 0001:0004321c       ___acrt_FlsGetValue@4      1004421c f   libucrt:winapi_thunks.obj
 0001:0004325b       ___acrt_FlsSetValue@8      1004425b f   libucrt:winapi_thunks.obj
 0001:0004329d       ___acrt_GetDateFormatEx@28 1004429d f   libucrt:winapi_thunks.obj
 0001:000432f4       ___acrt_GetEnabledXStateFeatures@0 100442f4 f   libucrt:winapi_thunks.obj
 0001:00043328       ___acrt_GetLocaleInfoEx@16 10044328 f   libucrt:winapi_thunks.obj
 0001:00043367       ___acrt_GetSystemTimePreciseAsFileTime@4 10044367 f   libucrt:winapi_thunks.obj
 0001:000433a6       ___acrt_GetTempPath2W@8    100443a6 f   libucrt:winapi_thunks.obj
 0001:000433e8       ___acrt_GetTimeFormatEx@24 100443e8 f   libucrt:winapi_thunks.obj
 0001:0004342d       ___acrt_GetUserDefaultLocaleName@8 1004442d f   libucrt:winapi_thunks.obj
 0001:00043469       ___acrt_GetXStateFeaturesMask@8 10044469 f   libucrt:winapi_thunks.obj
 0001:000434a9       ___acrt_InitializeCriticalSectionEx@12 100444a9 f   libucrt:winapi_thunks.obj
 0001:000434f4       ___acrt_IsValidLocaleName@4 100444f4 f   libucrt:winapi_thunks.obj
 0001:0004352c       ___acrt_LCIDToLocaleName@16 1004452c f   libucrt:winapi_thunks.obj
 0001:0004356b       ___acrt_LCMapStringEx@36   1004456b f   libucrt:winapi_thunks.obj
 0001:000435c8       ___acrt_LocaleNameToLCID@8 100445c8 f   libucrt:winapi_thunks.obj
 0001:000435f9       ___acrt_LocateXStateFeature@12 100445f9 f   libucrt:winapi_thunks.obj
 0001:00043628       ___acrt_MessageBoxA@16     10044628 f   libucrt:winapi_thunks.obj
 0001:0004365a       ___acrt_MessageBoxW@16     1004465a f   libucrt:winapi_thunks.obj
 0001:0004368c       ___acrt_RoInitialize@4     1004468c f   libucrt:winapi_thunks.obj
 0001:000436c7       ___acrt_RoUninitialize@0   100446c7 f   libucrt:winapi_thunks.obj
 0001:000436f5       ___acrt_RtlGenRandom@8     100446f5 f   libucrt:winapi_thunks.obj
 0001:00043735       ___acrt_SetThreadStackGuarantee@4 10044735 f   libucrt:winapi_thunks.obj
 0001:00043770       ___acrt_can_show_message_box 10044770 f   libucrt:winapi_thunks.obj
 0001:00043797       ___acrt_can_use_vista_locale_apis 10044797 f   libucrt:winapi_thunks.obj
 0001:000437a2       ___acrt_can_use_xstate_apis 100447a2 f   libucrt:winapi_thunks.obj
 0001:000437ad       ___acrt_eagerly_load_locale_apis 100447ad f   libucrt:winapi_thunks.obj
 0001:000437e4       ___acrt_get_parent_window  100447e4 f   libucrt:winapi_thunks.obj
 0001:0004384c       ___acrt_initialize_winapi_thunks 1004484c f   libucrt:winapi_thunks.obj
 0001:00043860       ___acrt_is_interactive     10044860 f   libucrt:winapi_thunks.obj
 0001:00043900       ___acrt_uninitialize_winapi_thunks 10044900 f   libucrt:winapi_thunks.obj
 0001:00043936       ??0__crt_stdio_stream@@QAE@QAU__crt_stdio_stream_data@@@Z 10044936 f i libucrt:closeall.obj
 0001:00043946       __fcloseall                10044946 f   libucrt:closeall.obj
 0001:00043db1       ?__acrt_stdio_reset_buffer@@YAXV__crt_stdio_stream@@@Z 10044db1 f i libucrt:fflush.obj
 0001:00043e93       ?has_all_of@__crt_stdio_stream@@QBE_NJ@Z 10044e93 f i libucrt:fflush.obj
 0001:00043ef8       ___acrt_stdio_flush_nolock 10044ef8 f   libucrt:fflush.obj
 0001:00043f61       __fflush_nolock            10044f61 f   libucrt:fflush.obj
 0001:00043fc6       __flushall                 10044fc6 f   libucrt:fflush.obj
 0001:00043fcf       _fflush                    10044fcf f   libucrt:fflush.obj
 0001:00044022       ?has_crt_buffer@__crt_stdio_stream@@QBE_NXZ 10045022 f i libucrt:_freebuf.obj
 0001:0004402e       ___acrt_stdio_free_buffer_nolock 1004502e f   libucrt:_freebuf.obj
 0001:0004406e       ??$?RU__crt_stdio_stream_data@@@__crt_internal_free_policy@@QBEXQBU__crt_stdio_stream_data@@@Z 1004506e f i libucrt:stream.obj
 0001:00044080       ??0?$__crt_unique_heap_ptr@U__crt_stdio_stream_data@@U__crt_internal_free_policy@@@@QAE@QAU__crt_stdio_stream_data@@@Z 10045080 f i libucrt:stream.obj
 0001:00044090       ??0__crt_stdio_stream@@QAE@XZ 10045090 f i libucrt:stream.obj
 0001:00044096       ??1?$__crt_unique_heap_ptr@U__crt_stdio_stream_data@@U__crt_internal_free_policy@@@@QAE@XZ 10045096 f i libucrt:stream.obj
 0001:000440a8       ?__acrt_stdio_allocate_stream@@YA?AV__crt_stdio_stream@@XZ 100450a8 f   libucrt:stream.obj
 0001:00044111       ?__acrt_stdio_free_stream@@YAXV__crt_stdio_stream@@@Z 10045111 f   libucrt:stream.obj
 0001:0004414c       ?deallocate@__crt_stdio_stream@@QAEXXZ 1004514c f i libucrt:stream.obj
 0001:00044156       ?detach@?$__crt_unique_heap_ptr@U__crt_stdio_stream_data@@U__crt_internal_free_policy@@@@QAEPAU__crt_stdio_stream_data@@XZ 10045156 f i libucrt:stream.obj
 0001:0004421e       ?lock@__crt_stdio_stream@@QBEXXZ 1004521e f i libucrt:stream.obj
 0001:00044227       ?release@?$__crt_unique_heap_ptr@U__crt_stdio_stream_data@@U__crt_internal_free_policy@@@@QAEXXZ 10045227 f i libucrt:stream.obj
 0001:00044239       ?try_allocate@__crt_stdio_stream@@QAE_NXZ 10045239 f i libucrt:stream.obj
 0001:00044259       ??$__acrt_stdio_parse_mode@D@@YA?AU__acrt_stdio_stream_mode@@QBD@Z 10045259 f i libucrt:openfile.obj
 0001:00044483       ??$__acrt_stdio_parse_mode@_W@@YA?AU__acrt_stdio_stream_mode@@QB_W@Z 10045483 f i libucrt:openfile.obj
 0001:000447f4       ??$tcsncmp@AAPBDAAY02$$CBDI@?$__crt_char_traits@D@@SAHAAPBDAAY02$$CBD$$QAI@Z 100457f4 f i libucrt:openfile.obj
 0001:00044810       ??$tcsncmp@AAPB_WAAY02$$CB_WI@?$__crt_char_traits@_W@@SAHAAPB_WAAY02$$CB_W$$QAI@Z 10045810 f i libucrt:openfile.obj
 0001:0004482c       ??$tcsnicmp@AAPBDAAY04$$CBDI@?$__crt_char_traits@D@@SAHAAPBDAAY04$$CBD$$QAI@Z 1004582c f i libucrt:openfile.obj
 0001:00044848       ??$tcsnicmp@AAPBDAAY06$$CBDI@?$__crt_char_traits@D@@SAHAAPBDAAY06$$CBD$$QAI@Z 10045848 f i libucrt:openfile.obj
 0001:00044864       ??$tcsnicmp@AAPBDAAY07$$CBDI@?$__crt_char_traits@D@@SAHAAPBDAAY07$$CBD$$QAI@Z 10045864 f i libucrt:openfile.obj
 0001:00044880       ??$tcsnicmp@AAPB_WAAY04$$CB_WI@?$__crt_char_traits@_W@@SAHAAPB_WAAY04$$CB_W$$QAI@Z 10045880 f i libucrt:openfile.obj
 0001:0004489c       ??$tcsnicmp@AAPB_WAAY06$$CB_WI@?$__crt_char_traits@_W@@SAHAAPB_WAAY06$$CB_W$$QAI@Z 1004589c f i libucrt:openfile.obj
 0001:000448b8       ??$tcsnicmp@AAPB_WAAY07$$CB_WI@?$__crt_char_traits@_W@@SAHAAPB_WAAY07$$CB_W$$QAI@Z 100458b8 f i libucrt:openfile.obj
 0001:000448d4       ??$tsopen_s@PAHABQBDABHABHH@?$__crt_char_traits@D@@SAH$$QAPAHABQBDABH2$$QAH@Z 100458d4 f i libucrt:openfile.obj
 0001:000448fc       ??$tsopen_s@PAHABQB_WABHABHH@?$__crt_char_traits@_W@@SAH$$QAPAHABQB_WABH2$$QAH@Z 100458fc f i libucrt:openfile.obj
 0001:00044924       ?__acrt_stdio_parse_mode_D@@YA_NAAU__acrt_stdio_stream_mode@@@Z 10045924 f i libucrt:openfile.obj
 0001:0004493f       ?__acrt_stdio_parse_mode_N@@YA_NAAU__acrt_stdio_stream_mode@@@Z 1004593f f i libucrt:openfile.obj
 0001:00044951       ?__acrt_stdio_parse_mode_R@@YA_NAAU__acrt_stdio_stream_mode@@AA_N@Z 10045951 f i libucrt:openfile.obj
 0001:0004496f       ?__acrt_stdio_parse_mode_S@@YA_NAAU__acrt_stdio_stream_mode@@AA_N@Z 1004596f f i libucrt:openfile.obj
 0001:0004498d       ?__acrt_stdio_parse_mode_T@@YA_NAAU__acrt_stdio_stream_mode@@@Z 1004598d f i libucrt:openfile.obj
 0001:000449ac       ?__acrt_stdio_parse_mode_b@@YA_NAAU__acrt_stdio_stream_mode@@@Z 100459ac f i libucrt:openfile.obj
 0001:000449cc       ?__acrt_stdio_parse_mode_c@@YA_NAAU__acrt_stdio_stream_mode@@AA_N@Z 100459cc f i libucrt:openfile.obj
 0001:000449ee       ?__acrt_stdio_parse_mode_n@@YA_NAAU__acrt_stdio_stream_mode@@AA_N@Z 100459ee f i libucrt:openfile.obj
 0001:00044a10       ?__acrt_stdio_parse_mode_plus@@YA_NAAU__acrt_stdio_stream_mode@@AA_N@Z 10045a10 f i libucrt:openfile.obj
 0001:00044a46       ?__acrt_stdio_parse_mode_t@@YA_NAAU__acrt_stdio_stream_mode@@@Z 10045a46 f i libucrt:openfile.obj
 0001:00044a66       ?__acrt_stdio_parse_mode_x@@YA_NAAU__acrt_stdio_stream_mode@@@Z 10045a66 f i libucrt:openfile.obj
 0001:00044a86       __openfile                 10045a86 f   libucrt:openfile.obj
 0001:00044a91       __wopenfile                10045a91 f   libucrt:openfile.obj
 0001:00044a9c       ?dangerous_get_state_array@?$dual_state_global@PAPAD@__crt_state_management@@QAEPAPAPADXZ 10045a9c f i libucrt:timeset.obj
 0001:00044a9f       ?dangerous_get_state_array@?$dual_state_global@PAPA_W@__crt_state_management@@QAEPAPAPA_WXZ 10045a9f f i libucrt:timeset.obj
 0001:00044aa2       ?initialize@?$dual_state_global@H@__crt_state_management@@QAEXH@Z 10045aa2 f i libucrt:timeset.obj
 0001:00044abe       ?initialize@?$dual_state_global@J@__crt_state_management@@QAEXJ@Z 10045abe f i libucrt:timeset.obj
 0001:00044ada       ?value@?$dual_state_global@H@__crt_state_management@@QAEAAHXZ 10045ada f i libucrt:timeset.obj
 0001:00044add       ?value@?$dual_state_global@J@__crt_state_management@@QAEAAJXZ 10045add f i libucrt:timeset.obj
 0001:00044ae0       ___acrt_initialize_timeset 10045ae0 f   libucrt:timeset.obj
 0001:00044b15       ___daylight                10045b15 f   libucrt:timeset.obj
 0001:00044b1b       ___dstbias                 10045b1b f   libucrt:timeset.obj
 0001:00044b21       ___timezone                10045b21 f   libucrt:timeset.obj
 0001:00044b27       ___tzname                  10045b27 f   libucrt:timeset.obj
 0001:00044b2d       ___wide_tzname             10045b2d f   libucrt:timeset.obj
 0001:00044b33       __get_daylight             10045b33 f   libucrt:timeset.obj
 0001:00044b5f       __get_dstbias              10045b5f f   libucrt:timeset.obj
 0001:00044b8b       __get_timezone             10045b8b f   libucrt:timeset.obj
 0001:00044bb7       __get_tzname               10045bb7 f   libucrt:timeset.obj
 0001:00044c64       ??$__crt_time_elapsed_leap_years@H@@YAHH@Z 10045c64 f i libucrt:tzset.obj
 0001:00044c9e       ?__acrt_get_utf8_acp_compatibility_codepage@@YAIXZ 10045c9e f i libucrt:tzset.obj
 0001:00044ef7       ?_set_daylight@@YAXH@Z     10045ef7 f i libucrt:tzset.obj
 0001:00044f08       ?_set_dstbias@@YAXJ@Z      10045f08 f i libucrt:tzset.obj
 0001:00044f19       ?_set_timezone@@YAXJ@Z     10045f19 f i libucrt:tzset.obj
 0001:0004506d       ?dangerous_get_state_array@?$dual_state_global@J@__crt_state_management@@QAEPAJXZ 1004606d f i libucrt:tzset.obj
 0001:000455d2       ___tzset                   100465d2 f   libucrt:tzset.obj
 0001:0004562f       __isindst                  1004662f f   libucrt:tzset.obj
 0001:00045683       __tzset                    10046683 f   libucrt:tzset.obj
 0001:00045872       __close                    10046872 f   libucrt:close.obj
 0001:000458a2       __close_internal           100468a2 f   libucrt:close.obj
 0001:00045945       __close_nolock             10046945 f   libucrt:close.obj
 0001:00045975       __close_nolock_internal    10046975 f   libucrt:close.obj
 0001:00045b40       ?has_big_buffer@__crt_stdio_stream@@QBE_NXZ 10046b40 f i libucrt:fwrite.obj
 0001:00045b4c       __fwrite_internal          10046b4c f   libucrt:fwrite.obj
 0001:00045bc3       __fwrite_nolock            10046bc3 f   libucrt:fwrite.obj
 0001:00045bfd       __fwrite_nolock_internal   10046bfd f   libucrt:fwrite.obj
 0001:00045da4       _fwrite                    10046da4 f   libucrt:fwrite.obj
 0001:00045dde       ??$?RUtm@@@__crt_internal_free_policy@@QBEXQBUtm@@@Z 10046dde f i libucrt:gmtime.obj
 0001:00046094       ??0?$__crt_unique_heap_ptr@Utm@@U__crt_internal_free_policy@@@@QAE@QAUtm@@@Z 10047094 f i libucrt:gmtime.obj
 0001:000460a4       ??1?$__crt_unique_heap_ptr@Utm@@U__crt_internal_free_policy@@@@QAE@XZ 100470a4 f i libucrt:gmtime.obj
 0001:000461d1       ?detach@?$__crt_unique_heap_ptr@Utm@@U__crt_internal_free_policy@@@@QAEPAUtm@@XZ 100471d1 f i libucrt:gmtime.obj
 0001:000461d7       ?release@?$__crt_unique_heap_ptr@Utm@@U__crt_internal_free_policy@@@@QAEXXZ 100471d7 f i libucrt:gmtime.obj
 0001:000461e9       ___getgmtimebuf            100471e9 f   libucrt:gmtime.obj
 0001:00046227       __gmtime32                 10047227 f   libucrt:gmtime.obj
 0001:0004624e       __gmtime32_s               1004724e f   libucrt:gmtime.obj
 0001:00046259       __gmtime64                 10047259 f   libucrt:gmtime.obj
 0001:00046280       __gmtime64_s               10047280 f   libucrt:gmtime.obj
 0001:0004628b       __msize                    1004728b f   libucrt:msize.obj
 0001:00046296       __msize_base               10047296 f   libucrt:msize.obj
 0001:000462f9       ??$__acrt_convert_wcs_mbs_cp@D_WV<lambda_62f6974d9771e494a5ea317cc32e971c>@@U__crt_win32_buffer_internal_dynamic_resizing@@@@YAHQBDAAV?$__crt_win32_buffer@_WU__crt_win32_buffer_internal_dynamic_resizing@@@@ABV<lambda_62f6974d9771e494a5ea317cc32e971c>@@I@Z 100472f9 f i libucrt:argv_wildcards.obj
 0001:000463ab       ??$__acrt_convert_wcs_mbs_cp@_WDV<lambda_28bda7af82a03b66c1cb3803a755f95d>@@U__crt_win32_buffer_internal_dynamic_resizing@@@@YAHQB_WAAV?$__crt_win32_buffer@DU__crt_win32_buffer_internal_dynamic_resizing@@@@ABV<lambda_28bda7af82a03b66c1cb3803a755f95d>@@I@Z 100473ab f i libucrt:argv_wildcards.obj
 0001:00046471       ??$__acrt_mbs_to_wcs_cp@U__crt_win32_buffer_internal_dynamic_resizing@@@@YAHQBDAAV?$__crt_win32_buffer@_WU__crt_win32_buffer_internal_dynamic_resizing@@@@I@Z 10047471 f i libucrt:argv_wildcards.obj
 0001:0004648e       ??$__acrt_wcs_to_mbs_cp@U__crt_win32_buffer_internal_dynamic_resizing@@@@YAHQB_WAAV?$__crt_win32_buffer@DU__crt_win32_buffer_internal_dynamic_resizing@@@@I@Z 1004748e f i libucrt:argv_wildcards.obj
 0001:00046d40       ??$tcslen@ABQBD@?$__crt_char_traits@D@@SAIABQBD@Z 10047d40 f i libucrt:argv_wildcards.obj
 0001:00046d58       ??$tcslen@ABQB_W@?$__crt_char_traits@_W@@SAIABQB_W@Z 10047d58 f i libucrt:argv_wildcards.obj
 0001:00046d76       ??$tcsncpy_s@AAPADIAAPADABI@?$__crt_char_traits@D@@SAHAAPAD$$QAI0ABI@Z 10047d76 f i libucrt:argv_wildcards.obj
 0001:00046d99       ??$tcsncpy_s@AAPA_WIAAPA_WABI@?$__crt_char_traits@_W@@SAHAAPA_W$$QAI0ABI@Z 10047d99 f i libucrt:argv_wildcards.obj
 0001:00046dbc       ??$tcsncpy_s@PADABIABQBDABI@?$__crt_char_traits@D@@SAH$$QAPADABIABQBD1@Z 10047dbc f i libucrt:argv_wildcards.obj
 0001:00046ddf       ??$tcsncpy_s@PADIABQBDABI@?$__crt_char_traits@D@@SAH$$QAPAD$$QAIABQBDABI@Z 10047ddf f i libucrt:argv_wildcards.obj
 0001:00046e02       ??$tcsncpy_s@PA_WABIABQB_WABI@?$__crt_char_traits@_W@@SAH$$QAPA_WABIABQB_W1@Z 10047e02 f i libucrt:argv_wildcards.obj
 0001:00046e25       ??$tcsncpy_s@PA_WIABQB_WABI@?$__crt_char_traits@_W@@SAH$$QAPA_W$$QAIABQB_WABI@Z 10047e25 f i libucrt:argv_wildcards.obj
 0001:00046e48       ??$tcspbrk@AAPADAAY02$$CBD@?$__crt_char_traits@D@@SAPADAAPADAAY02$$CBD@Z 10047e48 f i libucrt:argv_wildcards.obj
 0001:00046e5e       ??$tcspbrk@AAPA_WAAY02$$CB_W@?$__crt_char_traits@_W@@SAPA_WAAPA_WAAY02$$CB_W@Z 10047e5e f i libucrt:argv_wildcards.obj
 0001:00046e74       ??0?$__crt_unique_handle_t@U__crt_findfile_traits@@@@QAE@QAX@Z 10047e74 f i libucrt:argv_wildcards.obj
 0001:00046e84       ??0?$__crt_win32_buffer@DU__crt_win32_buffer_internal_dynamic_resizing@@@@QAE@XZ 10047e84 f i libucrt:argv_wildcards.obj
 0001:00046e9a       ??0?$__crt_win32_buffer@_WU__crt_win32_buffer_internal_dynamic_resizing@@@@QAE@XZ 10047e9a f i libucrt:argv_wildcards.obj
 0001:00046eca       ??1?$__crt_unique_handle_t@U__crt_findfile_traits@@@@QAE@XZ 10047eca f i libucrt:argv_wildcards.obj
 0001:00046ee1       ??1?$__crt_win32_buffer@DU__crt_win32_buffer_internal_dynamic_resizing@@@@QAE@XZ 10047ee1 f i libucrt:argv_wildcards.obj
 0001:00046ee6       ??1?$__crt_win32_buffer@_WU__crt_win32_buffer_internal_dynamic_resizing@@@@QAE@XZ 10047ee6 f i libucrt:argv_wildcards.obj
 0001:00046f41       ??R<lambda_28bda7af82a03b66c1cb3803a755f95d>@@QBE@IQB_WQADI@Z 10047f41 f i libucrt:argv_wildcards.obj
 0001:00046f83       ??R<lambda_62f6974d9771e494a5ea317cc32e971c>@@QBE@IQBDQA_WI@Z 10047f83 f i libucrt:argv_wildcards.obj
 0001:00046ffc       ?_deallocate@?$__crt_win32_buffer@DU__crt_win32_buffer_internal_dynamic_resizing@@@@AAEXXZ 10047ffc f i libucrt:argv_wildcards.obj
 0001:00047016       ?_deallocate@?$__crt_win32_buffer@_WU__crt_win32_buffer_internal_dynamic_resizing@@@@AAEXXZ 10048016 f i libucrt:argv_wildcards.obj
 0001:00047030       ?allocate@?$__crt_win32_buffer@DU__crt_win32_buffer_internal_dynamic_resizing@@@@QAEHI@Z 10048030 f i libucrt:argv_wildcards.obj
 0001:0004706c       ?allocate@?$__crt_win32_buffer@_WU__crt_win32_buffer_internal_dynamic_resizing@@@@QAEHI@Z 1004806c f i libucrt:argv_wildcards.obj
 0001:000470ab       ?allocate@__crt_win32_buffer_internal_dynamic_resizing@@SAHQAPAXIABV__crt_win32_buffer_empty_debug_info@@@Z 100480ab f i libucrt:argv_wildcards.obj
 0001:0004713a       ?capacity@?$__crt_win32_buffer@DU__crt_win32_buffer_internal_dynamic_resizing@@@@QBEIXZ 1004813a f i libucrt:argv_wildcards.obj
 0001:0004713e       ?capacity@?$__crt_win32_buffer@_WU__crt_win32_buffer_internal_dynamic_resizing@@@@QBEIXZ 1004813e f i libucrt:argv_wildcards.obj
 0001:00047142       ?close@?$__crt_unique_handle_t@U__crt_findfile_traits@@@@QAEXXZ 10048142 f i libucrt:argv_wildcards.obj
 0001:00047159       ?close@__crt_findfile_traits@@SA_NPAX@Z 10048159 f i libucrt:argv_wildcards.obj
 0001:0004716e       ?data@?$__crt_win32_buffer@DU__crt_win32_buffer_internal_dynamic_resizing@@@@QAEPADXZ 1004816e f i libucrt:argv_wildcards.obj
 0001:00047172       ?data@?$__crt_win32_buffer@_WU__crt_win32_buffer_internal_dynamic_resizing@@@@QAEPA_WXZ 10048172 f i libucrt:argv_wildcards.obj
 0001:00047176       ?deallocate@__crt_win32_buffer_internal_dynamic_resizing@@SAXQAXABV__crt_win32_buffer_empty_debug_info@@@Z 10048176 f i libucrt:argv_wildcards.obj
 0001:00047186       ?debug_info@?$__crt_win32_buffer@DU__crt_win32_buffer_internal_dynamic_resizing@@@@QBEABV__crt_win32_buffer_empty_debug_info@@XZ 10048186 f i libucrt:argv_wildcards.obj
 0001:00047189       ?debug_info@?$__crt_win32_buffer@_WU__crt_win32_buffer_internal_dynamic_resizing@@@@QBEABV__crt_win32_buffer_empty_debug_info@@XZ 10048189 f i libucrt:argv_wildcards.obj
 0001:000472a2       ?get@?$__crt_unique_handle_t@U__crt_findfile_traits@@@@QBEPAXXZ 100482a2 f i libucrt:argv_wildcards.obj
 0001:000472d8       ?get_invalid_value@__crt_findfile_traits@@SAPAXXZ 100482d8 f i libucrt:argv_wildcards.obj
 0001:00047327       ?set_to_nullptr@?$__crt_win32_buffer@DU__crt_win32_buffer_internal_dynamic_resizing@@@@QAEXXZ 10048327 f i libucrt:argv_wildcards.obj
 0001:0004733e       ?set_to_nullptr@?$__crt_win32_buffer@_WU__crt_win32_buffer_internal_dynamic_resizing@@@@QAEXXZ 1004833e f i libucrt:argv_wildcards.obj
 0001:00047355       ?size@?$__crt_win32_buffer@DU__crt_win32_buffer_internal_dynamic_resizing@@@@QAEXI@Z 10048355 f i libucrt:argv_wildcards.obj
 0001:00047364       ?size@?$__crt_win32_buffer@_WU__crt_win32_buffer_internal_dynamic_resizing@@@@QAEXI@Z 10048364 f i libucrt:argv_wildcards.obj
 0001:00047385       ?strpbrk@@YAPADQADQBD@Z    10048385 f i libucrt:argv_wildcards.obj
 0001:00047390       ?wcspbrk@@YAPA_WPA_WPB_W@Z 10048390 f i libucrt:argv_wildcards.obj
 0001:0004739b       ___acrt_expand_narrow_argv_wildcards 1004839b f   libucrt:argv_wildcards.obj
 0001:000473a6       ___acrt_expand_wide_argv_wildcards 100483a6 f   libucrt:argv_wildcards.obj
 0001:000473b1       ??$__acrt_convert_wcs_mbs_cp@_WDV<lambda_0fec1a7b3f42a53036604e18c2d5e07e>@@U__crt_win32_buffer_no_resizing@@@@YAHQB_WAAV?$__crt_win32_buffer@DU__crt_win32_buffer_no_resizing@@@@ABV<lambda_0fec1a7b3f42a53036604e18c2d5e07e>@@I@Z 100483b1 f i libucrt:getmodulefilenamea.obj
 0001:00047473       ??$__acrt_wcs_to_mbs_cp@U__crt_win32_buffer_no_resizing@@@@YAHQB_WAAV?$__crt_win32_buffer@DU__crt_win32_buffer_no_resizing@@@@I@Z 10048473 f i libucrt:getmodulefilenamea.obj
 0001:00047490       ??0?$__crt_win32_buffer@DU__crt_win32_buffer_no_resizing@@@@QAE@QADI@Z 10048490 f i libucrt:getmodulefilenamea.obj
 0001:000474b4       ??1?$__crt_win32_buffer@DU__crt_win32_buffer_no_resizing@@@@QAE@XZ 100484b4 f i libucrt:getmodulefilenamea.obj
 0001:000474bf       ??R<lambda_0fec1a7b3f42a53036604e18c2d5e07e>@@QBE@IQB_WQADI@Z 100484bf f i libucrt:getmodulefilenamea.obj
 0001:000474e3       ?_deallocate@?$__crt_win32_buffer@DU__crt_win32_buffer_no_resizing@@@@AAEXXZ 100484e3 f i libucrt:getmodulefilenamea.obj
 0001:000474ee       ?allocate@?$__crt_win32_buffer@DU__crt_win32_buffer_no_resizing@@@@QAEHI@Z 100484ee f i libucrt:getmodulefilenamea.obj
 0001:00047515       ?allocate@__crt_win32_buffer_no_resizing@@SAHQAPAXIABV__crt_win32_buffer_empty_debug_info@@@Z 10048515 f i libucrt:getmodulefilenamea.obj
 0001:00047522       ?capacity@?$__crt_win32_buffer@DU__crt_win32_buffer_no_resizing@@@@QBEIXZ 10048522 f i libucrt:getmodulefilenamea.obj
 0001:00047526       ?data@?$__crt_win32_buffer@DU__crt_win32_buffer_no_resizing@@@@QAEPADXZ 10048526 f i libucrt:getmodulefilenamea.obj
 0001:0004752a       ?deallocate@__crt_win32_buffer_no_resizing@@SAXQAXABV__crt_win32_buffer_empty_debug_info@@@Z 1004852a f i libucrt:getmodulefilenamea.obj
 0001:0004752d       ?debug_info@?$__crt_win32_buffer@DU__crt_win32_buffer_no_resizing@@@@QBEABV__crt_win32_buffer_empty_debug_info@@XZ 1004852d f i libucrt:getmodulefilenamea.obj
 0001:00047530       ?set_to_nullptr@?$__crt_win32_buffer@DU__crt_win32_buffer_no_resizing@@@@QAEXXZ 10048530 f i libucrt:getmodulefilenamea.obj
 0001:00047544       ?size@?$__crt_win32_buffer@DU__crt_win32_buffer_no_resizing@@@@QAEXI@Z 10048544 f i libucrt:getmodulefilenamea.obj
 0001:00047553       ?size@?$__crt_win32_buffer@DU__crt_win32_buffer_no_resizing@@@@QBEIXZ 10048553 f i libucrt:getmodulefilenamea.obj
 0001:00047557       ___acrt_GetModuleFileNameA 10048557 f   libucrt:getmodulefilenamea.obj
 0001:0004766b       ??$initialize_from_array@$$BY10BAA@E@?$dual_state_global@PAE@__crt_state_management@@QAAXAAY10BAA@E@Z 1004866b f i libucrt:mbctype.obj
 0001:0004767a       ??$initialize_from_array@$$BY10BAB@E@?$dual_state_global@PAE@__crt_state_management@@QAAXAAY10BAB@E@Z 1004867a f i libucrt:mbctype.obj
 0001:00047796       ?dangerous_get_state_array@?$dual_state_global@PAE@__crt_state_management@@QAEPAPAEXZ 10048796 f i libucrt:mbctype.obj
 0001:00047799       ?dangerous_get_state_array@?$dual_state_global@PAU__crt_multibyte_data@@@__crt_state_management@@QAEPAPAU__crt_multibyte_data@@XZ 10048799 f i libucrt:mbctype.obj
 0001:0004780d       ?initialize@?$dual_state_global@PAU__crt_multibyte_data@@@__crt_state_management@@QAEXQAU__crt_multibyte_data@@@Z 1004880d f i libucrt:mbctype.obj
 0001:00047c26       ?value@?$dual_state_global@PAE@__crt_state_management@@QAEAAPAEXZ 10048c26 f i libucrt:mbctype.obj
 0001:00047c29       ___acrt_initialize_multibyte 10048c29 f   libucrt:mbctype.obj
 0001:00047c71       ___acrt_update_thread_multibyte_data 10048c71 f   libucrt:mbctype.obj
 0001:00047c84       ___p__mbcasemap            10048c84 f   libucrt:mbctype.obj
 0001:00047c8a       ___p__mbctype              10048c8a f   libucrt:mbctype.obj
 0001:00047c90       __getmbcp                  10048c90 f   libucrt:mbctype.obj
 0001:00047cc4       __setmbcp                  10048cc4 f   libucrt:mbctype.obj
 0001:00047ce3       __setmbcp_nolock           10048ce3 f   libucrt:mbctype.obj
 0001:00047fb9       __ismbbalnum               10048fb9 f   libucrt:ismbbyte.obj
 0001:00047fd4       __ismbbalnum_l             10048fd4 f   libucrt:ismbbyte.obj
 0001:00047ff0       __ismbbalpha               10048ff0 f   libucrt:ismbbyte.obj
 0001:0004800b       __ismbbalpha_l             1004900b f   libucrt:ismbbyte.obj
 0001:00048027       __ismbbblank               10049027 f   libucrt:ismbbyte.obj
 0001:0004804a       __ismbbblank_l             1004904a f   libucrt:ismbbyte.obj
 0001:0004806e       __ismbbgraph               1004906e f   libucrt:ismbbyte.obj
 0001:00048089       __ismbbgraph_l             10049089 f   libucrt:ismbbyte.obj
 0001:000480a5       __ismbbkalnum              100490a5 f   libucrt:ismbbyte.obj
 0001:000480bd       __ismbbkalnum_l            100490bd f   libucrt:ismbbyte.obj
 0001:000480d6       __ismbbkana                100490d6 f   libucrt:ismbbyte.obj
 0001:000480e9       __ismbbkana_l              100490e9 f   libucrt:ismbbyte.obj
 0001:00048138       __ismbbkprint              10049138 f   libucrt:ismbbyte.obj
 0001:00048150       __ismbbkprint_l            10049150 f   libucrt:ismbbyte.obj
 0001:00048169       __ismbbkpunct              10049169 f   libucrt:ismbbyte.obj
 0001:00048181       __ismbbkpunct_l            10049181 f   libucrt:ismbbyte.obj
 0001:0004819a       __ismbblead                1004919a f   libucrt:ismbbyte.obj
 0001:000481b2       __ismbblead_l              100491b2 f   libucrt:ismbbyte.obj
 0001:000481cb       __ismbbprint               100491cb f   libucrt:ismbbyte.obj
 0001:000481e6       __ismbbprint_l             100491e6 f   libucrt:ismbbyte.obj
 0001:00048202       __ismbbpunct               10049202 f   libucrt:ismbbyte.obj
 0001:0004821a       __ismbbpunct_l             1004921a f   libucrt:ismbbyte.obj
 0001:00048233       __ismbbtrail               10049233 f   libucrt:ismbbyte.obj
 0001:0004824b       __ismbbtrail_l             1004924b f   libucrt:ismbbyte.obj
 0001:00048264       ___acrt_initialize_command_line 10049264 f   libucrt:argv_data.obj
 0001:0004827d       ___acrt_uninitialize_command_line 1004927d f   libucrt:argv_data.obj
 0001:00048280       ___p___argc                10049280 f   libucrt:argv_data.obj
 0001:00048286       ___p___argv                10049286 f   libucrt:argv_data.obj
 0001:0004828c       ___p___wargv               1004928c f   libucrt:argv_data.obj
 0001:00048292       ___p__acmdln               10049292 f   libucrt:argv_data.obj
 0001:00048298       ___p__pgmptr               10049298 f   libucrt:argv_data.obj
 0001:0004829e       ___p__wcmdln               1004929e f   libucrt:argv_data.obj
 0001:000482a4       ___p__wpgmptr              100492a4 f   libucrt:argv_data.obj
 0001:000482aa       __get_pgmptr               100492aa f   libucrt:argv_data.obj
 0001:000482db       __get_wpgmptr              100492db f   libucrt:argv_data.obj
 0001:000483a4       ___acrt_MultiByteToWideChar 100493a4 f   libucrt:multibytetowidechar.obj
 0001:0004845e       ___acrt_WideCharToMultiByte 1004945e f   libucrt:widechartomultibyte.obj
 0001:00048565       ___dcrt_get_narrow_environment_from_os 10049565 f   libucrt:get_environment_from_os.obj
 0001:00048605       ___dcrt_get_wide_environment_from_os 10049605 f   libucrt:get_environment_from_os.obj
 0001:00048d8d       ??$get_or_create_environment_nolock@$$V@?$__crt_char_traits@D@@SAPAPADXZ 10049d8d f i libucrt:setenv.obj
 0001:00048d92       ??$get_or_create_environment_nolock@$$V@?$__crt_char_traits@_W@@SAPAPA_WXZ 10049d92 f i libucrt:setenv.obj
 0001:00048d97       ??$set_environment_variable@ABQADQAD@?$__crt_char_traits@D@@SAHABQAD$$QBQAD@Z 10049d97 f i libucrt:setenv.obj
 0001:00048daf       ??$set_environment_variable@ABQA_WQA_W@?$__crt_char_traits@_W@@SAHABQA_W$$QBQA_W@Z 10049daf f i libucrt:setenv.obj
 0001:00048dc6       ??$tcschr@ABQADD@?$__crt_char_traits@D@@SAPADABQAD$$QAD@Z 10049dc6 f i libucrt:setenv.obj
 0001:00048de0       ??$tcschr@ABQA_WD@?$__crt_char_traits@_W@@SAPA_WABQA_W$$QAD@Z 10049de0 f i libucrt:setenv.obj
 0001:00048dfe       ??$tcscpy_s@AAPADABIAAPAD@?$__crt_char_traits@D@@SAHAAPADABI0@Z 10049dfe f i libucrt:setenv.obj
 0001:00048e1c       ??$tcscpy_s@AAPA_WABIAAPA_W@?$__crt_char_traits@_W@@SAHAAPA_WABI0@Z 10049e1c f i libucrt:setenv.obj
 0001:00048e3a       ??$tcscpy_s@ABQADABIABQAD@?$__crt_char_traits@D@@SAHABQADABI0@Z 10049e3a f i libucrt:setenv.obj
 0001:00048e58       ??$tcscpy_s@ABQA_WABIABQA_W@?$__crt_char_traits@_W@@SAHABQA_WABI0@Z 10049e58 f i libucrt:setenv.obj
 0001:00048e76       ??$tcslen@ABQAD@?$__crt_char_traits@D@@SAIABQAD@Z 10049e76 f i libucrt:setenv.obj
 0001:00048e8e       ??$tcslen@ABQA_W@?$__crt_char_traits@_W@@SAIABQA_W@Z 10049e8e f i libucrt:setenv.obj
 0001:00048eac       ??$tcsnicoll@ABQBDAAPADABI@?$__crt_char_traits@D@@SAHABQBDAAPADABI@Z 10049eac f i libucrt:setenv.obj
 0001:00048eca       ??$tcsnicoll@ABQB_WAAPA_WABI@?$__crt_char_traits@_W@@SAHABQB_WAAPA_WABI@Z 10049eca f i libucrt:setenv.obj
 0001:00048f0c       ?strchr@@YAPADQADH@Z       10049f0c f i libucrt:setenv.obj
 0001:00048f17       ?wcschr@@YAPA_WPA_W_W@Z    10049f17 f i libucrt:setenv.obj
 0001:00048f22       ___dcrt_set_variable_in_narrow_environment_nolock 10049f22 f   libucrt:setenv.obj
 0001:00048f2d       ___dcrt_set_variable_in_wide_environment_nolock 10049f2d f   libucrt:setenv.obj
 0001:00048f38       ___acrt_getheap            10049f38 f   libucrt:heap_handle.obj
 0001:00048f3e       ___acrt_initialize_heap    10049f3e f   libucrt:heap_handle.obj
 0001:00048f4f       ___acrt_uninitialize_heap  10049f4f f   libucrt:heap_handle.obj
 0001:00048f59       __get_heap_handle          10049f59 f   libucrt:heap_handle.obj
 0001:00048f5f       ___acrt_execute_initializers 10049f5f f   libucrt:shared_initialization.obj
 0001:00048fc7       ___acrt_execute_uninitializers 10049fc7 f   libucrt:shared_initialization.obj
 0001:00048ff9       ??$__crt_fast_decode_pointer@P6AHPAU_exception@@@Z@@YAP6AHPAU_exception@@@ZQ6AH0@Z@Z 10049ff9 f i libucrt:matherr.obj
 0001:00049014       ??$__crt_fast_encode_pointer@P6AHPAU_exception@@@Z@@YAP6AHPAU_exception@@@ZQ6AH0@Z@Z 1004a014 f i libucrt:matherr.obj
 0001:00049033       ?initialize@?$dual_state_global@P6AHPAU_exception@@@Z@__crt_state_management@@QAEXQ6AHPAU_exception@@@Z@Z 1004a033 f i libucrt:matherr.obj
 0001:0004904f       ?value@?$dual_state_global@P6AHPAU_exception@@@Z@__crt_state_management@@QAEAAP6AHPAU_exception@@@ZXZ 1004a04f f i libucrt:matherr.obj
 0001:00049052       ___acrt_has_user_matherr   1004a052 f   libucrt:matherr.obj
 0001:0004906f       ___acrt_initialize_user_matherr 1004a06f f   libucrt:matherr.obj
 0001:0004907e       ___acrt_invoke_user_matherr 1004a07e f   libucrt:matherr.obj
 0001:000490b4       ___setusermatherr          1004a0b4 f   libucrt:matherr.obj
 0001:000490c9       ___fpe_flt_rounds          1004a0c9 f   libucrt:fegetround.obj
 0001:000490fd       _fegetround                1004a0fd f   libucrt:fegetround.obj
 0001:0004910a       __add_exp                  1004a10a f   libucrt:util.obj
 0001:00049139       __decomp                   1004a139 f   libucrt:util.obj
 0001:0004920b       __get_exp                  1004a20b f   libucrt:util.obj
 0001:00049223       __set_bexp                 1004a223 f   libucrt:util.obj
 0001:0004924a       __set_exp                  1004a24a f   libucrt:util.obj
 0001:00049277       __sptype                   1004a277 f   libucrt:util.obj
 0001:000492da       ___clrfp_sse2              1004a2da f   libucrt:fpctrl.obj
 0001:0004930c       ___ctrlfp_sse2             1004a30c f   libucrt:fpctrl.obj
 0001:00049347       ___fclrf_sse2              1004a347 f   libucrt:fpctrl.obj
 0001:00049364       ___get_fpsr_sse2           1004a364 f   libucrt:fpctrl.obj
 0001:00049380       ___set_fpsr_sse2           1004a380 f   libucrt:fpctrl.obj
 0001:00049400       ___set_statfp_sse2         1004a400 f   libucrt:fpctrl.obj
 0001:0004941b       ___statfp_sse2             1004a41b f   libucrt:fpctrl.obj
 0001:00049430       __clrfp                    1004a430 f   libucrt:fpctrl.obj
 0001:00049441       __ctrlfp                   1004a441 f   libucrt:fpctrl.obj
 0001:0004946b       __set_statfp               1004a46b f   libucrt:fpctrl.obj
 0001:000494c4       __statfp                   1004a4c4 f   libucrt:fpctrl.obj
 0001:000494d4       __isctype                  1004a4d4 f   libucrt:isctype.obj
 0001:00049507       __isctype_l                1004a507 f   libucrt:isctype.obj
 0001:000495d2       ___acrt_add_locale_ref     1004a5d2 f   libucrt:locale_refcounting.obj
 0001:0004964f       ___acrt_free_locale        1004a64f f   libucrt:locale_refcounting.obj
 0001:00049797       ___acrt_locale_add_lc_time_reference 1004a797 f   libucrt:locale_refcounting.obj
 0001:000497c0       ___acrt_locale_free_lc_time_if_unreferenced 1004a7c0 f   libucrt:locale_refcounting.obj
 0001:000497f1       ___acrt_locale_release_lc_time_reference 1004a7f1 f   libucrt:locale_refcounting.obj
 0001:0004981a       ___acrt_release_locale_ref 1004a81a f   libucrt:locale_refcounting.obj
 0001:0004989b       ___acrt_update_thread_locale_data 1004a89b f   libucrt:locale_refcounting.obj
 0001:0004991c       __updatetlocinfoEx_nolock  1004a91c f   libucrt:locale_refcounting.obj
 0001:0004996c       ??$?RG@__crt_internal_free_policy@@QBEXQBG@Z 1004a96c f i libucrt:initctype.obj
 0001:0004997e       ??$?RJ@__crt_internal_free_policy@@QBEXQBJ@Z 1004a97e f i libucrt:initctype.obj
 0001:00049990       ??0?$__crt_unique_heap_ptr@GU__crt_internal_free_policy@@@@QAE@QAG@Z 1004a990 f i libucrt:initctype.obj
 0001:000499a0       ??0?$__crt_unique_heap_ptr@JU__crt_internal_free_policy@@@@QAE@QAJ@Z 1004a9a0 f i libucrt:initctype.obj
 0001:000499b0       ??1?$__crt_unique_heap_ptr@GU__crt_internal_free_policy@@@@QAE@XZ 1004a9b0 f i libucrt:initctype.obj
 0001:000499c2       ??1?$__crt_unique_heap_ptr@JU__crt_internal_free_policy@@@@QAE@XZ 1004a9c2 f i libucrt:initctype.obj
 0001:000499d4       ?detach@?$__crt_unique_heap_ptr@GU__crt_internal_free_policy@@@@QAEPAGXZ 1004a9d4 f i libucrt:initctype.obj
 0001:000499da       ?detach@?$__crt_unique_heap_ptr@JU__crt_internal_free_policy@@@@QAEPAJXZ 1004a9da f i libucrt:initctype.obj
 0001:000499e0       ?release@?$__crt_unique_heap_ptr@GU__crt_internal_free_policy@@@@QAEXXZ 1004a9e0 f i libucrt:initctype.obj
 0001:000499f2       ?release@?$__crt_unique_heap_ptr@JU__crt_internal_free_policy@@@@QAEXXZ 1004a9f2 f i libucrt:initctype.obj
 0001:00049a04       ____lc_codepage_func       1004aa04 f   libucrt:initctype.obj
 0001:00049a29       ____lc_collate_cp_func     1004aa29 f   libucrt:initctype.obj
 0001:00049a4e       ____lc_locale_name_func    1004aa4e f   libucrt:initctype.obj
 0001:00049a75       ____mb_cur_max_func        1004aa75 f   libucrt:initctype.obj
 0001:00049a9a       ____mb_cur_max_l_func      1004aa9a f   libucrt:initctype.obj
 0001:00049ab3       ___acrt_locale_initialize_ctype 1004aab3 f   libucrt:initctype.obj
 0001:00049f10       ??$?RUlconv@@@__crt_internal_free_policy@@QBEXQBUlconv@@@Z 1004af10 f i libucrt:initmon.obj
 0001:00049f22       ??0?$__crt_unique_heap_ptr@Ulconv@@U__crt_internal_free_policy@@@@QAE@QAUlconv@@@Z 1004af22 f i libucrt:initmon.obj
 0001:00049f32       ??1?$__crt_unique_heap_ptr@Ulconv@@U__crt_internal_free_policy@@@@QAE@XZ 1004af32 f i libucrt:initmon.obj
 0001:00049f44       ?detach@?$__crt_unique_heap_ptr@Ulconv@@U__crt_internal_free_policy@@@@QAEPAUlconv@@XZ 1004af44 f i libucrt:initmon.obj
 0001:00049f4a       ?release@?$__crt_unique_heap_ptr@Ulconv@@U__crt_internal_free_policy@@@@QAEXXZ 1004af4a f i libucrt:initmon.obj
 0001:00049f5c       ___acrt_locale_free_monetary 1004af5c f   libucrt:initmon.obj
 0001:0004a05a       ___acrt_locale_initialize_monetary 1004b05a f   libucrt:initmon.obj
 0001:0004a3f2       ___acrt_locale_free_numeric 1004b3f2 f   libucrt:initnum.obj
 0001:0004a45b       ___acrt_locale_initialize_numeric 1004b45b f   libucrt:initnum.obj
 0001:0004a6af       ??$?RU__crt_lc_time_data@@@__crt_internal_free_policy@@QBEXQBU__crt_lc_time_data@@@Z 1004b6af f i libucrt:inittime.obj
 0001:0004a733       ??0?$__crt_unique_heap_ptr@U__crt_lc_time_data@@U__crt_internal_free_policy@@@@QAE@QAU__crt_lc_time_data@@@Z 1004b733 f i libucrt:inittime.obj
 0001:0004a743       ??1?$__crt_unique_heap_ptr@U__crt_lc_time_data@@U__crt_internal_free_policy@@@@QAE@XZ 1004b743 f i libucrt:inittime.obj
 0001:0004a755       ??B?$__crt_unique_heap_ptr@U__crt_lc_time_data@@U__crt_internal_free_policy@@@@QBE_NXZ 1004b755 f i libucrt:inittime.obj
 0001:0004a75c       ?detach@?$__crt_unique_heap_ptr@U__crt_lc_time_data@@U__crt_internal_free_policy@@@@QAEPAU__crt_lc_time_data@@XZ 1004b75c f i libucrt:inittime.obj
 0001:0004a787       ?get@?$__crt_unique_heap_ptr@U__crt_lc_time_data@@U__crt_internal_free_policy@@@@QBEPAU__crt_lc_time_data@@XZ 1004b787 f i libucrt:inittime.obj
 0001:0004aa72       ?is_valid@?$__crt_unique_heap_ptr@U__crt_lc_time_data@@U__crt_internal_free_policy@@@@QBE_NXZ 1004ba72 f i libucrt:inittime.obj
 0001:0004aa79       ?release@?$__crt_unique_heap_ptr@U__crt_lc_time_data@@U__crt_internal_free_policy@@@@QAEXXZ 1004ba79 f i libucrt:inittime.obj
 0001:0004aa8b       ___acrt_locale_free_time   1004ba8b f   libucrt:inittime.obj
 0001:0004ab6f       ___acrt_locale_initialize_time 1004bb6f f   libucrt:inittime.obj
 0001:0004ac5a       _wcscat_s                  1004bc5a f   libucrt:wcscat_s.obj
 0001:0004adb1       _wcsncat_s                 1004bdb1 f   libucrt:wcsncat_s.obj
 0001:0004adbc       _wcscspn                   1004bdbc f   libucrt:wcscspn.obj
 0001:0004ae15       _wcspbrk                   1004be15 f   libucrt:wcspbrk.obj
 0001:0004ae63       ___acrt_GetStringTypeA     1004be63 f   libucrt:getstringtypea.obj
 0001:0004b6a4       ___acrt_get_qualified_locale 1004c6a4 f   libucrt:get_qualified_locale.obj
 0001:0004c037       ___acrt_get_qualified_locale_downlevel 1004d037 f   libucrt:getqloc_downlevel.obj
 0001:0004c227       _localeconv                1004d227 f   libucrt:localeconv.obj
 0001:0004c24f       __query_new_mode           1004d24f f   libucrt:new_mode.obj
 0001:0004c256       __set_new_mode             1004d256 f   libucrt:new_mode.obj
 0001:0004c336       ___acrt_fp_strflt_to_string 1004d336 f   libucrt:_fptostr.obj
 0001:0004d6f0       ??0big_integer@__crt_strtox@@QAE@ABU01@@Z 1004e6f0 f i libucrt:cfout.obj
 0001:0004d730       ??0big_integer@__crt_strtox@@QAE@XZ 1004e730 f i libucrt:cfout.obj
 0001:0004d7c0       ??4big_integer@__crt_strtox@@QAEAAU01@ABU01@@Z 1004e7c0 f i libucrt:cfout.obj
 0001:0004d800       ??8__crt_strtox@@YA_NABUbig_integer@0@0@Z 1004e800 f i libucrt:cfout.obj
 0001:0004d840       ??9__crt_strtox@@YA_NABUbig_integer@0@0@Z 1004e840 f i libucrt:cfout.obj
 0001:0004d880       ?add_carry@__crt_strtox@@YAIAAIII@Z 1004e880 f i libucrt:cfout.obj
 0001:0004d8a0       ?add_multiply_carry@__crt_strtox@@YAIAAIIII@Z 1004e8a0 f i libucrt:cfout.obj
 0001:0004d8d0       ?bit_scan_reverse@__crt_strtox@@YAII@Z 1004e8d0 f i libucrt:cfout.obj
 0001:0004d8f0       ?count_sequential_high_zeroes@__crt_strtox@@YAII@Z 1004e8f0 f i libucrt:cfout.obj
 0001:0004d910       ?divide@__crt_strtox@@YA_KAAUbig_integer@1@ABU21@@Z 1004e910 f i libucrt:cfout.obj
 0001:0004ddc0       ?is_zero@__crt_strtox@@YA_NABUbig_integer@1@@Z 1004edc0 f i libucrt:cfout.obj
 0001:0004ddd0       ?make_big_integer@__crt_strtox@@YA?AUbig_integer@1@_K@Z 1004edd0 f i libucrt:cfout.obj
 0001:0004ddf0       ?make_big_integer_power_of_two@__crt_strtox@@YA?AUbig_integer@1@I@Z 1004edf0 f i libucrt:cfout.obj
 0001:0004de40       ?multiply@__crt_strtox@@YA_NAAUbig_integer@1@ABU21@@Z 1004ee40 f i libucrt:cfout.obj
 0001:0004e1a0       ?multiply@__crt_strtox@@YA_NAAUbig_integer@1@I@Z 1004f1a0 f i libucrt:cfout.obj
 0001:0004e270       ?multiply_64_32@__crt_strtox@@YA_K_KI@Z 1004f270 f i libucrt:cfout.obj
 0001:0004e290       ?multiply_by_power_of_ten@__crt_strtox@@YA_NAAUbig_integer@1@I@Z 1004f290 f i libucrt:cfout.obj
 0001:0004e820       ?multiply_core@__crt_strtox@@YAIQAIII@Z 1004f820 f i libucrt:cfout.obj
 0001:0004e860       ?shift_left@__crt_strtox@@YA_NAAUbig_integer@1@I@Z 1004f860 f i libucrt:cfout.obj
 0001:0004e98f       ___acrt_fltout             1004f98f f   libucrt:cfout.obj
 0001:0004fff8       ?__c32rtomb_utf8@__crt_mbstring@@YAIPAD_UPAU_Mbstatet@@AAV__crt_cached_ptd_host@@@Z 10050ff8 f   libucrt:c32rtomb.obj
 0001:000500a8       _c32rtomb                  100510a8 f   libucrt:c32rtomb.obj
 0001:0005010b       ?__mbrtowc_utf8@__crt_mbstring@@YAIPA_WPBDIPAU_Mbstatet@@AAV__crt_cached_ptd_host@@@Z 1005110b f   libucrt:mbrtowc.obj
 0001:0005014e       ?__mbsrtowcs_utf8@__crt_mbstring@@YAIPA_WPAPBDIPAU_Mbstatet@@AAV__crt_cached_ptd_host@@@Z 1005114e f   libucrt:mbrtowc.obj
 0001:00050688       _btowc                     10051688 f   libucrt:mbrtowc.obj
 0001:000506f9       _mbrlen                    100516f9 f   libucrt:mbrtowc.obj
 0001:00050741       _mbrtowc                   10051741 f   libucrt:mbrtowc.obj
 0001:000507a8       _mbsrtowcs                 100517a8 f   libucrt:mbrtowc.obj
 0001:000507e2       _mbsrtowcs_s               100517e2 f   libucrt:mbrtowc.obj
 0001:00050c3d       ___acrt_stdio_flush_and_write_narrow_nolock 10051c3d f   libucrt:_flsbuf.obj
 0001:00050c48       ___acrt_stdio_flush_and_write_wide_nolock 10051c48 f   libucrt:_flsbuf.obj
 0001:00050c53       __isatty                   10051c53 f   libucrt:isatty.obj
 0001:00050ca9       ??$?RU__crt_lowio_handle_data@@@__crt_internal_free_policy@@QBEXQBU__crt_lowio_handle_data@@@Z 10051ca9 f i libucrt:osfinfo.obj
 0001:00050cbb       ??0?$__crt_unique_heap_ptr@U__crt_lowio_handle_data@@U__crt_internal_free_policy@@@@QAE@QAU__crt_lowio_handle_data@@@Z 10051cbb f i libucrt:osfinfo.obj
 0001:00050ccb       ??1?$__crt_unique_heap_ptr@U__crt_lowio_handle_data@@U__crt_internal_free_policy@@@@QAE@XZ 10051ccb f i libucrt:osfinfo.obj
 0001:00050cdd       ??B?$__crt_unique_heap_ptr@U__crt_lowio_handle_data@@U__crt_internal_free_policy@@@@QBE_NXZ 10051cdd f i libucrt:osfinfo.obj
 0001:00050ce4       ?detach@?$__crt_unique_heap_ptr@U__crt_lowio_handle_data@@U__crt_internal_free_policy@@@@QAEPAU__crt_lowio_handle_data@@XZ 10051ce4 f i libucrt:osfinfo.obj
 0001:00050cea       ?get@?$__crt_unique_heap_ptr@U__crt_lowio_handle_data@@U__crt_internal_free_policy@@@@QBEPAU__crt_lowio_handle_data@@XZ 10051cea f i libucrt:osfinfo.obj
 0001:00050ced       ?is_valid@?$__crt_unique_heap_ptr@U__crt_lowio_handle_data@@U__crt_internal_free_policy@@@@QBE_NXZ 10051ced f i libucrt:osfinfo.obj
 0001:00050cf4       ?release@?$__crt_unique_heap_ptr@U__crt_lowio_handle_data@@U__crt_internal_free_policy@@@@QAEXXZ 10051cf4 f i libucrt:osfinfo.obj
 0001:00050d06       ___acrt_lowio_create_handle_array 10051d06 f   libucrt:osfinfo.obj
 0001:00050d81       ___acrt_lowio_destroy_handle_array 10051d81 f   libucrt:osfinfo.obj
 0001:00050db6       ___acrt_lowio_ensure_fh_exists 10051db6 f   libucrt:osfinfo.obj
 0001:00050e54       ___acrt_lowio_lock_fh      10051e54 f   libucrt:osfinfo.obj
 0001:00050e77       ___acrt_lowio_set_os_handle 10051e77 f   libucrt:osfinfo.obj
 0001:00050f09       ___acrt_lowio_unlock_fh    10051f09 f   libucrt:osfinfo.obj
 0001:00050f2c       __alloc_osfhnd             10051f2c f   libucrt:osfinfo.obj
 0001:0005103f       __free_osfhnd              1005203f f   libucrt:osfinfo.obj
 0001:000510d0       __get_osfhandle            100520d0 f   libucrt:osfinfo.obj
 0001:0005113a       __open_osfhandle           1005213a f   libucrt:osfinfo.obj
 0001:0005126a       ___acrt_GetStringTypeW     1005226a f   libucrt:getstringtypew.obj
 0001:0005130a       ___acrt_DownlevelLCIDToLocaleName 1005230a f   libucrt:lcidtoname_downlevel.obj
 0001:000513ad       ___acrt_DownlevelLocaleNameToLCID 100523ad f   libucrt:lcidtoname_downlevel.obj
 0001:0005153c       __commit                   1005253c f   libucrt:commit.obj
 0001:00051daa       __utf8_no_of_trailbytes    10052daa f i libucrt:write.obj
 0001:00051dbb       __write                    10052dbb f   libucrt:write.obj
 0001:00051df2       __write_internal           10052df2 f   libucrt:write.obj
 0001:00051f03       __write_nolock             10052f03 f   libucrt:write.obj
 0001:0005211f       ___ascii_wcsnicmp          1005311f f   libucrt:wcsnicmp.obj
 0001:0005216e       __wcsnicmp                 1005316e f   libucrt:wcsnicmp.obj
 0001:000521ba       __wcsnicmp_l               100531ba f   libucrt:wcsnicmp.obj
 0001:0005228d       __strnicmp                 1005328d f   libucrt:strnicmp.obj
 0001:000522fa       __strnicmp_l               100532fa f   libucrt:strnicmp.obj
 0001:0005271d       ??$tsopen_nolock@PAHABQAHABQBDABHABHABHABH@?$__crt_char_traits@D@@SAH$$QAPAHABQAHABQBDABH333@Z 1005371d f i libucrt:open.obj
 0001:0005274f       ??$tsopen_nolock@PAHABQAHABQB_WABHABHABHABH@?$__crt_char_traits@_W@@SAH$$QAPAHABQAHABQB_WABH333@Z 1005374f f i libucrt:open.obj
 0001:00052781       ??$tsopen_nolock@PAHPAHABQBDABHHABHH@?$__crt_char_traits@D@@SAH$$QAPAH0ABQBDABH$$QAH23@Z 10053781 f i libucrt:open.obj
 0001:000527b3       ??$tsopen_nolock@PAHPAHABQB_WABHHABHH@?$__crt_char_traits@_W@@SAH$$QAPAH0ABQB_WABH$$QAH23@Z 100537b3 f i libucrt:open.obj
 0001:00052ded       __open                     10053ded f   libucrt:open.obj
 0001:00052e05       __sopen                    10053e05 f   libucrt:open.obj
 0001:00052e38       __sopen_dispatch           10053e38 f   libucrt:open.obj
 0001:00052e43       __sopen_nolock             10053e43 f   libucrt:open.obj
 0001:00052eb1       __sopen_s                  10053eb1 f   libucrt:open.obj
 0001:00052ed1       __wopen                    10053ed1 f   libucrt:open.obj
 0001:00052ee9       __wsopen                   10053ee9 f   libucrt:open.obj
 0001:00052f1c       __wsopen_dispatch          10053f1c f   libucrt:open.obj
 0001:00052f27       __wsopen_nolock            10053f27 f   libucrt:open.obj
 0001:00053251       __wsopen_s                 10054251 f   libucrt:open.obj
 0001:00053271       ___p__commode              10054271 f   libucrt:ncommode.obj
 0001:00053277       ??$parse_integer_from_string@JDPAPAD@__crt_strtox@@YAJQBDQAPADHQAU__crt_locale_pointers@@@Z 10054277 f i libucrt:strtox.obj
 0001:000532be       ??$parse_integer_from_string@J_WPAPA_W@__crt_strtox@@YAJQB_WQAPA_WHQAU__crt_locale_pointers@@@Z 100542be f i libucrt:strtox.obj
 0001:00053305       ??$parse_integer_from_string@KDPAPAD@__crt_strtox@@YAKQBDQAPADHQAU__crt_locale_pointers@@@Z 10054305 f i libucrt:strtox.obj
 0001:0005334c       ??$parse_integer_from_string@K_WPAPA_W@__crt_strtox@@YAKQB_WQAPA_WHQAU__crt_locale_pointers@@@Z 1005434c f i libucrt:strtox.obj
 0001:00053393       ??$parse_integer_from_string@_JDPAPAD@__crt_strtox@@YA_JQBDQAPADHQAU__crt_locale_pointers@@@Z 10054393 f i libucrt:strtox.obj
 0001:000533e0       ??$parse_integer_from_string@_J_WPAPA_W@__crt_strtox@@YA_JQB_WQAPA_WHQAU__crt_locale_pointers@@@Z 100543e0 f i libucrt:strtox.obj
 0001:0005342d       ??$parse_integer_from_string@_KDPAPAD@__crt_strtox@@YA_KQBDQAPADHQAU__crt_locale_pointers@@@Z 1005442d f i libucrt:strtox.obj
 0001:0005347a       ??$parse_integer_from_string@_K_WPAPA_W@__crt_strtox@@YA_KQB_WQAPA_WHQAU__crt_locale_pointers@@@Z 1005447a f i libucrt:strtox.obj
 0001:000534c7       __strtoi64                 100544c7 f   libucrt:strtox.obj
 0001:00053513       __strtoi64_l               10054513 f   libucrt:strtox.obj
 0001:00053560       __strtoimax_l              10054560 f   libucrt:strtox.obj
 0001:000535ad       __strtol_l                 100545ad f   libucrt:strtox.obj
 0001:000535f4       __strtoll_l                100545f4 f   libucrt:strtox.obj
 0001:00053641       __strtoui64                10054641 f   libucrt:strtox.obj
 0001:0005368d       __strtoui64_l              1005468d f   libucrt:strtox.obj
 0001:000536da       __strtoul_l                100546da f   libucrt:strtox.obj
 0001:00053721       __strtoull_l               10054721 f   libucrt:strtox.obj
 0001:0005376e       __strtoumax_l              1005476e f   libucrt:strtox.obj
 0001:000537bb       __wcstoi64                 100547bb f   libucrt:strtox.obj
 0001:00053807       __wcstoi64_l               10054807 f   libucrt:strtox.obj
 0001:00053854       __wcstoimax_l              10054854 f   libucrt:strtox.obj
 0001:000538a1       __wcstol_l                 100548a1 f   libucrt:strtox.obj
 0001:000538e8       __wcstoll_l                100548e8 f   libucrt:strtox.obj
 0001:00053935       __wcstoui64                10054935 f   libucrt:strtox.obj
 0001:00053981       __wcstoui64_l              10054981 f   libucrt:strtox.obj
 0001:000539ce       __wcstoul_l                100549ce f   libucrt:strtox.obj
 0001:00053a15       __wcstoull_l               10054a15 f   libucrt:strtox.obj
 0001:00053a62       __wcstoumax_l              10054a62 f   libucrt:strtox.obj
 0001:00053aaf       _strtoimax                 10054aaf f   libucrt:strtox.obj
 0001:00053afb       _strtol                    10054afb f   libucrt:strtox.obj
 0001:00053b41       _strtoll                   10054b41 f   libucrt:strtox.obj
 0001:00053b8d       _strtoul                   10054b8d f   libucrt:strtox.obj
 0001:00053bd3       _strtoull                  10054bd3 f   libucrt:strtox.obj
 0001:00053c1f       _strtoumax                 10054c1f f   libucrt:strtox.obj
 0001:00053c6b       _wcstoimax                 10054c6b f   libucrt:strtox.obj
 0001:00053cb7       _wcstol                    10054cb7 f   libucrt:strtox.obj
 0001:00053cfd       _wcstoll                   10054cfd f   libucrt:strtox.obj
 0001:00053d49       _wcstoul                   10054d49 f   libucrt:strtox.obj
 0001:00053d8f       _wcstoull                  10054d8f f   libucrt:strtox.obj
 0001:00053ddb       _wcstoumax                 10054ddb f   libucrt:strtox.obj
 0001:0005443d       ??$tcscpy_s@AAPADABIABQBD@?$__crt_char_traits@D@@SAHAAPADABIABQBD@Z 1005543d f i libucrt:getenv.obj
 0001:0005445b       ??$tcscpy_s@AAPA_WABIABQB_W@?$__crt_char_traits@_W@@SAHAAPA_WABIABQB_W@Z 1005545b f i libucrt:getenv.obj
 0001:00054479       ??$tcscpy_s@ABQADABIABQBD@?$__crt_char_traits@D@@SAHABQADABIABQBD@Z 10055479 f i libucrt:getenv.obj
 0001:00054497       ??$tcscpy_s@ABQA_WABIABQB_W@?$__crt_char_traits@_W@@SAHABQA_WABIABQB_W@Z 10055497 f i libucrt:getenv.obj
 0001:000544b5       ??$tcsnicoll@AAPADABQBDABI@?$__crt_char_traits@D@@SAHAAPADABQBDABI@Z 100554b5 f i libucrt:getenv.obj
 0001:000544d3       ??$tcsnicoll@AAPA_WABQB_WABI@?$__crt_char_traits@_W@@SAHAAPA_WABQB_WABI@Z 100554d3 f i libucrt:getenv.obj
 0001:000544f1       ??$tcsnlen@ABQBDH@?$__crt_char_traits@D@@SAIABQBD$$QAH@Z 100554f1 f i libucrt:getenv.obj
 0001:00054509       ??$tcsnlen@ABQB_WH@?$__crt_char_traits@_W@@SAIABQB_W$$QAH@Z 10055509 f i libucrt:getenv.obj
 0001:00054521       __dupenv_s                 10055521 f   libucrt:getenv.obj
 0001:0005453f       __wdupenv_s                1005553f f   libucrt:getenv.obj
 0001:0005455d       __wgetenv                  1005555d f   libucrt:getenv.obj
 0001:00054568       __wgetenv_s                10055568 f   libucrt:getenv.obj
 0001:00054573       _getenv                    10055573 f   libucrt:getenv.obj
 0001:0005457e       _getenv_s                  1005557e f   libucrt:getenv.obj
 0001:00054650       _qsort                     10055650 f   libucrt:qsort.obj
 0001:00054bf5       _strncpy_s                 10055bf5 f   libucrt:strncpy_s.obj
 0001:00054c00       _strpbrk                   10055c00 f   libucrt:strpbrk.obj
 0001:00054c40       __mbsdec                   10055c40 f   libucrt:mbsdec.obj
 0001:00054c57       __mbsdec_l                 10055c57 f   libucrt:mbsdec.obj
 0001:00054ed3       ___acrt_LCMapStringA       10055ed3 f   libucrt:lcmapstringa.obj
 0001:00054f2b       __wcsnicoll                10055f2b f   libucrt:wcsnicol.obj
 0001:00054f98       __wcsnicoll_l              10055f98 f   libucrt:wcsnicol.obj
 0001:00055058       __strnicoll                10056058 f   libucrt:strnicol.obj
 0001:00055081       __strnicoll_l              10056081 f   libucrt:strnicol.obj
 0001:00055149       ___acrt_SetEnvironmentVariableA 10056149 f   libucrt:setenvironmentvariablea.obj
 0001:000551de       ??$__acrt_fenv_shift_bits@W4__acrt_fenv_abstract_control@@@@YA?AW4__acrt_fenv_abstract_control@@W40@0I@Z 100561de f i libucrt:_fenvutils.obj
 0001:000551f0       ??$__acrt_fenv_shift_bits@W4__acrt_fenv_abstract_status@@@@YA?AW4__acrt_fenv_abstract_status@@W40@0I@Z 100561f0 f i libucrt:_fenvutils.obj
 0001:00055202       ??$__acrt_fenv_translate_bit@W4__acrt_fenv_abstract_control@@W4__acrt_fenv_machine_sse_control@@@@YA?AW4__acrt_fenv_abstract_control@@W4__acrt_fenv_machine_sse_control@@0W40@1@Z 10056202 f i libucrt:_fenvutils.obj
 0001:0005521a       ??$__acrt_fenv_translate_bit@W4__acrt_fenv_abstract_control@@W4__acrt_fenv_machine_x87_control@@@@YA?AW4__acrt_fenv_abstract_control@@W4__acrt_fenv_machine_x87_control@@0W40@1@Z 1005621a f i libucrt:_fenvutils.obj
 0001:00055232       ??$__acrt_fenv_translate_bit@W4__acrt_fenv_abstract_status@@W4__acrt_fenv_machine_sse_status@@@@YA?AW4__acrt_fenv_abstract_status@@W4__acrt_fenv_machine_sse_status@@0W40@1@Z 10056232 f i libucrt:_fenvutils.obj
 0001:00055247       ??$__acrt_fenv_translate_bit@W4__acrt_fenv_abstract_status@@W4__acrt_fenv_machine_x87_status@@@@YA?AW4__acrt_fenv_abstract_status@@W4__acrt_fenv_machine_x87_status@@0W40@1@Z 10056247 f i libucrt:_fenvutils.obj
 0001:0005525c       ??$__acrt_fenv_translate_bit@W4__acrt_fenv_machine_sse_control@@W4__acrt_fenv_abstract_control@@@@YA?AW4__acrt_fenv_machine_sse_control@@W4__acrt_fenv_abstract_control@@0W40@1@Z 1005625c f i libucrt:_fenvutils.obj
 0001:00055273       ??$__acrt_fenv_translate_bit@W4__acrt_fenv_machine_sse_status@@W4__acrt_fenv_abstract_status@@@@YA?AW4__acrt_fenv_machine_sse_status@@W4__acrt_fenv_abstract_status@@0W40@1@Z 10056273 f i libucrt:_fenvutils.obj
 0001:00055288       ??$__acrt_fenv_translate_bit@W4__acrt_fenv_machine_x87_control@@W4__acrt_fenv_abstract_control@@@@YA?AW4__acrt_fenv_machine_x87_control@@W4__acrt_fenv_abstract_control@@0W40@1@Z 10056288 f i libucrt:_fenvutils.obj
 0001:0005529f       ??$__acrt_fenv_translate_bit@W4__acrt_fenv_machine_x87_status@@W4__acrt_fenv_abstract_status@@@@YA?AW4__acrt_fenv_machine_x87_status@@W4__acrt_fenv_abstract_status@@0W40@1@Z 1005629f f i libucrt:_fenvutils.obj
 0001:000552b4       ??$__acrt_fenv_unshift_bits@W4__acrt_fenv_abstract_control@@@@YA?AW4__acrt_fenv_abstract_control@@W40@0I@Z 100562b4 f i libucrt:_fenvutils.obj
 0001:000552c6       ??$__acrt_fenv_unshift_bits@W4__acrt_fenv_abstract_status@@@@YA?AW4__acrt_fenv_abstract_status@@W40@0I@Z 100562c6 f i libucrt:_fenvutils.obj
 0001:000556bb       ??I@YA?AW4__acrt_fenv_abstract_control@@W40@0@Z 100566bb f i libucrt:_fenvutils.obj
 0001:000556c8       ??I@YA?AW4__acrt_fenv_abstract_status@@W40@0@Z 100566c8 f i libucrt:_fenvutils.obj
 0001:000556d5       ??I@YA?AW4__acrt_fenv_machine_sse_control@@W40@0@Z 100566d5 f i libucrt:_fenvutils.obj
 0001:000556e2       ??I@YA?AW4__acrt_fenv_machine_sse_status@@W40@0@Z 100566e2 f i libucrt:_fenvutils.obj
 0001:000556ef       ??I@YA?AW4__acrt_fenv_machine_x87_control@@W40@0@Z 100566ef f i libucrt:_fenvutils.obj
 0001:000556fc       ??I@YA?AW4__acrt_fenv_machine_x87_status@@W40@0@Z 100566fc f i libucrt:_fenvutils.obj
 0001:00055709       ??U@YA?AW4__acrt_fenv_abstract_control@@W40@0@Z 10056709 f i libucrt:_fenvutils.obj
 0001:00055716       ??U@YA?AW4__acrt_fenv_abstract_status@@W40@0@Z 10056716 f i libucrt:_fenvutils.obj
 0001:00055723       ??U@YA?AW4__acrt_fenv_machine_sse_control@@W40@0@Z 10056723 f i libucrt:_fenvutils.obj
 0001:00055730       ??U@YA?AW4__acrt_fenv_machine_x87_control@@W40@0@Z 10056730 f i libucrt:_fenvutils.obj
 0001:0005573d       ??_5@YAAAW4__acrt_fenv_abstract_control@@AAW40@W40@@Z 1005673d f i libucrt:_fenvutils.obj
 0001:0005574c       ??_5@YAAAW4__acrt_fenv_abstract_status@@AAW40@W40@@Z 1005674c f i libucrt:_fenvutils.obj
 0001:0005575b       ??_5@YAAAW4__acrt_fenv_machine_sse_control@@AAW40@W40@@Z 1005675b f i libucrt:_fenvutils.obj
 0001:0005576c       ??_5@YAAAW4__acrt_fenv_machine_sse_status@@AAW40@W40@@Z 1005676c f i libucrt:_fenvutils.obj
 0001:0005577b       ??_5@YAAAW4__acrt_fenv_machine_x87_control@@AAW40@W40@@Z 1005677b f i libucrt:_fenvutils.obj
 0001:0005578c       ??_5@YAAAW4__acrt_fenv_machine_x87_status@@AAW40@W40@@Z 1005678c f i libucrt:_fenvutils.obj
 0001:0005579b       ?__acrt_fenv_shift_abstract_sse_control@@YA?AW4__acrt_fenv_abstract_control@@W41@@Z 1005679b f i libucrt:_fenvutils.obj
 0001:000557b8       ?__acrt_fenv_shift_abstract_sse_status@@YA?AW4__acrt_fenv_abstract_status@@W41@@Z 100567b8 f i libucrt:_fenvutils.obj
 0001:000557c8       ?__acrt_fenv_shift_abstract_x87_control@@YA?AW4__acrt_fenv_abstract_control@@W41@@Z 100567c8 f i libucrt:_fenvutils.obj
 0001:000557e5       ?__acrt_fenv_shift_abstract_x87_status@@YA?AW4__acrt_fenv_abstract_status@@W41@@Z 100567e5 f i libucrt:_fenvutils.obj
 0001:000557f5       ?__acrt_fenv_unshift_abstract_sse_control@@YA?AW4__acrt_fenv_abstract_control@@W41@@Z 100567f5 f i libucrt:_fenvutils.obj
 0001:00055814       ?__acrt_fenv_unshift_abstract_sse_status@@YA?AW4__acrt_fenv_abstract_status@@W41@@Z 10056814 f i libucrt:_fenvutils.obj
 0001:00055824       ?__acrt_fenv_unshift_abstract_x87_control@@YA?AW4__acrt_fenv_abstract_control@@W41@@Z 10056824 f i libucrt:_fenvutils.obj
 0001:00055843       ?__acrt_fenv_unshift_abstract_x87_status@@YA?AW4__acrt_fenv_abstract_status@@W41@@Z 10056843 f i libucrt:_fenvutils.obj
 0001:00055d56       ___acrt_fenv_expand_round_control 10056d56 f   libucrt:_fenvutils.obj
 0001:00055d8c       ___acrt_fenv_get_common_round_control 10056d8c f   libucrt:_fenvutils.obj
 0001:00055dae       ___acrt_fenv_get_control   10056dae f   libucrt:_fenvutils.obj
 0001:00055e2e       ___acrt_fenv_get_fp_status_word_from_exception_mask 10056e2e f   libucrt:_fenvutils.obj
 0001:00055e48       ___acrt_fenv_get_status    10056e48 f   libucrt:_fenvutils.obj
 0001:00055ef2       ___acrt_fenv_set_control   10056ef2 f   libucrt:_fenvutils.obj
 0001:00055f6d       ___acrt_fenv_set_status    10056f6d f   libucrt:_fenvutils.obj
 0001:00056148       ___acrt_GetLocaleInfoA     10057148 f   libucrt:getlocaleinfoa.obj
 0001:000567fa       __i64toa                   100577fa f   libucrt:xtoa.obj
 0001:0005683b       __i64toa_s                 1005783b f   libucrt:xtoa.obj
 0001:0005687a       __i64tow                   1005787a f   libucrt:xtoa.obj
 0001:000568bb       __i64tow_s                 100578bb f   libucrt:xtoa.obj
 0001:000568fa       __itoa                     100578fa f   libucrt:xtoa.obj
 0001:0005692f       __itoa_s                   1005792f f   libucrt:xtoa.obj
 0001:00056962       __itow                     10057962 f   libucrt:xtoa.obj
 0001:00056997       __itow_s                   10057997 f   libucrt:xtoa.obj
 0001:000569ca       __ltoa                     100579ca f   libucrt:xtoa.obj
 0001:000569ff       __ltoa_s                   100579ff f   libucrt:xtoa.obj
 0001:00056a32       __ltow                     10057a32 f   libucrt:xtoa.obj
 0001:00056a67       __ltow_s                   10057a67 f   libucrt:xtoa.obj
 0001:00056a9a       __ui64toa                  10057a9a f   libucrt:xtoa.obj
 0001:00056abc       __ui64toa_s                10057abc f   libucrt:xtoa.obj
 0001:00056adc       __ui64tow                  10057adc f   libucrt:xtoa.obj
 0001:00056afe       __ui64tow_s                10057afe f   libucrt:xtoa.obj
 0001:00056b1e       __ultoa                    10057b1e f   libucrt:xtoa.obj
 0001:00056b3d       __ultoa_s                  10057b3d f   libucrt:xtoa.obj
 0001:00056b5a       __ultow                    10057b5a f   libucrt:xtoa.obj
 0001:00056b79       __ultow_s                  10057b79 f   libucrt:xtoa.obj
 0001:00056b96       __controlfp_s              10057b96 f   libucrt:contrlfp.obj
 0001:00056bf5       _fegetenv                  10057bf5 f   libucrt:fegetenv.obj
 0001:00056c12       _fesetenv                  10057c12 f   libucrt:fesetenv.obj
 0001:00056c5e       _feholdexcept              10057c5e f   libucrt:feholdexcept.obj
 0001:00056cb0       __CIlog10                  10057cb0 f   libucrt:log10_impl.obj
 0001:00056ceb       __CIlog10_default          10057ceb f   libucrt:log10_impl.obj
 0001:00056cff       __log10_default            10057cff     libucrt:log10_impl.obj
 0001:00056dc0       _ceil                      10057dc0 f   libucrt:ceil_pentium4.obj
 0001:00056e00       __ceil_pentium4            10057e00 f   libucrt:ceil_pentium4.obj
 0001:00056edd       ?reset_and_return@__crt_mbstring@@YAIIPAU_Mbstatet@@@Z 10057edd f   libucrt:common_utf8.obj
 0001:00056ef1       ?return_illegal_sequence@__crt_mbstring@@YAIPAU_Mbstatet@@AAV__crt_cached_ptd_host@@@Z 10057ef1 f   libucrt:common_utf8.obj
 0001:00056f13       ?__mbrtoc32_utf8@__crt_mbstring@@YAIPA_UPBDIPAU_Mbstatet@@AAV__crt_cached_ptd_host@@@Z 10057f13 f   libucrt:mbrtoc32.obj
 0001:000570c4       _mbrtoc32                  100580c4 f   libucrt:mbrtoc32.obj
 0001:000574de       __lseek                    100584de f   libucrt:lseek.obj
 0001:00057515       __lseek_internal           10058515 f   libucrt:lseek.obj
 0001:00057520       __lseek_nolock             10058520 f   libucrt:lseek.obj
 0001:00057557       __lseek_nolock_internal    10058557 f   libucrt:lseek.obj
 0001:00057562       __lseeki64                 10058562 f   libucrt:lseek.obj
 0001:000575a2       __lseeki64_internal        100585a2 f   libucrt:lseek.obj
 0001:000575c0       __lseeki64_nolock          100585c0 f   libucrt:lseek.obj
 0001:00057600       __lseeki64_nolock_internal 10058600 f   libucrt:lseek.obj
 0001:0005761e       ___acrt_stdio_allocate_buffer_nolock 1005861e f   libucrt:_getbuf.obj
 0001:0005771a       ___acrt_report_runtime_error 1005871a f   libucrt:report_runtime_error.obj
 0001:0005782f       __query_app_type           1005882f f   libucrt:report_runtime_error.obj
 0001:00057835       __set_app_type             10058835 f   libucrt:report_runtime_error.obj
 0001:00057925       __putwch                   10058925 f   libucrt:putwch.obj
 0001:00057952       __putwch_nolock            10058952 f   libucrt:putwch.obj
 0001:00057984       __putwch_nolock_internal   10058984 f   libucrt:putwch.obj
 0001:00057ed2       __read                     10058ed2 f   libucrt:read.obj
 0001:00057feb       __read_nolock              10058feb f   libucrt:read.obj
 0001:00058380       ___ascii_strnicmp          10059380 f   libucrt:_strnicm.obj
 0001:000583e1       ??$__crt_interlocked_read@H@@YAHPDH@Z 100593e1 f i libucrt:setmode.obj
 0001:000583ee       __get_fmode                100593ee f   libucrt:setmode.obj
 0001:0005841b       __set_fmode                1005941b f   libucrt:setmode.obj
 0001:00058458       __setmode                  10059458 f   libucrt:setmode.obj
 0001:00058578       __setmode_nolock           10059578 f   libucrt:setmode.obj
 0001:00058743       ??0__crt_seek_guard@@QAE@H_J@Z 10059743 f i libucrt:chsize.obj
 0001:00058790       ??1__crt_seek_guard@@QAE@XZ 10059790 f i libucrt:chsize.obj
 0001:000588b0       ?check@?$cached@K@__crt_cached_ptd_host@@QBE_NK@Z 100598b0 f i libucrt:chsize.obj
 0001:000588cc       __chsize                   100598cc f   libucrt:chsize.obj
 0001:000588e8       __chsize_nolock            100598e8 f   libucrt:chsize.obj
 0001:0005891f       __chsize_nolock_internal   1005991f f   libucrt:chsize.obj
 0001:00058ab6       __chsize_s                 10059ab6 f   libucrt:chsize.obj
 0001:00058aed       __umask                    10059aed f   libucrt:umask.obj
 0001:00058b10       __umask_s                  10059b10 f   libucrt:umask.obj
 0001:00058b4b       ___strncnt                 10059b4b f   libucrt:strncnt.obj
 0001:00058b67       ___acrt_CompareStringW     10059b67 f   libucrt:comparestringw.obj
 0001:00058e6b       ___acrt_CompareStringA     10059e6b f   libucrt:comparestringa.obj
 0001:00058ff4       ___control87_2             10059ff4 f   libucrt:ieee87.obj
 0001:0005948c       ___fpreset_sse2            1005a48c f   libucrt:ieee87.obj
 0001:00059662       __clearfp                  1005a662 f   libucrt:ieee87.obj
 0001:00059740       __control87                1005a740 f   libucrt:ieee87.obj
 0001:00059a41       __controlfp                1005aa41 f   libucrt:ieee87.obj
 0001:00059a5b       __fpreset                  1005aa5b f   libucrt:ieee87.obj
 0001:00059b31       __set_controlfp            1005ab31 f   libucrt:ieee87.obj
 0001:00059ba4       __statusfp                 1005aba4 f   libucrt:ieee87.obj
 0001:00059c3f       __statusfp2                1005ac3f f   libucrt:ieee87.obj
 0001:00059ca2       ___acrt_initialize_sse2    1005aca2 f   libucrt:mathfcns.obj
 0001:00059cb2       __set_SSE2_enable          1005acb2 f   libucrt:mathfcns.obj
 0001:00059ce0       __CIlog10_pentium4         1005ace0 f   libucrt:log10_pentium4.obj
 0001:00059cf8       __log10_pentium4           1005acf8     libucrt:log10_pentium4.obj
 0001:00059f90       __fFEXP                    1005af90 f   libucrt:87tran.obj
 0001:00059fe7       __rtinfpopse               1005afe7     libucrt:87tran.obj
 0001:00059fe9       __rtinfnpopse              1005afe9     libucrt:87tran.obj
 0001:00059ff9       __fFLN                     1005aff9     libucrt:87tran.obj
 0001:0005a0ae       __rtinfpop                 1005b0ae     libucrt:87tran.obj
 0001:0005a0b0       __rtinfnpop                1005b0b0     libucrt:87tran.obj
 0001:0005a0c0       __rtforexpinf              1005b0c0 f   libucrt:87tran.obj
 0001:0005a0cd       __ffexpm1                  1005b0cd     libucrt:87tran.obj
 0001:0005a180       __trandisp1                1005b180 f   libucrt:87disp.obj
 0001:0005a1f5       __trandisp2                1005b1f5 f   libucrt:87disp.obj
 0001:0005a28f       __rttospopde               1005b28f     libucrt:87disp.obj
 0001:0005a294       __rttospop                 1005b294     libucrt:87disp.obj
 0001:0005a2a0       __rtnospop                 1005b2a0 f   libucrt:87disp.obj
 0001:0005a2b0       __rttosnpop                1005b2b0 f   libucrt:87disp.obj
 0001:0005a2b1       __rtnospopde               1005b2b1     libucrt:87disp.obj
 0001:0005a2b8       __rtzeropop                1005b2b8     libucrt:87disp.obj
 0001:0005a2ba       __rtzeronpop               1005b2ba     libucrt:87disp.obj
 0001:0005a2c0       __rtzerospop               1005b2c0 f   libucrt:87disp.obj
 0001:0005a2cd       __rtonepop                 1005b2cd     libucrt:87disp.obj
 0001:0005a2d0       __rtonenpop                1005b2d0 f   libucrt:87disp.obj
 0001:0005a2e0       __tosnan1                  1005b2e0 f   libucrt:87disp.obj
 0001:0005a310       __nosnan2                  1005b310 f   libucrt:87disp.obj
 0001:0005a320       __tosnan2                  1005b320 f   libucrt:87disp.obj
 0001:0005a350       __nan2                     1005b350 f   libucrt:87disp.obj
 0001:0005a390       __rtindfpop                1005b390 f   libucrt:87disp.obj
 0001:0005a392       __rtindfnpop               1005b392     libucrt:87disp.obj
 0001:0005a3a3       __rttosnpopde              1005b3a3     libucrt:87disp.obj
 0001:0005a3b0       __rtatan2inf               1005b3b0 f   libucrt:87disp.obj
 0001:0005a3cd       __rtchsifneg               1005b3cd     libucrt:87disp.obj
 0001:0005a3d4       ___setfflag                1005b3d4 f   libucrt:fp_flags.obj
 0001:0005a3f0       __twoToTOS                 1005b3f0 f   libucrt:common.obj
 0001:0005a405       __load_CW                  1005b405 f   libucrt:common.obj
 0001:0005a41c       __convertTOStoQNaN         1005b41c f   libucrt:common.obj
 0001:0005a435       __fload_withFB             1005b435 f   libucrt:common.obj
 0001:0005a478       __checkTOS_withFB          1005b478 f   libucrt:common.obj
 0001:0005a48e       __fast_exit                1005b48e f   libucrt:common.obj
 0001:0005a49b       __math_exit                1005b49b f   libucrt:common.obj
 0001:0005a4c5       __check_overflow_exit      1005b4c5 f   libucrt:common.obj
 0001:0005a4d9       __check_range_exit         1005b4d9 f   libucrt:common.obj
 0001:0005a580       __startTwoArgErrorHandling 1005b580 f   libucrt:genexcep.obj
 0001:0005a597       __startOneArgErrorHandling 1005b597 f   libucrt:genexcep.obj
 0001:0005a5d3       ___libm_error_support      1005b5d3 f   libucrt:libm_error.obj
 0001:0005a7c7       ___libm_setusermatherr     1005b7c7 f   libucrt:libm_error.obj
 0001:0005a7ee       __ceil_default             1005b7ee f   libucrt:ceil.obj
 0001:0005a8ac       __set_error_mode           1005b8ac f   libucrt:set_error_mode.obj
 0001:0005a9ee       ??$message_box@$$TABQBDABQBDK@?$__crt_char_traits@D@@SAH$$QA$$TABQBD1$$QAK@Z 1005b9ee f i libucrt:crtmbox.obj
 0001:0005aa0e       ??$message_box@$$TABQB_WABQB_WK@?$__crt_char_traits@_W@@SAH$$QA$$TABQB_W1$$QAK@Z 1005ba0e f i libucrt:crtmbox.obj
 0001:0005aa2e       ??$message_box@PAUHWND__@@ABQBDABQBDABI@?$__crt_char_traits@D@@SAH$$QAPAUHWND__@@ABQBD1ABI@Z 1005ba2e f i libucrt:crtmbox.obj
 0001:0005aa4e       ??$message_box@PAUHWND__@@ABQB_WABQB_WABI@?$__crt_char_traits@_W@@SAH$$QAPAUHWND__@@ABQB_W1ABI@Z 1005ba4e f i libucrt:crtmbox.obj
 0001:0005aa6e       ??$output_debug_string@ABQBD@?$__crt_char_traits@D@@SAXABQBD@Z 1005ba6e f i libucrt:crtmbox.obj
 0001:0005aa7f       ??$output_debug_string@ABQB_W@?$__crt_char_traits@_W@@SAXABQB_W@Z 1005ba7f f i libucrt:crtmbox.obj
 0001:0005aa91       ___acrt_show_narrow_message_box 1005ba91 f   libucrt:crtmbox.obj
 0001:0005aa9c       ___acrt_show_wide_message_box 1005ba9c f   libucrt:crtmbox.obj
 0001:0005ab57       ___dcrt_lowio_ensure_console_output_initialized 1005bb57 f   libucrt:initcon.obj
 0001:0005ab76       ___dcrt_terminate_console_output 1005bb76 f   libucrt:initcon.obj
 0001:0005ab8d       ___dcrt_write_console      1005bb8d f   libucrt:initcon.obj
 0001:0005abe2       ?dangerous_get_state_array@?$dual_state_global@H@__crt_state_management@@QAEPAHXZ 1005bbe2 f i libucrt:txtmode.obj
 0001:0005abe5       ___acrt_initialize_fmode   1005bbe5 f   libucrt:txtmode.obj
 0001:0005abfb       ___p__fmode                1005bbfb f   libucrt:txtmode.obj
 0001:0005ac01       __d_inttype                1005bc01 f   libucrt:powhlp.obj
 0001:0005ac69       __powhlp                   1005bc69 f   libucrt:powhlp.obj
 0001:0005ad94       __87except                 1005bd94 f   libucrt:87except.obj
 0001:0005aea4       __frnd                     1005bea4 f   libucrt:frnd.obj
 0001:0005aeb8       ___acrt_OutputDebugStringA@4 1005beb8 f   libucrt:outputdebugstringa.obj
 0001:0005af27       __chgsign                  1005bf27 f   libucrt:ieeemisc.obj
 0001:0005af4f       __chgsignf                 1005bf4f f   libucrt:ieeemisc.obj
 0001:0005af70       __copysign                 1005bf70 f   libucrt:ieeemisc.obj
 0001:0005af93       __copysignf                1005bf93 f   libucrt:ieeemisc.obj
 0001:0005afaf       __finite                   1005bfaf f   libucrt:ieeemisc.obj
 0001:0005afc9       __fpclass                  1005bfc9 f   libucrt:ieeemisc.obj
 0001:0005b06d       __isnan                    1005c06d f   libucrt:ieeemisc.obj
 0001:0005b0a4       __logb                     1005c0a4 f   libucrt:ieeemisc.obj
 0001:0005b174       __nextafter                1005c174 f   libucrt:ieeemisc.obj
 0001:0005b193       __scalb                    1005c193 f   libucrt:ieeemisc.obj
 0001:0005b450       __mbstowcs_l               1005c450 f   libucrt:mbstowcs.obj
 0001:0005b488       __mbstowcs_s_l             1005c488 f   libucrt:mbstowcs.obj
 0001:0005b4c6       _mbstowcs                  1005c4c6 f   libucrt:mbstowcs.obj
 0001:0005b4fd       _mbstowcs_s                1005c4fd f   libucrt:mbstowcs.obj
 0001:0005b53a       _ldexp                     1005c53a f   libucrt:ldexp.obj
 0001:0005b72d       _nextafter                 1005c72d f   libucrt:nextafter.obj
 0001:0005b74c       _nexttoward                1005c74c f   libucrt:nexttoward.obj
 0001:0005b937       __d_int                    1005c937 f   libucrt:_test.obj
 0001:0005ba3d       __dtest                    1005ca3d f   libucrt:_test.obj
 0001:0005baa1       __fd_int                   1005caa1 f   libucrt:_test.obj
 0001:0005bb6e       __fdtest                   1005cb6e f   libucrt:_test.obj
 0001:0005bbbc       __fperrraise               1005cbbc f   libucrt:_test.obj
 0001:0005bbdd       __ld_int                   1005cbdd f   libucrt:_test.obj
 0001:0005bbe8       __ldtest                   1005cbe8 f   libucrt:_test.obj
 0001:0005bbf3       __dclass                   1005cbf3 f   libucrt:nan.obj
 0001:0005bc04       __dpcomp                   1005cc04 f   libucrt:nan.obj
 0001:0005bc5a       __dsign                    1005cc5a f   libucrt:nan.obj
 0001:0005bc6a       _nan                       1005cc6a f   libucrt:nan.obj
 0001:0005bc71       __ldclass                  1005cc71 f   libucrt:nanl.obj
 0001:0005bc82       __ldpcomp                  1005cc82 f   libucrt:nanl.obj
 0001:0005bcd8       __ldsign                   1005ccd8 f   libucrt:nanl.obj
 0001:0005bce8       _nanl                      1005cce8 f   libucrt:nanl.obj
 0001:0005bcef       ??_4@YAAAW4__acrt_fenv_abstract_status@@AAW40@W40@@Z 1005ccef f i libucrt:fegetexceptflag.obj
 0001:0005bcfe       _fegetexceptflag           1005ccfe f   libucrt:fegetexceptflag.obj
 0001:0005bd2f       ??S@YA?AW4__acrt_fenv_abstract_status@@W40@@Z 1005cd2f f i libucrt:fesetexceptflag.obj
 0001:0005bd3b       _fesetexceptflag           1005cd3b f   libucrt:fesetexceptflag.obj
 0001:0005bd9d       _fetestexcept              1005cd9d f   libucrt:fetestexcept.obj
 0001:0005bdbd       _IsDebuggerPresent@0       1005cdbd f   kernel32:KERNEL32.dll
 0001:0005bdc3       _SetEvent@4                1005cdc3 f   kernel32:KERNEL32.dll
 0001:0005bdc9       _ResetEvent@4              1005cdc9 f   kernel32:KERNEL32.dll
 0001:0005bdcf       _WaitForSingleObjectEx@12  1005cdcf f   kernel32:KERNEL32.dll
 0001:0005bdd5       _CreateEventW@16           1005cdd5 f   kernel32:KERNEL32.dll
 0001:0005bddb       _UnhandledExceptionFilter@4 1005cddb f   kernel32:KERNEL32.dll
 0001:0005bde1       _IsProcessorFeaturePresent@4 1005cde1 f   kernel32:KERNEL32.dll
 0001:0005bde7       _GetStartupInfoW@4         1005cde7 f   kernel32:KERNEL32.dll
 0001:0005bded       _QueryPerformanceCounter@4 1005cded f   kernel32:KERNEL32.dll
 0001:0005bdf3       _GetSystemTimeAsFileTime@4 1005cdf3 f   kernel32:KERNEL32.dll
 0001:0005bdf9       _InitializeSListHead@4     1005cdf9 f   kernel32:KERNEL32.dll
 0001:0005bdff       _RtlUnwind@16              1005cdff f   kernel32:KERNEL32.dll
 0001:0005be05       _InterlockedPushEntrySList@8 1005ce05 f   kernel32:KERNEL32.dll
 0001:0005be0b       _InterlockedFlushSList@4   1005ce0b f   kernel32:KERNEL32.dll
 0001:0005be11       _EncodePointer@4           1005ce11 f   kernel32:KERNEL32.dll
 0001:0005be17       _TlsAlloc@0                1005ce17 f   kernel32:KERNEL32.dll
 0001:0005be1d       _TlsGetValue@4             1005ce1d f   kernel32:KERNEL32.dll
 0001:0005be23       _TlsSetValue@8             1005ce23 f   kernel32:KERNEL32.dll
 0001:0005be29       _TlsFree@4                 1005ce29 f   kernel32:KERNEL32.dll
 0001:0005be2f       _ExitProcess@4             1005ce2f f   kernel32:KERNEL32.dll
 0001:0005be35       _GetModuleHandleExW@12     1005ce35 f   kernel32:KERNEL32.dll
 0001:0005be3b       _CreateThread@24           1005ce3b f   kernel32:KERNEL32.dll
 0001:0005be41       _ExitThread@4              1005ce41 f   kernel32:KERNEL32.dll
 0001:0005be47       _FreeLibraryAndExitThread@8 1005ce47 f   kernel32:KERNEL32.dll
 0001:0005be4d       _SetConsoleCtrlHandler@8   1005ce4d f   kernel32:KERNEL32.dll
 0001:0005be53       _GetCurrentThread@0        1005ce53 f   kernel32:KERNEL32.dll
 0001:0005be59       _GetStdHandle@4            1005ce59 f   kernel32:KERNEL32.dll
 0001:0005be5f       _GetFileType@4             1005ce5f f   kernel32:KERNEL32.dll
 0001:0005be65       _GetDateFormatW@24         1005ce65 f   kernel32:KERNEL32.dll
 0001:0005be6b       _GetTimeFormatW@24         1005ce6b f   kernel32:KERNEL32.dll
 0001:0005be71       _CompareStringW@24         1005ce71 f   kernel32:KERNEL32.dll
 0001:0005be77       _LCMapStringW@24           1005ce77 f   kernel32:KERNEL32.dll
 0001:0005be7d       _GetLocaleInfoW@16         1005ce7d f   kernel32:KERNEL32.dll
 0001:0005be83       _IsValidLocale@8           1005ce83 f   kernel32:KERNEL32.dll
 0001:0005be89       _GetUserDefaultLCID@0      1005ce89 f   kernel32:KERNEL32.dll
 0001:0005be8f       _EnumSystemLocalesW@8      1005ce8f f   kernel32:KERNEL32.dll
 0001:0005be95       _GetTimeZoneInformation@4  1005ce95 f   kernel32:KERNEL32.dll
 0001:0005be9b       _FindClose@4               1005ce9b f   kernel32:KERNEL32.dll
 0001:0005bea1       _FindFirstFileExW@24       1005cea1 f   kernel32:KERNEL32.dll
 0001:0005bea7       _FindNextFileW@8           1005cea7 f   kernel32:KERNEL32.dll
 0001:0005bead       _IsValidCodePage@4         1005cead f   kernel32:KERNEL32.dll
 0001:0005beb3       _GetACP@0                  1005ceb3 f   kernel32:KERNEL32.dll
 0001:0005beb9       _GetOEMCP@0                1005ceb9 f   kernel32:KERNEL32.dll
 0001:0005bebf       _GetCPInfo@8               1005cebf f   kernel32:KERNEL32.dll
 0001:0005bec5       _GetCommandLineA@0         1005cec5 f   kernel32:KERNEL32.dll
 0001:0005becb       _GetCommandLineW@0         1005cecb f   kernel32:KERNEL32.dll
 0001:0005bed1       _GetEnvironmentStringsW@0  1005ced1 f   kernel32:KERNEL32.dll
 0001:0005bed7       _FreeEnvironmentStringsW@4 1005ced7 f   kernel32:KERNEL32.dll
 0001:0005bedd       _SetEnvironmentVariableW@8 1005cedd f   kernel32:KERNEL32.dll
 0001:0005bee3       _GetStringTypeW@16         1005cee3 f   kernel32:KERNEL32.dll
 0001:0005bee9       _GetFileSizeEx@8           1005cee9 f   kernel32:KERNEL32.dll
 0001:0005beef       _SetFilePointerEx@20       1005ceef f   kernel32:KERNEL32.dll
 0001:0005bef5       _SetStdHandle@8            1005cef5 f   kernel32:KERNEL32.dll
 0001:0005befb       _FlushFileBuffers@4        1005cefb f   kernel32:KERNEL32.dll
 0001:0005bf01       _WriteFile@20              1005cf01 f   kernel32:KERNEL32.dll
 0001:0005bf07       _GetConsoleOutputCP@0      1005cf07 f   kernel32:KERNEL32.dll
 0001:0005bf0d       _GetConsoleMode@8          1005cf0d f   kernel32:KERNEL32.dll
 0001:0005bf13       _ReadFile@20               1005cf13 f   kernel32:KERNEL32.dll
 0001:0005bf19       _ReadConsoleW@20           1005cf19 f   kernel32:KERNEL32.dll
 0001:0005bf1f       _SetEndOfFile@4            1005cf1f f   kernel32:KERNEL32.dll
 0001:0005bf25       _WriteConsoleW@20          1005cf25 f   kernel32:KERNEL32.dll
 0001:0005bf30       __FindPESection            1005cf30 f   LIBCMT:pesect.obj
 0001:0005bf80       __IsNonwritableInCurrentImage 1005cf80 f   LIBCMT:pesect.obj
 0001:0005c040       __ValidateImageBase        1005d040 f   LIBCMT:pesect.obj
 0001:0005c080       __aulldvrm                 1005d080 f   LIBCMT:ulldvrm.obj
 0001:0005c120       __aulldiv                  1005d120 f   LIBCMT:ulldiv.obj
 0001:0005c190       __aullrem                  1005d190 f   LIBCMT:ullrem.obj
 0001:0005c210       __alloca_probe_16          1005d210 f   LIBCMT:alloca16.obj
 0001:0005c226       __alloca_probe_8           1005d226     LIBCMT:alloca16.obj
 0001:0005c23c       __except_handler4_noexcept 1005d23c f   LIBCMT:chandler4_noexcept.obj
 0001:0005c290       __allrem                   1005d290 f   LIBCMT:llrem.obj
 0001:0005c350       __ftol2_sse_excpt          1005d350 f   LIBCMT:ftol2.obj
 0001:0005c360       __ftol2_sse                1005d360 f   LIBCMT:ftol2.obj
 0001:0005c370       __ftoi2                    1005d370 f   LIBCMT:ftol2.obj
 0001:0005c3f0       __ftoui2                   1005d3f0 f   LIBCMT:ftol2.obj
 0001:0005c4a0       __ftol2                    1005d4a0 f   LIBCMT:ftol2.obj
 0001:0005c550       __ftoul2                   1005d550 f   LIBCMT:ftol2.obj
 0001:0005c609       __initialize_default_precision 1005d609 f   LIBCMT:default_precision.obj
 0001:0005c630       _strrchr                   1005d630 f   libvcruntime:strrchr.obj
 0001:0005c770       _strchr                    1005d770 f   libvcruntime:strchr.obj
 0001:0005c7de       ___from_strstr_to_strchr   1005d7de     libvcruntime:strchr.obj
 0001:0005c89b       _wcschr                    1005d89b f   libvcruntime:wcschr.obj
 0001:0005c962       __filter_x86_sse2_floating_point_exception_default 1005d962 f   LIBCMT:x86_exception_filter.obj
 0001:0005c962       __filter_x86_sse2_floating_point_exception 1005d962 f   LIBCMT:x86_exception_filter.obj
 0001:0005db8c       ??__FstrHeap@?1??GetInstance@CAtlStringMgr@ATL@@SAPAUIAtlStringMgr@2@XZ@YAXXZ 1005eb8c f i GenericHTTPClient.obj
 0001:0005db96       ??__FstrMgr@?1??GetInstance@CAtlStringMgr@ATL@@SAPAUIAtlStringMgr@2@XZ@YAXXZ 1005eb96 f i GenericHTTPClient.obj
 0002:00000000       __imp__RegQueryInfoKeyW@48 1005f000     advapi32:ADVAPI32.dll
 0002:00000004       __imp__RegEnumKeyExW@32    1005f004     advapi32:ADVAPI32.dll
 0002:00000008       __imp__RegDeleteValueW@8   1005f008     advapi32:ADVAPI32.dll
 0002:0000000c       __imp__RegDeleteKeyW@8     1005f00c     advapi32:ADVAPI32.dll
 0002:00000010       __imp__RegCreateKeyExW@36  1005f010     advapi32:ADVAPI32.dll
 0002:00000014       __imp__RegSetValueExW@24   1005f014     advapi32:ADVAPI32.dll
 0002:00000018       __imp__RegOpenKeyW@12      1005f018     advapi32:ADVAPI32.dll
 0002:0000001c       __imp__RegCreateKeyW@12    1005f01c     advapi32:ADVAPI32.dll
